///////////////////////////////////////////////////////////////////////////////
//
// IAR ANSI C/C++ Compiler V7.10.1.6676/W32 for ARM       18/Jul/2019  10:57:49
// Copyright 1999-2014 IAR Systems AB.
//
//    Cpu mode     =  thumb
//    Endian       =  little
//    Source file  =  
//        E:\DLP_Proj\DLP_source\branches\DLP_opensource\Middlewares\gui\GUI\Widget\EDIT_SetSel.c
//    Command line =  
//        E:\DLP_Proj\DLP_source\branches\DLP_opensource\Middlewares\gui\GUI\Widget\EDIT_SetSel.c
//        -D USE_HAL_DRIVER -D STM32F407xx -D STM32F40_41xxx -D USE_HAL_LIB -D
//        MKS_DLP_BOARD -D TFT35 -lC
//        E:\DLP_Proj\DLP_source\branches\DLP_opensource\EWARM\mksDLP/List\ -lA
//        E:\DLP_Proj\DLP_source\branches\DLP_opensource\EWARM\mksDLP/List\
//        --diag_suppress Pa050 -o
//        E:\DLP_Proj\DLP_source\branches\DLP_opensource\EWARM\mksDLP/Obj\
//        --no_unroll --no_inline --no_tbaa --no_scheduling --debug
//        --endian=little --cpu=Cortex-M4F -e --char_is_signed --fpu=VFPv4_sp
//        --dlib_config "C:\Program Files (x86)\IAR Systems\Embedded Workbench
//        7.0\arm\INC\c\DLib_Config_Full.h" -I
//        E:\DLP_Proj\DLP_source\branches\DLP_opensource\EWARM/../Inc\ -I
//        E:\DLP_Proj\DLP_source\branches\DLP_opensource\EWARM/../Src\ -I
//        E:\DLP_Proj\DLP_source\branches\DLP_opensource\EWARM/../Drivers/STM32F4xx_HAL_Driver/Inc\
//        -I
//        E:\DLP_Proj\DLP_source\branches\DLP_opensource\EWARM/../Drivers/STM32F4xx_HAL_Driver/Inc/Legacy\
//        -I
//        E:\DLP_Proj\DLP_source\branches\DLP_opensource\EWARM/../Middlewares/Third_Party/FatFs/src/drivers\
//        -I
//        E:\DLP_Proj\DLP_source\branches\DLP_opensource\EWARM/../Middlewares/ST/STM32_USB_Host_Library/Core/Inc\
//        -I
//        E:\DLP_Proj\DLP_source\branches\DLP_opensource\EWARM/../Middlewares/ST/STM32_USB_Host_Library/Class/MSC/Inc\
//        -I
//        E:\DLP_Proj\DLP_source\branches\DLP_opensource\EWARM/../Drivers/CMSIS/Device/ST/STM32F4xx/Include\
//        -I
//        E:\DLP_Proj\DLP_source\branches\DLP_opensource\EWARM/../Middlewares/Third_Party/FatFs/src\
//        -I
//        E:\DLP_Proj\DLP_source\branches\DLP_opensource\EWARM/../Middlewares/Third_Party/Marlin\
//        -I
//        E:\DLP_Proj\DLP_source\branches\DLP_opensource\EWARM/../Drivers/CMSIS/Include\
//        -I
//        E:\DLP_Proj\DLP_source\branches\DLP_opensource\EWARM/../Drivers/BSP/variant\
//        -I
//        E:\DLP_Proj\DLP_source\branches\DLP_opensource\EWARM/../Drivers/BSP/Components/at24cxx\
//        -I
//        E:\DLP_Proj\DLP_source\branches\DLP_opensource\EWARM/../Drivers/BSP/Components/w25qxx\
//        -I
//        E:\DLP_Proj\DLP_source\branches\DLP_opensource\EWARM/../Drivers/BSP/Components/ssd2828\
//        -I
//        E:\DLP_Proj\DLP_source\branches\DLP_opensource\EWARM/../Drivers/BSP/Components/lcd\
//        -I
//        E:\DLP_Proj\DLP_source\branches\DLP_opensource\EWARM/../Drivers/libstmf4\
//        -I
//        E:\DLP_Proj\DLP_source\branches\DLP_opensource\EWARM/../Drivers/libstmf4/include\
//        -I
//        E:\DLP_Proj\DLP_source\branches\DLP_opensource\EWARM/../Middlewares/arduino/stm32/cores/arduino\
//        -I
//        E:\DLP_Proj\DLP_source\branches\DLP_opensource\EWARM/../Middlewares/gui\
//        -I
//        E:\DLP_Proj\DLP_source\branches\DLP_opensource\EWARM/../Middlewares/gui/GUI/ConvertColor\
//        -I
//        E:\DLP_Proj\DLP_source\branches\DLP_opensource\EWARM/../Middlewares/gui/GUI/ConvertMono\
//        -I
//        E:\DLP_Proj\DLP_source\branches\DLP_opensource\EWARM/../Middlewares/gui/GUI/Core\
//        -I
//        E:\DLP_Proj\DLP_source\branches\DLP_opensource\EWARM/../Middlewares/gui/GUI/Font\
//        -I
//        E:\DLP_Proj\DLP_source\branches\DLP_opensource\EWARM/../Middlewares/gui/AntiAlias\
//        -I
//        E:\DLP_Proj\DLP_source\branches\DLP_opensource\EWARM/../Middlewares/gui/GUI/GUIDemo\
//        -I
//        E:\DLP_Proj\DLP_source\branches\DLP_opensource\EWARM/../Middlewares/gui/GUI/LCDDriver\
//        -I
//        E:\DLP_Proj\DLP_source\branches\DLP_opensource\EWARM/../Middlewares/gui/GUI/MemDev\
//        -I
//        E:\DLP_Proj\DLP_source\branches\DLP_opensource\EWARM/../Middlewares/gui/GUI/MultiLayer\
//        -I
//        E:\DLP_Proj\DLP_source\branches\DLP_opensource\EWARM/../Middlewares/gui/GUI/Widget\
//        -I
//        E:\DLP_Proj\DLP_source\branches\DLP_opensource\EWARM/../Middlewares/gui/GUI/WM\
//        -I
//        E:\DLP_Proj\DLP_source\branches\DLP_opensource\EWARM/../Middlewares/gui/GUI_X\
//        -I
//        E:\DLP_Proj\DLP_source\branches\DLP_opensource\EWARM/../Middlewares/gui/Config\
//        -I E:\DLP_Proj\DLP_source\branches\DLP_opensource\EWARM/../User/ui\
//        -I
//        E:\DLP_Proj\DLP_source\branches\DLP_opensource\EWARM/../User/ui/Multi_language\
//        -I
//        E:\DLP_Proj\DLP_source\branches\DLP_opensource\EWARM/../User/ui/QRENCODE\
//        -Om --use_c++_inline -I "C:\Program Files (x86)\IAR Systems\Embedded
//        Workbench 7.0\arm\CMSIS\Include\"
//    List file    =  
//        E:\DLP_Proj\DLP_source\branches\DLP_opensource\EWARM\mksDLP/List\EDIT_SetSel.s
//
///////////////////////////////////////////////////////////////////////////////

        RTMODEL "__SystemLibrary", "DLib"
        AAPCS BASE,INTERWORK,VFP
        PRESERVE8
        REQUIRE8

        #define SHT_PROGBITS 0x1

        EXTERN EDIT_GetNumChars
        EXTERN GUI_ALLOC_h2p

        PUBLIC EDIT_SetSel
        
          CFI Names cfiNames0
          CFI StackFrame CFA R13 DATA
          CFI Resource R0:32, R1:32, R2:32, R3:32, R4:32, R5:32, R6:32, R7:32
          CFI Resource R8:32, R9:32, R10:32, R11:32, R12:32, R13:32, R14:32
          CFI Resource D0:64, D1:64, D2:64, D3:64, D4:64, D5:64, D6:64, D7:64
          CFI Resource D8:64, D9:64, D10:64, D11:64, D12:64, D13:64, D14:64
          CFI Resource D15:64
          CFI EndNames cfiNames0
        
          CFI Common cfiCommon0 Using cfiNames0
          CFI CodeAlign 2
          CFI DataAlign 4
          CFI ReturnAddress R14 CODE
          CFI CFA R13+0
          CFI R0 Undefined
          CFI R1 Undefined
          CFI R2 Undefined
          CFI R3 Undefined
          CFI R4 SameValue
          CFI R5 SameValue
          CFI R6 SameValue
          CFI R7 SameValue
          CFI R8 SameValue
          CFI R9 SameValue
          CFI R10 SameValue
          CFI R11 SameValue
          CFI R12 Undefined
          CFI R14 SameValue
          CFI D0 Undefined
          CFI D1 Undefined
          CFI D2 Undefined
          CFI D3 Undefined
          CFI D4 Undefined
          CFI D5 Undefined
          CFI D6 Undefined
          CFI D7 Undefined
          CFI D8 SameValue
          CFI D9 SameValue
          CFI D10 SameValue
          CFI D11 SameValue
          CFI D12 SameValue
          CFI D13 SameValue
          CFI D14 SameValue
          CFI D15 SameValue
          CFI EndCommon cfiCommon0
        
// E:\DLP_Proj\DLP_source\branches\DLP_opensource\Middlewares\gui\GUI\Widget\EDIT_SetSel.c
//    1 /*
//    2 *********************************************************************************************************
//    3 *                                                uC/GUI
//    4 *                        Universal graphic software for embedded applications
//    5 *
//    6 *                       (c) Copyright 2002, Micrium Inc., Weston, FL
//    7 *                       (c) Copyright 2002, SEGGER Microcontroller Systeme GmbH
//    8 *
//    9 *              µC/GUI is protected by international copyright laws. Knowledge of the
//   10 *              source code may not be used to write a similar product. This file may
//   11 *              only be used in accordance with a license and should not be redistributed
//   12 *              in any way. We appreciate your understanding and fairness.
//   13 *
//   14 ----------------------------------------------------------------------
//   15 File        : EDIT_SetSel.c
//   16 Purpose     : Implementation of edit widget
//   17 ---------------------------END-OF-HEADER------------------------------
//   18 */
//   19 
//   20 #include "EDIT.h"
//   21 #include "EDIT_Private.h"
//   22 
//   23 #if GUI_WINSUPPORT
//   24 
//   25 /*********************************************************************
//   26 *
//   27 *             Exported routines
//   28 *
//   29 **********************************************************************
//   30 */
//   31 /*********************************************************************
//   32 *
//   33 *       EDIT_SetSel
//   34 */

        SECTION `.text`:CODE:NOROOT(1)
          CFI Block cfiBlock0 Using cfiCommon0
          CFI Function EDIT_SetSel
        THUMB
//   35 void EDIT_SetSel(EDIT_Handle hObj, int FirstChar, int LastChar) {
EDIT_SetSel:
        PUSH     {R3-R7,LR}
          CFI R14 Frame(CFA, -4)
          CFI R7 Frame(CFA, -8)
          CFI R6 Frame(CFA, -12)
          CFI R5 Frame(CFA, -16)
          CFI R4 Frame(CFA, -20)
          CFI CFA R13+24
        MOV      R5,R0
        MOV      R6,R1
        MOV      R7,R2
//   36   if (hObj) {
        CMP      R5,#+0
        BEQ.N    ??EDIT_SetSel_0
//   37     EDIT_Obj* pObj;
//   38     WM_LOCK();
//   39     pObj = EDIT_H2P(hObj);
          CFI FunCall GUI_ALLOC_h2p
        BL       GUI_ALLOC_h2p
        MOV      R4,R0
//   40     if (FirstChar == -1) {
        CMN      R6,#+1
        BNE.N    ??EDIT_SetSel_1
//   41       pObj->SelSize = 0;
        MOVS     R0,#+0
        STR      R0,[R4, #+68]
        POP      {R0,R4-R7,PC}
//   42     } else {
//   43       if (FirstChar > (pObj->BufferSize - 1)) {
??EDIT_SetSel_1:
        LDRH     R0,[R4, #+44]
        SUBS     R0,R0,#+1
        CMP      R0,R6
        BGE.N    ??EDIT_SetSel_2
//   44         FirstChar = pObj->BufferSize - 1;
        MOV      R6,R0
//   45       }
//   46       if (LastChar > (pObj->BufferSize - 1)) {
??EDIT_SetSel_2:
        CMP      R0,R7
        BGE.N    ??EDIT_SetSel_3
//   47         LastChar = pObj->BufferSize - 1;
        MOV      R7,R0
//   48       }
//   49       if (LastChar == -1) {
??EDIT_SetSel_3:
        CMN      R7,#+1
        BNE.N    ??EDIT_SetSel_4
//   50         LastChar = EDIT_GetNumChars(hObj);
        MOV      R0,R5
          CFI FunCall EDIT_GetNumChars
        BL       EDIT_GetNumChars
        MOV      R7,R0
//   51       }
//   52       if (LastChar >= FirstChar) {
??EDIT_SetSel_4:
        CMP      R7,R6
        BLT.N    ??EDIT_SetSel_0
//   53         pObj->CursorPos = FirstChar;
        STR      R6,[R4, #+64]
//   54         pObj->SelSize   = LastChar - FirstChar + 1;
        SUBS     R0,R7,R6
        ADDS     R0,R0,#+1
        STR      R0,[R4, #+68]
//   55       }
//   56     }
//   57     WM_UNLOCK();
//   58   }
//   59 }
??EDIT_SetSel_0:
        POP      {R0,R4-R7,PC}    ;; return
          CFI EndBlock cfiBlock0

        SECTION `.iar_vfe_header`:DATA:NOALLOC:NOROOT(2)
        SECTION_TYPE SHT_PROGBITS, 0
        DATA
        DC32 0

        END
//   60 
//   61 #else  /* avoid empty object files */
//   62 
//   63 void EDIT_SetSel_C(void);
//   64 void EDIT_SetSel_C(void) {}
//   65 
//   66 #endif /* GUI_WINSUPPORT */
//   67 
//   68 
// 
// 74 bytes in section .text
// 
// 74 bytes of CODE memory
//
//Errors: none
//Warnings: none
