///////////////////////////////////////////////////////////////////////////////
//
// IAR ANSI C/C++ Compiler V7.10.1.6676/W32 for ARM       18/Jul/2019  10:58:11
// Copyright 1999-2014 IAR Systems AB.
//
//    Cpu mode     =  thumb
//    Endian       =  little
//    Source file  =  
//        E:\DLP_Proj\DLP_source\branches\DLP_opensource\Middlewares\gui\GUI\Core\GUI_DrawHLine.c
//    Command line =  
//        E:\DLP_Proj\DLP_source\branches\DLP_opensource\Middlewares\gui\GUI\Core\GUI_DrawHLine.c
//        -D USE_HAL_DRIVER -D STM32F407xx -D STM32F40_41xxx -D USE_HAL_LIB -D
//        MKS_DLP_BOARD -D TFT35 -lC
//        E:\DLP_Proj\DLP_source\branches\DLP_opensource\EWARM\mksDLP/List\ -lA
//        E:\DLP_Proj\DLP_source\branches\DLP_opensource\EWARM\mksDLP/List\
//        --diag_suppress Pa050 -o
//        E:\DLP_Proj\DLP_source\branches\DLP_opensource\EWARM\mksDLP/Obj\
//        --no_unroll --no_inline --no_tbaa --no_scheduling --debug
//        --endian=little --cpu=Cortex-M4F -e --char_is_signed --fpu=VFPv4_sp
//        --dlib_config "C:\Program Files (x86)\IAR Systems\Embedded Workbench
//        7.0\arm\INC\c\DLib_Config_Full.h" -I
//        E:\DLP_Proj\DLP_source\branches\DLP_opensource\EWARM/../Inc\ -I
//        E:\DLP_Proj\DLP_source\branches\DLP_opensource\EWARM/../Src\ -I
//        E:\DLP_Proj\DLP_source\branches\DLP_opensource\EWARM/../Drivers/STM32F4xx_HAL_Driver/Inc\
//        -I
//        E:\DLP_Proj\DLP_source\branches\DLP_opensource\EWARM/../Drivers/STM32F4xx_HAL_Driver/Inc/Legacy\
//        -I
//        E:\DLP_Proj\DLP_source\branches\DLP_opensource\EWARM/../Middlewares/Third_Party/FatFs/src/drivers\
//        -I
//        E:\DLP_Proj\DLP_source\branches\DLP_opensource\EWARM/../Middlewares/ST/STM32_USB_Host_Library/Core/Inc\
//        -I
//        E:\DLP_Proj\DLP_source\branches\DLP_opensource\EWARM/../Middlewares/ST/STM32_USB_Host_Library/Class/MSC/Inc\
//        -I
//        E:\DLP_Proj\DLP_source\branches\DLP_opensource\EWARM/../Drivers/CMSIS/Device/ST/STM32F4xx/Include\
//        -I
//        E:\DLP_Proj\DLP_source\branches\DLP_opensource\EWARM/../Middlewares/Third_Party/FatFs/src\
//        -I
//        E:\DLP_Proj\DLP_source\branches\DLP_opensource\EWARM/../Middlewares/Third_Party/Marlin\
//        -I
//        E:\DLP_Proj\DLP_source\branches\DLP_opensource\EWARM/../Drivers/CMSIS/Include\
//        -I
//        E:\DLP_Proj\DLP_source\branches\DLP_opensource\EWARM/../Drivers/BSP/variant\
//        -I
//        E:\DLP_Proj\DLP_source\branches\DLP_opensource\EWARM/../Drivers/BSP/Components/at24cxx\
//        -I
//        E:\DLP_Proj\DLP_source\branches\DLP_opensource\EWARM/../Drivers/BSP/Components/w25qxx\
//        -I
//        E:\DLP_Proj\DLP_source\branches\DLP_opensource\EWARM/../Drivers/BSP/Components/ssd2828\
//        -I
//        E:\DLP_Proj\DLP_source\branches\DLP_opensource\EWARM/../Drivers/BSP/Components/lcd\
//        -I
//        E:\DLP_Proj\DLP_source\branches\DLP_opensource\EWARM/../Drivers/libstmf4\
//        -I
//        E:\DLP_Proj\DLP_source\branches\DLP_opensource\EWARM/../Drivers/libstmf4/include\
//        -I
//        E:\DLP_Proj\DLP_source\branches\DLP_opensource\EWARM/../Middlewares/arduino/stm32/cores/arduino\
//        -I
//        E:\DLP_Proj\DLP_source\branches\DLP_opensource\EWARM/../Middlewares/gui\
//        -I
//        E:\DLP_Proj\DLP_source\branches\DLP_opensource\EWARM/../Middlewares/gui/GUI/ConvertColor\
//        -I
//        E:\DLP_Proj\DLP_source\branches\DLP_opensource\EWARM/../Middlewares/gui/GUI/ConvertMono\
//        -I
//        E:\DLP_Proj\DLP_source\branches\DLP_opensource\EWARM/../Middlewares/gui/GUI/Core\
//        -I
//        E:\DLP_Proj\DLP_source\branches\DLP_opensource\EWARM/../Middlewares/gui/GUI/Font\
//        -I
//        E:\DLP_Proj\DLP_source\branches\DLP_opensource\EWARM/../Middlewares/gui/AntiAlias\
//        -I
//        E:\DLP_Proj\DLP_source\branches\DLP_opensource\EWARM/../Middlewares/gui/GUI/GUIDemo\
//        -I
//        E:\DLP_Proj\DLP_source\branches\DLP_opensource\EWARM/../Middlewares/gui/GUI/LCDDriver\
//        -I
//        E:\DLP_Proj\DLP_source\branches\DLP_opensource\EWARM/../Middlewares/gui/GUI/MemDev\
//        -I
//        E:\DLP_Proj\DLP_source\branches\DLP_opensource\EWARM/../Middlewares/gui/GUI/MultiLayer\
//        -I
//        E:\DLP_Proj\DLP_source\branches\DLP_opensource\EWARM/../Middlewares/gui/GUI/Widget\
//        -I
//        E:\DLP_Proj\DLP_source\branches\DLP_opensource\EWARM/../Middlewares/gui/GUI/WM\
//        -I
//        E:\DLP_Proj\DLP_source\branches\DLP_opensource\EWARM/../Middlewares/gui/GUI_X\
//        -I
//        E:\DLP_Proj\DLP_source\branches\DLP_opensource\EWARM/../Middlewares/gui/Config\
//        -I E:\DLP_Proj\DLP_source\branches\DLP_opensource\EWARM/../User/ui\
//        -I
//        E:\DLP_Proj\DLP_source\branches\DLP_opensource\EWARM/../User/ui/Multi_language\
//        -I
//        E:\DLP_Proj\DLP_source\branches\DLP_opensource\EWARM/../User/ui/QRENCODE\
//        -Om --use_c++_inline -I "C:\Program Files (x86)\IAR Systems\Embedded
//        Workbench 7.0\arm\CMSIS\Include\"
//    List file    =  
//        E:\DLP_Proj\DLP_source\branches\DLP_opensource\EWARM\mksDLP/List\GUI_DrawHLine.s
//
///////////////////////////////////////////////////////////////////////////////

        RTMODEL "__SystemLibrary", "DLib"
        AAPCS BASE,INTERWORK,VFP
        PRESERVE8
        REQUIRE8

        #define SHT_PROGBITS 0x1

        EXTERN GUI_Context
        EXTERN LCD_DrawHLine
        EXTERN WM__GetNextIVR
        EXTERN WM__InitIVRSearch

        PUBLIC GUI_DrawHLine
        
          CFI Names cfiNames0
          CFI StackFrame CFA R13 DATA
          CFI Resource R0:32, R1:32, R2:32, R3:32, R4:32, R5:32, R6:32, R7:32
          CFI Resource R8:32, R9:32, R10:32, R11:32, R12:32, R13:32, R14:32
          CFI Resource D0:64, D1:64, D2:64, D3:64, D4:64, D5:64, D6:64, D7:64
          CFI Resource D8:64, D9:64, D10:64, D11:64, D12:64, D13:64, D14:64
          CFI Resource D15:64
          CFI EndNames cfiNames0
        
          CFI Common cfiCommon0 Using cfiNames0
          CFI CodeAlign 2
          CFI DataAlign 4
          CFI ReturnAddress R14 CODE
          CFI CFA R13+0
          CFI R0 Undefined
          CFI R1 Undefined
          CFI R2 Undefined
          CFI R3 Undefined
          CFI R4 SameValue
          CFI R5 SameValue
          CFI R6 SameValue
          CFI R7 SameValue
          CFI R8 SameValue
          CFI R9 SameValue
          CFI R10 SameValue
          CFI R11 SameValue
          CFI R12 Undefined
          CFI R14 SameValue
          CFI D0 Undefined
          CFI D1 Undefined
          CFI D2 Undefined
          CFI D3 Undefined
          CFI D4 Undefined
          CFI D5 Undefined
          CFI D6 Undefined
          CFI D7 Undefined
          CFI D8 SameValue
          CFI D9 SameValue
          CFI D10 SameValue
          CFI D11 SameValue
          CFI D12 SameValue
          CFI D13 SameValue
          CFI D14 SameValue
          CFI D15 SameValue
          CFI EndCommon cfiCommon0
        
// E:\DLP_Proj\DLP_source\branches\DLP_opensource\Middlewares\gui\GUI\Core\GUI_DrawHLine.c
//    1 /*
//    2 *********************************************************************************************************
//    3 *                                                uC/GUI
//    4 *                        Universal graphic software for embedded applications
//    5 *
//    6 *                       (c) Copyright 2002, Micrium Inc., Weston, FL
//    7 *                       (c) Copyright 2002, SEGGER Microcontroller Systeme GmbH
//    8 *
//    9 *              µC/GUI is protected by international copyright laws. Knowledge of the
//   10 *              source code may not be used to write a similar product. This file may
//   11 *              only be used in accordance with a license and should not be redistributed
//   12 *              in any way. We appreciate your understanding and fairness.
//   13 *
//   14 ----------------------------------------------------------------------
//   15 File        : GUI_DrawHLine.C
//   16 Purpose     : Implementation of GUI_DrawHLine
//   17 ---------------------------END-OF-HEADER------------------------------
//   18 */
//   19 
//   20 #include "GUI_Protected.h"
//   21 
//   22 /*********************************************************************
//   23 *
//   24 *       Public code
//   25 *
//   26 **********************************************************************
//   27 */
//   28 /*********************************************************************
//   29 *
//   30 *       GUI_DrawHLine
//   31 */

        SECTION `.text`:CODE:NOROOT(2)
          CFI Block cfiBlock0 Using cfiCommon0
          CFI Function GUI_DrawHLine
        THUMB
//   32 void GUI_DrawHLine(int y0, int x0, int x1) {
GUI_DrawHLine:
        PUSH     {R2-R6,LR}
          CFI R14 Frame(CFA, -4)
          CFI R6 Frame(CFA, -8)
          CFI R5 Frame(CFA, -12)
          CFI R4 Frame(CFA, -16)
          CFI CFA R13+24
//   33   #if (GUI_WINSUPPORT)
//   34     GUI_RECT r;
//   35   #endif
//   36   GUI_LOCK();
//   37   #if (GUI_WINSUPPORT)
//   38     WM_ADDORG(x0,y0);
        LDR.N    R3,??GUI_DrawHLine_0
        LDR      R6,[R3, #+64]
        ADDS     R4,R6,R1
        LDR      R1,[R3, #+68]
        ADDS     R5,R1,R0
//   39     WM_ADDORGX(x1);
        ADDS     R6,R6,R2
//   40     r.x0 = x0;
        MOV      R0,R4
        STRH     R0,[SP, #+0]
//   41     r.x1 = x1;
        MOV      R0,R6
        STRH     R0,[SP, #+4]
//   42     r.y1 = r.y0 = y0;
        MOV      R0,R5
        STRH     R0,[SP, #+2]
        LDRH     R0,[SP, #+2]
        STRH     R0,[SP, #+6]
//   43     WM_ITERATE_START(&r) {
        ADD      R0,SP,#+0
          CFI FunCall WM__InitIVRSearch
        BL       WM__InitIVRSearch
        CMP      R0,#+0
        BEQ.N    ??GUI_DrawHLine_1
//   44   #endif
//   45   LCD_HL_DrawHLine(x0, y0, x1);
??GUI_DrawHLine_2:
        MOV      R2,R6
        MOV      R1,R5
        MOV      R0,R4
          CFI FunCall LCD_DrawHLine
        BL       LCD_DrawHLine
//   46   #if (GUI_WINSUPPORT)
//   47     } WM_ITERATE_END();
          CFI FunCall WM__GetNextIVR
        BL       WM__GetNextIVR
        CMP      R0,#+0
        BNE.N    ??GUI_DrawHLine_2
//   48   #endif
//   49   GUI_UNLOCK();
//   50 }
??GUI_DrawHLine_1:
        POP      {R0,R1,R4-R6,PC}  ;; return
        Nop      
        DATA
??GUI_DrawHLine_0:
        DC32     GUI_Context
          CFI EndBlock cfiBlock0

        SECTION `.iar_vfe_header`:DATA:NOALLOC:NOROOT(2)
        SECTION_TYPE SHT_PROGBITS, 0
        DATA
        DC32 0

        END
//   51 
//   52 /*************************** End of file ****************************/
// 
// 76 bytes in section .text
// 
// 76 bytes of CODE memory
//
//Errors: none
//Warnings: none
