///////////////////////////////////////////////////////////////////////////////
//
// IAR ANSI C/C++ Compiler V7.10.1.6676/W32 for ARM       18/Jul/2019  10:59:11
// Copyright 1999-2014 IAR Systems AB.
//
//    Cpu mode     =  thumb
//    Endian       =  little
//    Source file  =  
//        E:\DLP_Proj\DLP_source\branches\DLP_opensource\Middlewares\gui\GUI\Widget\LISTVIEW_DeleteColumn.c
//    Command line =  
//        E:\DLP_Proj\DLP_source\branches\DLP_opensource\Middlewares\gui\GUI\Widget\LISTVIEW_DeleteColumn.c
//        -D USE_HAL_DRIVER -D STM32F407xx -D STM32F40_41xxx -D USE_HAL_LIB -D
//        MKS_DLP_BOARD -D TFT35 -lC
//        E:\DLP_Proj\DLP_source\branches\DLP_opensource\EWARM\mksDLP/List\ -lA
//        E:\DLP_Proj\DLP_source\branches\DLP_opensource\EWARM\mksDLP/List\
//        --diag_suppress Pa050 -o
//        E:\DLP_Proj\DLP_source\branches\DLP_opensource\EWARM\mksDLP/Obj\
//        --no_unroll --no_inline --no_tbaa --no_scheduling --debug
//        --endian=little --cpu=Cortex-M4F -e --char_is_signed --fpu=VFPv4_sp
//        --dlib_config "C:\Program Files (x86)\IAR Systems\Embedded Workbench
//        7.0\arm\INC\c\DLib_Config_Full.h" -I
//        E:\DLP_Proj\DLP_source\branches\DLP_opensource\EWARM/../Inc\ -I
//        E:\DLP_Proj\DLP_source\branches\DLP_opensource\EWARM/../Src\ -I
//        E:\DLP_Proj\DLP_source\branches\DLP_opensource\EWARM/../Drivers/STM32F4xx_HAL_Driver/Inc\
//        -I
//        E:\DLP_Proj\DLP_source\branches\DLP_opensource\EWARM/../Drivers/STM32F4xx_HAL_Driver/Inc/Legacy\
//        -I
//        E:\DLP_Proj\DLP_source\branches\DLP_opensource\EWARM/../Middlewares/Third_Party/FatFs/src/drivers\
//        -I
//        E:\DLP_Proj\DLP_source\branches\DLP_opensource\EWARM/../Middlewares/ST/STM32_USB_Host_Library/Core/Inc\
//        -I
//        E:\DLP_Proj\DLP_source\branches\DLP_opensource\EWARM/../Middlewares/ST/STM32_USB_Host_Library/Class/MSC/Inc\
//        -I
//        E:\DLP_Proj\DLP_source\branches\DLP_opensource\EWARM/../Drivers/CMSIS/Device/ST/STM32F4xx/Include\
//        -I
//        E:\DLP_Proj\DLP_source\branches\DLP_opensource\EWARM/../Middlewares/Third_Party/FatFs/src\
//        -I
//        E:\DLP_Proj\DLP_source\branches\DLP_opensource\EWARM/../Middlewares/Third_Party/Marlin\
//        -I
//        E:\DLP_Proj\DLP_source\branches\DLP_opensource\EWARM/../Drivers/CMSIS/Include\
//        -I
//        E:\DLP_Proj\DLP_source\branches\DLP_opensource\EWARM/../Drivers/BSP/variant\
//        -I
//        E:\DLP_Proj\DLP_source\branches\DLP_opensource\EWARM/../Drivers/BSP/Components/at24cxx\
//        -I
//        E:\DLP_Proj\DLP_source\branches\DLP_opensource\EWARM/../Drivers/BSP/Components/w25qxx\
//        -I
//        E:\DLP_Proj\DLP_source\branches\DLP_opensource\EWARM/../Drivers/BSP/Components/ssd2828\
//        -I
//        E:\DLP_Proj\DLP_source\branches\DLP_opensource\EWARM/../Drivers/BSP/Components/lcd\
//        -I
//        E:\DLP_Proj\DLP_source\branches\DLP_opensource\EWARM/../Drivers/libstmf4\
//        -I
//        E:\DLP_Proj\DLP_source\branches\DLP_opensource\EWARM/../Drivers/libstmf4/include\
//        -I
//        E:\DLP_Proj\DLP_source\branches\DLP_opensource\EWARM/../Middlewares/arduino/stm32/cores/arduino\
//        -I
//        E:\DLP_Proj\DLP_source\branches\DLP_opensource\EWARM/../Middlewares/gui\
//        -I
//        E:\DLP_Proj\DLP_source\branches\DLP_opensource\EWARM/../Middlewares/gui/GUI/ConvertColor\
//        -I
//        E:\DLP_Proj\DLP_source\branches\DLP_opensource\EWARM/../Middlewares/gui/GUI/ConvertMono\
//        -I
//        E:\DLP_Proj\DLP_source\branches\DLP_opensource\EWARM/../Middlewares/gui/GUI/Core\
//        -I
//        E:\DLP_Proj\DLP_source\branches\DLP_opensource\EWARM/../Middlewares/gui/GUI/Font\
//        -I
//        E:\DLP_Proj\DLP_source\branches\DLP_opensource\EWARM/../Middlewares/gui/AntiAlias\
//        -I
//        E:\DLP_Proj\DLP_source\branches\DLP_opensource\EWARM/../Middlewares/gui/GUI/GUIDemo\
//        -I
//        E:\DLP_Proj\DLP_source\branches\DLP_opensource\EWARM/../Middlewares/gui/GUI/LCDDriver\
//        -I
//        E:\DLP_Proj\DLP_source\branches\DLP_opensource\EWARM/../Middlewares/gui/GUI/MemDev\
//        -I
//        E:\DLP_Proj\DLP_source\branches\DLP_opensource\EWARM/../Middlewares/gui/GUI/MultiLayer\
//        -I
//        E:\DLP_Proj\DLP_source\branches\DLP_opensource\EWARM/../Middlewares/gui/GUI/Widget\
//        -I
//        E:\DLP_Proj\DLP_source\branches\DLP_opensource\EWARM/../Middlewares/gui/GUI/WM\
//        -I
//        E:\DLP_Proj\DLP_source\branches\DLP_opensource\EWARM/../Middlewares/gui/GUI_X\
//        -I
//        E:\DLP_Proj\DLP_source\branches\DLP_opensource\EWARM/../Middlewares/gui/Config\
//        -I E:\DLP_Proj\DLP_source\branches\DLP_opensource\EWARM/../User/ui\
//        -I
//        E:\DLP_Proj\DLP_source\branches\DLP_opensource\EWARM/../User/ui/Multi_language\
//        -I
//        E:\DLP_Proj\DLP_source\branches\DLP_opensource\EWARM/../User/ui/QRENCODE\
//        -Om --use_c++_inline -I "C:\Program Files (x86)\IAR Systems\Embedded
//        Workbench 7.0\arm\CMSIS\Include\"
//    List file    =  
//        E:\DLP_Proj\DLP_source\branches\DLP_opensource\EWARM\mksDLP/List\LISTVIEW_DeleteColumn.s
//
///////////////////////////////////////////////////////////////////////////////

        RTMODEL "__SystemLibrary", "DLib"
        AAPCS BASE,INTERWORK,VFP
        PRESERVE8
        REQUIRE8

        #define SHT_PROGBITS 0x1

        EXTERN GUI_ALLOC_Free
        EXTERN GUI_ALLOC_h2p
        EXTERN GUI_ARRAY_DeleteItem
        EXTERN GUI_ARRAY_GetNumItems
        EXTERN GUI_ARRAY_GetpItem
        EXTERN HEADER_DeleteItem
        EXTERN LISTVIEW__InvalidateInsideArea
        EXTERN LISTVIEW__UpdateScrollParas

        PUBLIC LISTVIEW_DeleteColumn
        
          CFI Names cfiNames0
          CFI StackFrame CFA R13 DATA
          CFI Resource R0:32, R1:32, R2:32, R3:32, R4:32, R5:32, R6:32, R7:32
          CFI Resource R8:32, R9:32, R10:32, R11:32, R12:32, R13:32, R14:32
          CFI Resource D0:64, D1:64, D2:64, D3:64, D4:64, D5:64, D6:64, D7:64
          CFI Resource D8:64, D9:64, D10:64, D11:64, D12:64, D13:64, D14:64
          CFI Resource D15:64
          CFI EndNames cfiNames0
        
          CFI Common cfiCommon0 Using cfiNames0
          CFI CodeAlign 2
          CFI DataAlign 4
          CFI ReturnAddress R14 CODE
          CFI CFA R13+0
          CFI R0 Undefined
          CFI R1 Undefined
          CFI R2 Undefined
          CFI R3 Undefined
          CFI R4 SameValue
          CFI R5 SameValue
          CFI R6 SameValue
          CFI R7 SameValue
          CFI R8 SameValue
          CFI R9 SameValue
          CFI R10 SameValue
          CFI R11 SameValue
          CFI R12 Undefined
          CFI R14 SameValue
          CFI D0 Undefined
          CFI D1 Undefined
          CFI D2 Undefined
          CFI D3 Undefined
          CFI D4 Undefined
          CFI D5 Undefined
          CFI D6 Undefined
          CFI D7 Undefined
          CFI D8 SameValue
          CFI D9 SameValue
          CFI D10 SameValue
          CFI D11 SameValue
          CFI D12 SameValue
          CFI D13 SameValue
          CFI D14 SameValue
          CFI D15 SameValue
          CFI EndCommon cfiCommon0
        
// E:\DLP_Proj\DLP_source\branches\DLP_opensource\Middlewares\gui\GUI\Widget\LISTVIEW_DeleteColumn.c
//    1 /*
//    2 *********************************************************************************************************
//    3 *                                                uC/GUI
//    4 *                        Universal graphic software for embedded applications
//    5 *
//    6 *                       (c) Copyright 2002, Micrium Inc., Weston, FL
//    7 *                       (c) Copyright 2002, SEGGER Microcontroller Systeme GmbH
//    8 *
//    9 *              µC/GUI is protected by international copyright laws. Knowledge of the
//   10 *              source code may not be used to write a similar product. This file may
//   11 *              only be used in accordance with a license and should not be redistributed
//   12 *              in any way. We appreciate your understanding and fairness.
//   13 *
//   14 ----------------------------------------------------------------------
//   15 File        : LISTVIEW_DeleteColumn.c
//   16 Purpose     : Implementation of LISTVIEW_DeleteColumn
//   17 ---------------------------END-OF-HEADER------------------------------
//   18 */
//   19 
//   20 #include "LISTVIEW_Private.h"
//   21 
//   22 #if GUI_WINSUPPORT
//   23 
//   24 /*********************************************************************
//   25 *
//   26 *       Public routines
//   27 *
//   28 **********************************************************************
//   29 */
//   30 /*********************************************************************
//   31 *
//   32 *       LISTVIEW_DeleteColumn
//   33 */

        SECTION `.text`:CODE:NOROOT(1)
          CFI Block cfiBlock0 Using cfiCommon0
          CFI Function LISTVIEW_DeleteColumn
        THUMB
//   34 void LISTVIEW_DeleteColumn(LISTVIEW_Handle hObj, unsigned Index) {
LISTVIEW_DeleteColumn:
        PUSH     {R3-R9,LR}
          CFI R14 Frame(CFA, -4)
          CFI R9 Frame(CFA, -8)
          CFI R8 Frame(CFA, -12)
          CFI R7 Frame(CFA, -16)
          CFI R6 Frame(CFA, -20)
          CFI R5 Frame(CFA, -24)
          CFI R4 Frame(CFA, -28)
          CFI CFA R13+32
        MOV      R4,R0
        MOV      R5,R1
//   35   if (hObj) {
        CMP      R4,#+0
        BEQ.N    ??LISTVIEW_DeleteColumn_0
//   36     LISTVIEW_Obj* pObj;
//   37     WM_LOCK();
//   38     pObj = LISTVIEW_H2P(hObj);
          CFI FunCall GUI_ALLOC_h2p
        BL       GUI_ALLOC_h2p
        MOV      R6,R0
//   39     if (Index < GUI_ARRAY_GetNumItems(&pObj->AlignArray)) {
        ADD      R0,R6,#+46
          CFI FunCall GUI_ARRAY_GetNumItems
        BL       GUI_ARRAY_GetNumItems
        CMP      R5,R0
        BCS.N    ??LISTVIEW_DeleteColumn_0
//   40       unsigned NumRows, i;
//   41       GUI_ARRAY* pRow;
//   42       HEADER_DeleteItem(pObj->hHeader, Index);
        MOV      R1,R5
        LDRSH    R0,[R6, #+40]
          CFI FunCall HEADER_DeleteItem
        BL       HEADER_DeleteItem
//   43       GUI_ARRAY_DeleteItem(&pObj->AlignArray, Index);
        MOV      R1,R5
        ADD      R0,R6,#+46
          CFI FunCall GUI_ARRAY_DeleteItem
        BL       GUI_ARRAY_DeleteItem
//   44       NumRows = GUI_ARRAY_GetNumItems(&pObj->RowArray);
        ADD      R0,R6,#+42
          CFI FunCall GUI_ARRAY_GetNumItems
        BL       GUI_ARRAY_GetNumItems
        MOV      R7,R0
//   45       for (i = 0; i < NumRows; i++) {
        MOV      R8,#+0
        B.N      ??LISTVIEW_DeleteColumn_1
//   46         LISTVIEW_ITEM * pItem;
//   47         pRow = (GUI_ARRAY*)GUI_ARRAY_GetpItem(&pObj->RowArray, i);
??LISTVIEW_DeleteColumn_2:
        MOV      R1,R8
        ADD      R0,R6,#+42
          CFI FunCall GUI_ARRAY_GetpItem
        BL       GUI_ARRAY_GetpItem
        MOV      R9,R0
//   48         /* Delete attached info items */
//   49         pItem = (LISTVIEW_ITEM *)GUI_ARRAY_GetpItem(pRow, Index);
        MOV      R1,R5
          CFI FunCall GUI_ARRAY_GetpItem
        BL       GUI_ARRAY_GetpItem
//   50         if (pItem->hItemInfo) {
        LDRSH    R0,[R0, #+0]
        CMP      R0,#+0
        BEQ.N    ??LISTVIEW_DeleteColumn_3
//   51           GUI_ALLOC_Free(pItem->hItemInfo);
          CFI FunCall GUI_ALLOC_Free
        BL       GUI_ALLOC_Free
//   52         }
//   53         /* Delete cell */
//   54         GUI_ARRAY_DeleteItem(pRow, Index);
??LISTVIEW_DeleteColumn_3:
        MOV      R1,R5
        MOV      R0,R9
          CFI FunCall GUI_ARRAY_DeleteItem
        BL       GUI_ARRAY_DeleteItem
//   55       }
        ADD      R8,R8,#+1
??LISTVIEW_DeleteColumn_1:
        CMP      R8,R7
        BCC.N    ??LISTVIEW_DeleteColumn_2
//   56       LISTVIEW__UpdateScrollParas(hObj, pObj);
        MOV      R1,R6
        MOV      R0,R4
          CFI FunCall LISTVIEW__UpdateScrollParas
        BL       LISTVIEW__UpdateScrollParas
//   57       LISTVIEW__InvalidateInsideArea(hObj, pObj);
        MOV      R1,R6
        MOV      R0,R4
        POP      {R2,R4-R9,LR}
          CFI R4 SameValue
          CFI R5 SameValue
          CFI R6 SameValue
          CFI R7 SameValue
          CFI R8 SameValue
          CFI R9 SameValue
          CFI R14 SameValue
          CFI CFA R13+0
          CFI FunCall LISTVIEW__InvalidateInsideArea
        B.W      LISTVIEW__InvalidateInsideArea
          CFI R4 Frame(CFA, -28)
          CFI R5 Frame(CFA, -24)
          CFI R6 Frame(CFA, -20)
          CFI R7 Frame(CFA, -16)
          CFI R8 Frame(CFA, -12)
          CFI R9 Frame(CFA, -8)
          CFI R14 Frame(CFA, -4)
          CFI CFA R13+32
//   58     }
//   59     WM_UNLOCK();
//   60   }
//   61 }
??LISTVIEW_DeleteColumn_0:
        POP      {R0,R4-R9,PC}    ;; return
          CFI EndBlock cfiBlock0

        SECTION `.iar_vfe_header`:DATA:NOALLOC:NOROOT(2)
        SECTION_TYPE SHT_PROGBITS, 0
        DATA
        DC32 0

        END
//   62 
//   63 #else                            /* Avoid problems with empty object modules */
//   64   void LISTVIEW_DeleteColumn_C(void);
//   65   void LISTVIEW_DeleteColumn_C(void) {}
//   66 #endif
// 
// 136 bytes in section .text
// 
// 136 bytes of CODE memory
//
//Errors: none
//Warnings: none
