///////////////////////////////////////////////////////////////////////////////
//
// IAR ANSI C/C++ Compiler V7.10.1.6676/W32 for ARM       18/Jul/2019  11:56:54
// Copyright 1999-2014 IAR Systems AB.
//
//    Cpu mode     =  thumb
//    Endian       =  little
//    Source file  =  
//        E:\DLP_Proj\DLP_source\branches\DLP_opensource\Middlewares\Third_Party\Marlin\Marlin_main.cpp
//    Command line =  
//        E:\DLP_Proj\DLP_source\branches\DLP_opensource\Middlewares\Third_Party\Marlin\Marlin_main.cpp
//        -D USE_HAL_DRIVER -D STM32F407xx -D STM32F40_41xxx -D USE_HAL_LIB -D
//        MKS_DLP_BOARD -D TFT35 -lC
//        E:\DLP_Proj\DLP_source\branches\DLP_opensource\EWARM\mksDLP/List\ -lA
//        E:\DLP_Proj\DLP_source\branches\DLP_opensource\EWARM\mksDLP/List\
//        --diag_suppress Pa050 -o
//        E:\DLP_Proj\DLP_source\branches\DLP_opensource\EWARM\mksDLP/Obj\
//        --no_unroll --no_inline --no_tbaa --no_scheduling --debug
//        --endian=little --cpu=Cortex-M4F -e --char_is_signed --fpu=VFPv4_sp
//        --dlib_config "C:\Program Files (x86)\IAR Systems\Embedded Workbench
//        7.0\arm\INC\c\DLib_Config_Full.h" -I
//        E:\DLP_Proj\DLP_source\branches\DLP_opensource\EWARM/../Inc\ -I
//        E:\DLP_Proj\DLP_source\branches\DLP_opensource\EWARM/../Src\ -I
//        E:\DLP_Proj\DLP_source\branches\DLP_opensource\EWARM/../Drivers/STM32F4xx_HAL_Driver/Inc\
//        -I
//        E:\DLP_Proj\DLP_source\branches\DLP_opensource\EWARM/../Drivers/STM32F4xx_HAL_Driver/Inc/Legacy\
//        -I
//        E:\DLP_Proj\DLP_source\branches\DLP_opensource\EWARM/../Middlewares/Third_Party/FatFs/src/drivers\
//        -I
//        E:\DLP_Proj\DLP_source\branches\DLP_opensource\EWARM/../Middlewares/ST/STM32_USB_Host_Library/Core/Inc\
//        -I
//        E:\DLP_Proj\DLP_source\branches\DLP_opensource\EWARM/../Middlewares/ST/STM32_USB_Host_Library/Class/MSC/Inc\
//        -I
//        E:\DLP_Proj\DLP_source\branches\DLP_opensource\EWARM/../Drivers/CMSIS/Device/ST/STM32F4xx/Include\
//        -I
//        E:\DLP_Proj\DLP_source\branches\DLP_opensource\EWARM/../Middlewares/Third_Party/FatFs/src\
//        -I
//        E:\DLP_Proj\DLP_source\branches\DLP_opensource\EWARM/../Middlewares/Third_Party/Marlin\
//        -I
//        E:\DLP_Proj\DLP_source\branches\DLP_opensource\EWARM/../Drivers/CMSIS/Include\
//        -I
//        E:\DLP_Proj\DLP_source\branches\DLP_opensource\EWARM/../Drivers/BSP/variant\
//        -I
//        E:\DLP_Proj\DLP_source\branches\DLP_opensource\EWARM/../Drivers/BSP/Components/at24cxx\
//        -I
//        E:\DLP_Proj\DLP_source\branches\DLP_opensource\EWARM/../Drivers/BSP/Components/w25qxx\
//        -I
//        E:\DLP_Proj\DLP_source\branches\DLP_opensource\EWARM/../Drivers/BSP/Components/ssd2828\
//        -I
//        E:\DLP_Proj\DLP_source\branches\DLP_opensource\EWARM/../Drivers/BSP/Components/lcd\
//        -I
//        E:\DLP_Proj\DLP_source\branches\DLP_opensource\EWARM/../Drivers/libstmf4\
//        -I
//        E:\DLP_Proj\DLP_source\branches\DLP_opensource\EWARM/../Drivers/libstmf4/include\
//        -I
//        E:\DLP_Proj\DLP_source\branches\DLP_opensource\EWARM/../Middlewares/arduino/stm32/cores/arduino\
//        -I
//        E:\DLP_Proj\DLP_source\branches\DLP_opensource\EWARM/../Middlewares/gui\
//        -I
//        E:\DLP_Proj\DLP_source\branches\DLP_opensource\EWARM/../Middlewares/gui/GUI/ConvertColor\
//        -I
//        E:\DLP_Proj\DLP_source\branches\DLP_opensource\EWARM/../Middlewares/gui/GUI/ConvertMono\
//        -I
//        E:\DLP_Proj\DLP_source\branches\DLP_opensource\EWARM/../Middlewares/gui/GUI/Core\
//        -I
//        E:\DLP_Proj\DLP_source\branches\DLP_opensource\EWARM/../Middlewares/gui/GUI/Font\
//        -I
//        E:\DLP_Proj\DLP_source\branches\DLP_opensource\EWARM/../Middlewares/gui/AntiAlias\
//        -I
//        E:\DLP_Proj\DLP_source\branches\DLP_opensource\EWARM/../Middlewares/gui/GUI/GUIDemo\
//        -I
//        E:\DLP_Proj\DLP_source\branches\DLP_opensource\EWARM/../Middlewares/gui/GUI/LCDDriver\
//        -I
//        E:\DLP_Proj\DLP_source\branches\DLP_opensource\EWARM/../Middlewares/gui/GUI/MemDev\
//        -I
//        E:\DLP_Proj\DLP_source\branches\DLP_opensource\EWARM/../Middlewares/gui/GUI/MultiLayer\
//        -I
//        E:\DLP_Proj\DLP_source\branches\DLP_opensource\EWARM/../Middlewares/gui/GUI/Widget\
//        -I
//        E:\DLP_Proj\DLP_source\branches\DLP_opensource\EWARM/../Middlewares/gui/GUI/WM\
//        -I
//        E:\DLP_Proj\DLP_source\branches\DLP_opensource\EWARM/../Middlewares/gui/GUI_X\
//        -I
//        E:\DLP_Proj\DLP_source\branches\DLP_opensource\EWARM/../Middlewares/gui/Config\
//        -I E:\DLP_Proj\DLP_source\branches\DLP_opensource\EWARM/../User/ui\
//        -I
//        E:\DLP_Proj\DLP_source\branches\DLP_opensource\EWARM/../User/ui/Multi_language\
//        -I
//        E:\DLP_Proj\DLP_source\branches\DLP_opensource\EWARM/../User/ui/QRENCODE\
//        -Om --eec++ -I "C:\Program Files (x86)\IAR Systems\Embedded Workbench
//        7.0\arm\CMSIS\Include\"
//    List file    =  
//        E:\DLP_Proj\DLP_source\branches\DLP_opensource\EWARM\mksDLP/List\Marlin_main.s
//
///////////////////////////////////////////////////////////////////////////////

        RTMODEL "__CPP_Language", "EC++"
        RTMODEL "__SystemLibrary", "DLib"
        RTMODEL "__dlib_file_descriptor", "1"
        RTMODEL "__dlib_full_locale_support", "1"
        RTMODEL "__iar_require _Printf", "floats,int_specials"
        AAPCS BASE,INTERWORK,VFP
        PRESERVE8
        REQUIRE8

        #define SHT_PROGBITS 0x1
        #define SHT_INIT_ARRAY 0xe

        EXTERN AT24CXX_Read
        EXTERN AT24CXX_Write
        EXTERN BMP_PIC_X
        EXTERN BMP_PIC_Y
        EXTERN GUI_Exec
        EXTERN GUI_RefreshPage
        EXTERN GUI_TOUCH_Exec
        EXTERN HAL_Delay
        EXTERN HAL_GPIO_ReadPin
        EXTERN HAL_GPIO_WritePin
        EXTERN HAL_GetTick
        EXTERN HAL_SPI_Transmit_DMA
        EXTERN SPI1_ReadWriteByte
        EXTERN Serial6
        EXTERN _Z10safe_delaym
        EXTERN _Z14mksBeeperAlarmv
        EXTERN _Z17serial_echopair_PPKcS0_
        EXTERN _Z17serial_echopair_PPKcd
        EXTERN _Z17serial_echopair_PPKcf
        EXTERN _Z17serial_echopair_PPKci
        EXTERN _ZN10CardReader10removeFileEPc
        EXTERN _ZN10CardReader11openLogFileEPc
        EXTERN _ZN10CardReader11stopSDPrintEv
        EXTERN _ZN10CardReader12checkFilesysEh
        EXTERN _ZN10CardReader12pauseSDPrintEv
        EXTERN _ZN10CardReader13write_commandEPc
        EXTERN _ZN10CardReader14startFileprintEv
        EXTERN _ZN10CardReader19printingHasFinishedEv
        EXTERN _ZN10CardReader2lsEv
        EXTERN _ZN10CardReader7releaseEv
        EXTERN _ZN10CardReader8getsdposEv
        EXTERN _ZN10CardReader8openFileEPcbb
        EXTERN _ZN10CardReader9closefileEb
        EXTERN _ZN10CardReader9getStatusEv
        EXTERN _ZN10CardReaderC1Ev
        EXTERN _ZN10USARTClass4readEv
        EXTERN _ZN10USARTClass5flushEv
        EXTERN _ZN10USARTClass5writeEh
        EXTERN _ZN10USARTClass9availableEv
        EXTERN _ZN11GCodeParser10string_argE
        EXTERN _ZN11GCodeParser11command_ptrE
        EXTERN _ZN11GCodeParser14command_letterE
        EXTERN _ZN11GCodeParser18volumetric_enabledE
        EXTERN _ZN11GCodeParser21unknown_command_errorEv
        EXTERN _ZN11GCodeParser5paramE
        EXTERN _ZN11GCodeParser5parseEPc
        EXTERN _ZN11GCodeParser7codenumE
        EXTERN _ZN11GCodeParser8codebitsE
        EXTERN _ZN11GCodeParser9value_ptrE
        EXTERN _ZN11Temperature12PID_autotuneEfaab
        EXTERN _ZN11Temperature13manage_heaterEv
        EXTERN _ZN11Temperature18target_temperatureE
        EXTERN _ZN11Temperature19current_temperatureE
        EXTERN _ZN11Temperature19disable_all_heatersEv
        EXTERN _ZN11Temperature21start_watching_heaterEh
        EXTERN _ZN11Temperature2KdE
        EXTERN _ZN11Temperature2KiE
        EXTERN _ZN11Temperature2KpE
        EXTERN _ZN11Temperature4initEv
        EXTERN _ZN14MarlinSettings4loadEv
        EXTERN _ZN14MarlinSettings4saveEv
        EXTERN _ZN14MarlinSettings5resetEv
        EXTERN _ZN14MarlinSettings6reportEb
        EXTERN _ZN5Print5printEPKc
        EXTERN _ZN5Print5printEdi
        EXTERN _ZN5Print5printEhi
        EXTERN _ZN5Print5printEii
        EXTERN _ZN5Print5printEji
        EXTERN _ZN5Print5printEli
        EXTERN _ZN7Planner12accelerationE
        EXTERN _ZN7Planner13filament_sizeE
        EXTERN _ZN7Planner14buffer_segmentERKfS1_S1_S1_S1_h
        EXTERN _ZN7Planner15flow_percentageE
        EXTERN _ZN7Planner15set_position_mmE8AxisEnumRKf
        EXTERN _ZN7Planner16_set_position_mmERKfS1_S1_S1_
        EXTERN _ZN7Planner17axis_steps_per_mmE
        EXTERN _ZN7Planner17block_buffer_headE
        EXTERN _ZN7Planner17block_buffer_tailE
        EXTERN _ZN7Planner17max_feedrate_mm_sE
        EXTERN _ZN7Planner17min_feedrate_mm_sE
        EXTERN _ZN7Planner18autotemp_M104_M109Ev
        EXTERN _ZN7Planner19check_axes_activityEv
        EXTERN _ZN7Planner19min_segment_time_usE
        EXTERN _ZN7Planner19refresh_positioningEv
        EXTERN _ZN7Planner19travel_accelerationE
        EXTERN _ZN7Planner20retract_accelerationE
        EXTERN _ZN7Planner21volumetric_multiplierE
        EXTERN _ZN7Planner24min_travel_feedrate_mm_sE
        EXTERN _ZN7Planner24reset_acceleration_ratesEv
        EXTERN _ZN7Planner26max_acceleration_mm_per_s2E
        EXTERN _ZN7Planner29max_acceleration_steps_per_s2E
        EXTERN _ZN7Planner32calculate_volumetric_multipliersEv
        EXTERN _ZN7Planner8e_factorE
        EXTERN _ZN7Planner8max_jerkE
        EXTERN _ZN7SSD28284initEv
        EXTERN _ZN7SSD28288sleep_inEv
        EXTERN _ZN7SSD28289sleep_outEv
        EXTERN _ZN7SSD2828C1Ev
        EXTERN _ZN7Stepper10quick_stopEv
        EXTERN _ZN7Stepper11synchronizeEv
        EXTERN _ZN7Stepper16report_positionsEv
        EXTERN _ZN7Stepper18finish_and_disableEv
        EXTERN _ZN7Stepper20get_axis_position_mmE8AxisEnum
        EXTERN _ZN7Stepper23cleaning_buffer_counterE
        EXTERN _ZN7Stepper4initEv
        EXTERN _ZN8Endstops12report_stateEv
        EXTERN _ZN8Endstops16enabled_globallyE
        EXTERN _ZN8Endstops16endstop_hit_bitsE
        EXTERN _ZN8Endstops4M119Ev
        EXTERN _ZN8Endstops7enabledE
        EXTERN _ZN9Stopwatch4stopEv
        EXTERN _ZN9Stopwatch5pauseEv
        EXTERN _ZN9Stopwatch5startEv
        EXTERN _ZN9Stopwatch8durationEv
        EXTERN _ZN9StopwatchC1Ev
        EXTERN __aeabi_d2f
        EXTERN __aeabi_d2uiz
        EXTERN __aeabi_dadd
        EXTERN __aeabi_ddiv
        EXTERN __aeabi_dmul
        EXTERN __aeabi_dsub
        EXTERN __aeabi_f2d
        EXTERN __aeabi_i2d
        EXTERN __aeabi_memcpy
        EXTERN __aeabi_memcpy4
        EXTERN __aeabi_ui2d
        EXTERN __iar_Strchr
        EXTERN __iar_Strrchr
        EXTERN __iar_Strstr
        EXTERN atan2f
        EXTERN atof
        EXTERN bmp_layer_buf
        EXTERN clear_cur_ui
        EXTERN cosf
        EXTERN curFileName
        EXTERN default_preview_flg
        EXTERN disp_pre_gcode
        EXTERN disp_state
        EXTERN display_print_statue
        EXTERN draw_dialog
        EXTERN draw_printing
        EXTERN draw_ready_print
        EXTERN draw_status_clear
        EXTERN echomagic
        EXTERN epr_read_data
        EXTERN epr_write_data
        EXTERN errormagic
        EXTERN exposure_msg_display
        EXTERN f_lseek
        EXTERN f_read
        EXTERN flash_preview_begin
        EXTERN floorf
        EXTERN from_flash_pic
        EXTERN gArrayGpioPin
        EXTERN gArrayGpioPort
        EXTERN gCfgItems
        EXTERN getTick
        EXTERN getTickDiff
        EXTERN hdma_spi1_tx
        EXTERN hspi1
        EXTERN layer_pic_clean
        EXTERN layer_pic_display
        EXTERN leveling_first_time
        EXTERN logo_tick1
        EXTERN logo_tick2
        EXTERN memcpy
        EXTERN memset
        EXTERN mipi_te_cnt
        EXTERN mksCfg
        EXTERN parser
        EXTERN pause_resum
        EXTERN preview_gcode_prehandle
        EXTERN print_time
        EXTERN reset_file_info
        EXTERN reset_print_time
        EXTERN setProBarRate
        EXTERN sinf
        EXTERN sprintf
        EXTERN sqrt
        EXTERN sqrtf
        EXTERN start_print_time
        EXTERN stop_print_time
        EXTERN strcat
        EXTERN strcmp
        EXTERN strcpy
        EXTERN strncpy
        EXTERN strtod
        EXTERN strtol
        EXTERN strtoul
        EXTERN temperature_change_frequency
        EXTERN thermalManager

        PUBLIC EXTI9_5_IRQHandler
        PUBLIC Line_Pixel
        PUBLIC Line_Pixel_TFT
        PUBLIC Running
        PUBLIC TimeIncrease
        PUBLIC _Z10clr_ticketv
        PUBLIC _Z10freeMemoryv
        PUBLIC _Z10gcode_M104v
        PUBLIC _Z10gcode_M105v
        PUBLIC _Z10gcode_M106v
        PUBLIC _Z10gcode_M107v
        PUBLIC _Z10gcode_M108v
        PUBLIC _Z10gcode_M109v
        PUBLIC _Z10gcode_M110v
        PUBLIC _Z10gcode_M111v
        PUBLIC _Z10gcode_M112v
        PUBLIC _Z10gcode_M114v
        PUBLIC _Z10gcode_M115v
        PUBLIC _Z10gcode_M117v
        PUBLIC _Z10gcode_M118v
        PUBLIC _Z10gcode_M119v
        PUBLIC _Z10gcode_M120v
        PUBLIC _Z10gcode_M121v
        PUBLIC _Z10gcode_M140v
        PUBLIC _Z10gcode_M200v
        PUBLIC _Z10gcode_M201v
        PUBLIC _Z10gcode_M203v
        PUBLIC _Z10gcode_M204v
        PUBLIC _Z10gcode_M205v
        PUBLIC _Z10gcode_M206v
        PUBLIC _Z10gcode_M211v
        PUBLIC _Z10gcode_M220v
        PUBLIC _Z10gcode_M221v
        PUBLIC _Z10gcode_M226v
        PUBLIC _Z10gcode_M301v
        PUBLIC _Z10gcode_M303v
        PUBLIC _Z10gcode_M355v
        PUBLIC _Z10gcode_M400v
        PUBLIC _Z10gcode_M410v
        PUBLIC _Z10gcode_M428v
        PUBLIC _Z10gcode_M500v
        PUBLIC _Z10gcode_M501v
        PUBLIC _Z10gcode_M502v
        PUBLIC _Z10gcode_M503v
        PUBLIC _Z10gcode_M907v
        PUBLIC _Z10gcode_M928v
        PUBLIC _Z10gcode_M998v
        PUBLIC _Z10gcode_M999v
        PUBLIC _Z10ok_to_sendv
        PUBLIC _Z10servo_initv
        PUBLIC _Z11InvertUint8PhS_
        PUBLIC _Z11gcode_G0_G1v
        PUBLIC _Z11gcode_G2_G3b
        PUBLIC _Z11lcd_refreshv
        PUBLIC _Z11tool_changehfb
        PUBLIC _Z12CRC16_XMODEMPhj
        PUBLIC _Z12InvertUint16PtS_
        PUBLIC _Z13find_next_bmpv
        PUBLIC _Z13gcode_M18_M84v
        PUBLIC _Z13home_all_axesv
        PUBLIC _Z13lcd_hasstatusv
        PUBLIC _Z13lcd_setstatusPKcb
        PUBLIC _Z13setup_killpinv
        PUBLIC _Z13strting2floatPhh
        PUBLIC _Z14mks_WriteToEprv
        PUBLIC _Z14serialprintPGMPKc
        PUBLIC _Z15_commit_commandb
        PUBLIC _Z15_enqueuecommandPKcb
        PUBLIC _Z15mks_setFeedratev
        PUBLIC _Z15setup_powerholdv
        PUBLIC _Z16gcode_line_errorPKcb
        PUBLIC _Z16lcd_setstatusPGMPKca
        PUBLIC _Z16mks_get_commandsv
        PUBLIC _Z17manage_inactivityb
        PUBLIC _Z17mkstft_ui_set_eprv
        PUBLIC _Z17quickstop_stepperv
        PUBLIC _Z18axis_unhomed_errorb
        PUBLIC _Z18disable_e_steppersv
        PUBLIC _Z18mks_setTemperaturev
        PUBLIC _Z18sync_plan_positionv
        PUBLIC _Z19clear_command_queuev
        PUBLIC _Z19do_blocking_move_toRKfS0_S0_S0_
        PUBLIC _Z19enable_all_steppersv
        PUBLIC _Z19get_serial_commandsv
        PUBLIC _Z19refresh_cmd_timeoutv
        PUBLIC _Z20SysTick_Handler_Userv
        PUBLIC _Z20disable_all_steppersv
        PUBLIC _Z20process_next_commandv
        PUBLIC _Z20sync_plan_position_ev
        PUBLIC _Z21do_blocking_move_to_xRKfS0_
        PUBLIC _Z21do_blocking_move_to_zRKfS0_
        PUBLIC _Z21gcode_get_destinationv
        PUBLIC _Z21lcd_reset_alert_levelv
        PUBLIC _Z21lcd_setalertstatusPGMPKc
        PUBLIC _Z21mks_WriteToEpr_pwroffv
        PUBLIC _Z21soft_endstop_min_initv
        PUBLIC _Z22do_blocking_move_to_xyRKfS0_S0_
        PUBLIC _Z22get_available_commandsv
        PUBLIC _Z22invalid_extruder_errorh
        PUBLIC _Z22mks_ReadFromEpr_pwroffv
        PUBLIC _Z22process_parsed_commandv
        PUBLIC _Z22report_mksdlp_positionv
        PUBLIC _Z23report_current_positionv
        PUBLIC _Z24FlushSerialRequestResendv
        PUBLIC _Z24enqueue_and_echo_commandPKcb
        PUBLIC _Z24get_homing_bump_feedrate8AxisEnum
        PUBLIC _Z24update_software_endstops8AxisEnum
        PUBLIC _Z26buffer_line_to_destinationf
        PUBLIC _Z26clamp_to_software_endstopsPf
        PUBLIC _Z26do_blocking_move_to_nowaitRKfS0_S0_S0_
        PUBLIC _Z27enqueue_and_echo_commands_PPKc
        PUBLIC _Z27get_cartesian_from_steppersv
        PUBLIC _Z27prepare_move_to_destinationv
        PUBLIC _Z28do_blocking_move_to_z_nowaitRKfS0_
        PUBLIC _Z28set_current_from_destinationv
        PUBLIC _Z28set_destination_from_currentv
        PUBLIC _Z31buffer_line_to_current_positionv
        PUBLIC _Z32get_target_extruder_from_commandt
        PUBLIC _Z34set_current_from_steppers_for_axis8AxisEnum
        PUBLIC _Z37prepare_move_to_destination_cartesianv
        PUBLIC _Z4idlev
        PUBLIC _Z4killPKc
        PUBLIC _Z4stopv
        PUBLIC _Z5dwellm
        PUBLIC _Z6strchrPci
        PUBLIC _Z6strstrPcPKc
        PUBLIC _Z7gcode_Th
        PUBLIC _Z7mks_G28Pc
        PUBLIC _Z7pft_getv
        PUBLIC _Z7strrchrPci
        PUBLIC _Z7suicidev
        PUBLIC _Z8gcode_G4v
        PUBLIC _Z8lcd_initv
        PUBLIC _Z8plan_arcRA4_KfRA2_S_b
        PUBLIC _Z9IsRunningv
        PUBLIC _Z9IsStoppedv
        PUBLIC _Z9gcode_G28b
        PUBLIC _Z9gcode_G92v
        PUBLIC _Z9gcode_M17v
        PUBLIC _Z9gcode_M20v
        PUBLIC _Z9gcode_M22v
        PUBLIC _Z9gcode_M23v
        PUBLIC _Z9gcode_M24v
        PUBLIC _Z9gcode_M25v
        PUBLIC _Z9gcode_M26v
        PUBLIC _Z9gcode_M27v
        PUBLIC _Z9gcode_M28v
        PUBLIC _Z9gcode_M29v
        PUBLIC _Z9gcode_M30v
        PUBLIC _Z9gcode_M31v
        PUBLIC _Z9gcode_M32v
        PUBLIC _Z9gcode_M42v
        PUBLIC _Z9gcode_M75v
        PUBLIC _Z9gcode_M76v
        PUBLIC _Z9gcode_M77v
        PUBLIC _Z9gcode_M81v
        PUBLIC _Z9gcode_M82v
        PUBLIC _Z9gcode_M83v
        PUBLIC _Z9gcode_M85v
        PUBLIC _Z9gcode_M92v
        PUBLIC _ZN10CardReader10isFileOpenEv
        PUBLIC _ZN10CardReader3eofEv
        PUBLIC _ZN10CardReader4getsEPhj
        PUBLIC _ZN10CardReader8setIndexEl
        PUBLIC _ZN10duration_tC1ERKj
        PUBLIC _ZN11GCodeParser10celsiusvalEcf
        PUBLIC _ZN11GCodeParser10value_boolEv
        PUBLIC _ZN11GCodeParser10value_byteEv
        PUBLIC _ZN11GCodeParser10value_longEv
        PUBLIC _ZN11GCodeParser11value_floatEv
        PUBLIC _ZN11GCodeParser11value_ulongEv
        PUBLIC _ZN11GCodeParser12value_millisEv
        PUBLIC _ZN11GCodeParser12value_ushortEv
        PUBLIC _ZN11GCodeParser13value_celsiusEv
        PUBLIC _ZN11GCodeParser14value_feedrateEv
        PUBLIC _ZN11GCodeParser16value_axis_unitsE8AxisEnum
        PUBLIC _ZN11GCodeParser18value_linear_unitsEv
        PUBLIC _ZN11GCodeParser19value_per_axis_unitE8AxisEnum
        PUBLIC _ZN11GCodeParser25value_millis_from_secondsEv
        PUBLIC _ZN11GCodeParser4seenEc
        PUBLIC _ZN11GCodeParser6intvalEcs
        PUBLIC _ZN11GCodeParser7boolvalEc
        PUBLIC _ZN11GCodeParser7bytevalEch
        PUBLIC _ZN11GCodeParser7seenvalEc
        PUBLIC _ZN11GCodeParser9has_valueEv
        PUBLIC _ZN11GCodeParser9linearvalEcf
        PUBLIC _ZN11GCodeParser9ushortvalEct
        PUBLIC _ZN11GCodeParser9value_intEv
        PUBLIC _ZN11Temperature12setTargetBedEf
        PUBLIC _ZN11Temperature15degTargetHotendEh
        PUBLIC _ZN11Temperature15isCoolingHotendEh
        PUBLIC _ZN11Temperature15setTargetHotendEfh
        PUBLIC _ZN11Temperature9degHotendEh
        PUBLIC _ZN11Temperature9updatePIDEv
        PUBLIC _ZN7MKS_DLP10get_HeightEv
        PUBLIC _ZN7MKS_DLP10pausePrintEv
        PUBLIC _ZN7MKS_DLP10quick_stopEv
        PUBLIC _ZN7MKS_DLP11buzzer_toneEtth
        PUBLIC _ZN7MKS_DLP11resumePrintEv
        PUBLIC _ZN7MKS_DLP11set_ZoffsetEv
        PUBLIC _ZN7MKS_DLP11status_initEv
        PUBLIC _ZN7MKS_DLP12ExposureTestEv
        PUBLIC _ZN7MKS_DLP12get_cpld_verEv
        PUBLIC _ZN7MKS_DLP13buzzer_enableEh
        PUBLIC _ZN7MKS_DLP13draw_printingEv
        PUBLIC _ZN7MKS_DLP13get_LedOnTimeEv
        PUBLIC _ZN7MKS_DLP13line_gen_dataEth
        PUBLIC _ZN7MKS_DLP13set_LedOnTimeEt
        PUBLIC _ZN7MKS_DLP14CleanDataTransEv
        PUBLIC _ZN7MKS_DLP14bank2disp_readEv
        PUBLIC _ZN7MKS_DLP14buzzer_pollingEv
        PUBLIC _ZN7MKS_DLP14get_LedOffTimeEv
        PUBLIC _ZN7MKS_DLP14line_fill_zeroEth
        PUBLIC _ZN7MKS_DLP14moveRelative_ZEff
        PUBLIC _ZN7MKS_DLP14reTransmissionEv
        PUBLIC _ZN7MKS_DLP14set_LedOffTimeEt
        PUBLIC _ZN7MKS_DLP14startFileprintEv
        PUBLIC _ZN7MKS_DLP15get_sdcard_bmpsEv
        PUBLIC _ZN7MKS_DLP15get_totalLayersEv
        PUBLIC _ZN7MKS_DLP15moveFistLayer_ZEv
        PUBLIC _ZN7MKS_DLP16Can_Resume_PrintEv
        PUBLIC _ZN7MKS_DLP16TFT_display_testEv
        PUBLIC _ZN7MKS_DLP16bank2disp_enableEhhh
        PUBLIC _ZN7MKS_DLP16bottomLayerPrintEv
        PUBLIC _ZN7MKS_DLP16get_BottomlayersEv
        PUBLIC _ZN7MKS_DLP16get_currentLayerEv
        PUBLIC _ZN7MKS_DLP16get_ttfStatus_ONEv
        PUBLIC _ZN7MKS_DLP16set_BottomlayersEt
        PUBLIC _ZN7MKS_DLP17PrintStatePollingEv
        PUBLIC _ZN7MKS_DLP17get_buzzer_statusEv
        PUBLIC _ZN7MKS_DLP17get_ttfStatus_OFFEv
        PUBLIC _ZN7MKS_DLP17line_gen_data_TFTEt
        PUBLIC _ZN7MKS_DLP18GeneralLayersPrintEv
        PUBLIC _ZN7MKS_DLP18Is_Paused_FinishedEv
        PUBLIC _ZN7MKS_DLP18contiuePrint_PwdwnEv
        PUBLIC _ZN7MKS_DLP18get_available_bmpsEv
        PUBLIC _ZN7MKS_DLP18get_totalPrintTimeEv
        PUBLIC _ZN7MKS_DLP18line_fill_all_zeroEcth
        PUBLIC _ZN7MKS_DLP19contiuePrint_pausedEv
        PUBLIC _ZN7MKS_DLP19get_BottomLedOnTimeEv
        PUBLIC _ZN7MKS_DLP19printingHasFinishedEv
        PUBLIC _ZN7MKS_DLP19set_BottomLedOnTimeEt
        PUBLIC _ZN7MKS_DLP20get_currentPrintTimeEv
        PUBLIC _ZN7MKS_DLP21bank2disp_enable_grayEhhhh
        PUBLIC _ZN7MKS_DLP22moveRelativeZandGetBmpEff
        PUBLIC _ZN7MKS_DLP22read_Information_layerEv
        PUBLIC _ZN7MKS_DLP22set_test_exposure_timeEt
        PUBLIC _ZN7MKS_DLP23ExposureData2TFT_circleEv
        PUBLIC _ZN7MKS_DLP23clean_Information_layerEv
        PUBLIC _ZN7MKS_DLP23draw_return_printing_uiEv
        PUBLIC _ZN7MKS_DLP23read_Information_pausedEv
        PUBLIC _ZN7MKS_DLP23write_Information_layerE15DLP_MOVE_STATUS
        PUBLIC _ZN7MKS_DLP24ExposureDataTrans_circleEv
        PUBLIC _ZN7MKS_DLP24ExposureDataTrans_squareEv
        PUBLIC _ZN7MKS_DLP24write_Information_pausedEv
        PUBLIC _ZN7MKS_DLP6led_onEv
        PUBLIC _ZN7MKS_DLP7getHeadEv
        PUBLIC _ZN7MKS_DLP7led_offEv
        PUBLIC _ZN7MKS_DLP8getHead1Ev
        PUBLIC _ZN7MKS_DLP8getHead2Ev
        PUBLIC _ZN7MKS_DLP8power_onEv
        PUBLIC _ZN7MKS_DLP9dlp_startEv
        PUBLIC _ZN7MKS_DLP9grag_testEv
        PUBLIC _ZN7MKS_DLP9moveMax_ZEv
        PUBLIC _ZN7MKS_DLP9power_offEv
        PUBLIC _ZN7MKS_DLP9stopPrintEv
        PUBLIC _ZN7MKS_DLPC1Ev
        PUBLIC _ZN7MKS_DLPC2Ev
        PUBLIC _ZN7Planner11buffer_lineEfffRKfS1_h
        PUBLIC _ZN7Planner13blocks_queuedEv
        PUBLIC _ZN7Planner15set_position_mmEfffRKf
        PUBLIC _ZN7Planner16refresh_e_factorEh
        PUBLIC _ZN7Planner17set_e_position_mmERKf
        PUBLIC _ZN7Planner17set_filament_sizeEhRKf
        PUBLIC _ZN7Planner21buffer_line_kinematicERA4_KfRS0_h
        PUBLIC _ZN8Endstops10not_homingEv
        PUBLIC _ZN8Endstops14hit_on_purposeEv
        PUBLIC _ZN8Endstops15enable_globallyEb
        PUBLIC _ZN8Endstops6enableEb
        PUBLIC _ZNK10duration_t3dayEv
        PUBLIC _ZNK10duration_t4hourEv
        PUBLIC _ZNK10duration_t4yearEv
        PUBLIC _ZNK10duration_t6minuteEv
        PUBLIC _ZNK10duration_t6secondEv
        PUBLIC _ZNK10duration_t8toStringEPc
        PUBLIC _ZTI5Print
        PUBLIC _ZZ10gcode_M104vEs
        PUBLIC _ZZ10gcode_M104vEs_0
        PUBLIC _ZZ10gcode_M104vEs_1
        PUBLIC _ZZ10gcode_M104vEs_2
        PUBLIC _ZZ10gcode_M104vEs_3
        PUBLIC _ZZ10gcode_M104vEs_4
        PUBLIC _ZZ10gcode_M105vEs
        PUBLIC _ZZ10gcode_M109vEs
        PUBLIC _ZZ10gcode_M109vEs_0
        PUBLIC _ZZ10gcode_M109vEs_1
        PUBLIC _ZZ10gcode_M109vEs_2
        PUBLIC _ZZ10gcode_M109vEs_3
        PUBLIC _ZZ10gcode_M109vEs_4
        PUBLIC _ZZ10gcode_M109vEs_5
        PUBLIC _ZZ10gcode_M109vEs_6
        PUBLIC _ZZ10gcode_M111vE11str_debug_1
        PUBLIC _ZZ10gcode_M111vE11str_debug_2
        PUBLIC _ZZ10gcode_M111vE11str_debug_4
        PUBLIC _ZZ10gcode_M111vE11str_debug_8
        PUBLIC _ZZ10gcode_M111vE12str_debug_16
        PUBLIC _ZZ10gcode_M111vE13debug_strings
        PUBLIC _ZZ10gcode_M111vEs_4
        PUBLIC _ZZ10gcode_M111vEs_5
        PUBLIC _ZZ10gcode_M112vEs
        PUBLIC _ZZ10gcode_M115vEs
        PUBLIC _ZZ10gcode_M115vEs_0
        PUBLIC _ZZ10gcode_M115vEs_1
        PUBLIC _ZZ10gcode_M115vEs_2
        PUBLIC _ZZ10gcode_M115vEs_3
        PUBLIC _ZZ10gcode_M115vEs_4
        PUBLIC _ZZ10gcode_M115vEs_5
        PUBLIC _ZZ10gcode_M115vEs_6
        PUBLIC _ZZ10gcode_M115vEs_7
        PUBLIC _ZZ10gcode_M115vEs_8
        PUBLIC _ZZ10gcode_M115vEs_9
        PUBLIC _ZZ10gcode_M115vEs__10_
        PUBLIC _ZZ10gcode_M115vEs__11_
        PUBLIC _ZZ10gcode_M115vEs__12_
        PUBLIC _ZZ10gcode_M115vEs__13_
        PUBLIC _ZZ10gcode_M118vEs
        PUBLIC _ZZ10gcode_M204vEs
        PUBLIC _ZZ10gcode_M204vEs_0
        PUBLIC _ZZ10gcode_M204vEs_1
        PUBLIC _ZZ10gcode_M204vEs_2
        PUBLIC _ZZ10gcode_M211vEs
        PUBLIC _ZZ10gcode_M211vEs_0
        PUBLIC _ZZ10gcode_M211vEs_1
        PUBLIC _ZZ10gcode_M211vEs_2
        PUBLIC _ZZ10gcode_M211vEs_3
        PUBLIC _ZZ10gcode_M211vEs_4
        PUBLIC _ZZ10gcode_M211vEs_5
        PUBLIC _ZZ10gcode_M211vEs_6
        PUBLIC _ZZ10gcode_M301vEs
        PUBLIC _ZZ10gcode_M301vEs_0
        PUBLIC _ZZ10gcode_M301vEs_1
        PUBLIC _ZZ10gcode_M301vEs_2
        PUBLIC _ZZ10gcode_M355vEs
        PUBLIC _ZZ10gcode_M428vEs
        PUBLIC _ZZ10gcode_M428vEs_0
        PUBLIC _ZZ10gcode_M428vEs_1
        PUBLIC _ZZ11gcode_G2_G3bEs
        PUBLIC _ZZ19get_serial_commandsvE14last_wait_time
        PUBLIC _ZZ19get_serial_commandsvE18serial_line_buffer
        PUBLIC _ZZ19get_serial_commandsvE19serial_comment_mode
        PUBLIC _ZZ19get_serial_commandsvEs
        PUBLIC _ZZ19get_serial_commandsvEs_0
        PUBLIC _ZZ19get_serial_commandsvEs_1
        PUBLIC _ZZ19get_serial_commandsvEs_2
        PUBLIC _ZZ19get_serial_commandsvEs_3
        PUBLIC _ZZ19get_serial_commandsvEs_4
        PUBLIC _ZZ19get_serial_commandsvEs_5
        PUBLIC _ZZ19get_serial_commandsvEs_6
        PUBLIC _ZZ19get_serial_commandsvEs_7
        PUBLIC _ZZ19get_serial_commandsvEs_8
        PUBLIC _ZZ22invalid_extruder_errorhEs
        PUBLIC _ZZ24get_homing_bump_feedrate8AxisEnumEs
        PUBLIC _ZZ8gcode_G4vEs
        PUBLIC _ZZ9gcode_M17vEs
        PUBLIC _ZZ9gcode_M20vEs
        PUBLIC _ZZ9gcode_M20vEs_0
        PUBLIC _ZZ9gcode_M31vEs
        PUBLIC _ZZ9gcode_M42vEs
        PUBLIC _ZZNK10duration_t8toStringEPcEs
        PUBLIC _ZZNK10duration_t8toStringEPcEs_0
        PUBLIC _ZZNK10duration_t8toStringEPcEs_1
        PUBLIC _ZZNK10duration_t8toStringEPcEs_2
        PUBLIC _ZZNK10duration_t8toStringEPcEs_3
        PUBLIC active_extruder
        PUBLIC axis_homed
        PUBLIC axis_known_position
        PUBLIC axis_relative_modes
        PUBLIC base_home_pos_P
        PUBLIC base_max_pos_P
        PUBLIC base_min_pos_P
        PUBLIC btn_beep_cnt
        PUBLIC btn_flg
        PUBLIC card
        PUBLIC cartes
        PUBLIC commands_in_queue
        PUBLIC continue_print_error_flg
        PUBLIC ctemp
        PUBLIC current_position
        PUBLIC destination
        PUBLIC fanSpeeds
        PUBLIC feedrate_mm_s
        PUBLIC feedrate_percentage
        PUBLIC home_bump_mm_P
        PUBLIC home_dir_P
        PUBLIC home_offset
        PUBLIC homing_feedrate_mm_s
        PUBLIC kill_c
        PUBLIC loop
        PUBLIC marlin_debug_flags
        PUBLIC max_length_P
        PUBLIC mksReprint
        PUBLIC mks_PrintStatePolling
        PUBLIC mks_ReadFromEpr
        PUBLIC mks_ReadFromFile
        PUBLIC mks_WriteToFile
        PUBLIC mks_clearDir
        PUBLIC mks_clearFile
        PUBLIC mks_contiuePrintDelta
        PUBLIC mks_contiuePrintPause
        PUBLIC mks_contiuePrintPwdwn
        PUBLIC mks_contiuePrint_UI
        PUBLIC mks_getPositionXYZE
        PUBLIC mks_heating_busy
        PUBLIC mks_initPrint
        PUBLIC mks_manual_leveling
        PUBLIC mks_moveXY
        PUBLIC mks_moveZ
        PUBLIC mks_pausePrint
        PUBLIC mks_pft_name
        PUBLIC mks_preExtrude
        PUBLIC mks_rePrintCheck
        PUBLIC mks_resumePrint
        PUBLIC mks_saveFileName
        PUBLIC mks_setPositionZ
        PUBLIC mksdlp
        PUBLIC mkstft_ui_init
        PUBLIC mkstft_ui_load
        PUBLIC position_shift
        PUBLIC preview_no_display
        PUBLIC previous_cmd_ms
        PUBLIC print_job_timer
        PUBLIC printing_rate_update_flag
        PUBLIC reTransmission_all_cnt
        PUBLIC reTransmission_data_cnt
        PUBLIC reTransmission_zero_cnt
        PUBLIC saved_feedrate_percentage
        PUBLIC serial_wait_tick
        PUBLIC setup
        PUBLIC soft_endstop_max
        PUBLIC soft_endstop_min
        PUBLIC soft_endstops_enabled
        PUBLIC spi1_hdmatx_CR
        PUBLIC t1
        PUBLIC t12
        PUBLIC t2
        PUBLIC target_extruder
        PUBLIC temper_error_flg
        PUBLIC wait_for_heatup
        PUBLIC workspace_offset
        PUBLIC z_high_count
        
          CFI Names cfiNames0
          CFI StackFrame CFA R13 DATA
          CFI Resource R0:32, R1:32, R2:32, R3:32, R4:32, R5:32, R6:32, R7:32
          CFI Resource R8:32, R9:32, R10:32, R11:32, R12:32, R13:32, R14:32
          CFI Resource D0:64, D1:64, D2:64, D3:64, D4:64, D5:64, D6:64, D7:64
          CFI Resource D8:64, D9:64, D10:64, D11:64, D12:64, D13:64, D14:64
          CFI Resource D15:64
          CFI EndNames cfiNames0
        
          CFI Common cfiCommon0 Using cfiNames0
          CFI CodeAlign 2
          CFI DataAlign 4
          CFI ReturnAddress R14 CODE
          CFI CFA R13+0
          CFI R0 Undefined
          CFI R1 Undefined
          CFI R2 Undefined
          CFI R3 Undefined
          CFI R4 SameValue
          CFI R5 SameValue
          CFI R6 SameValue
          CFI R7 SameValue
          CFI R8 SameValue
          CFI R9 SameValue
          CFI R10 SameValue
          CFI R11 SameValue
          CFI R12 Undefined
          CFI R14 SameValue
          CFI D0 Undefined
          CFI D1 Undefined
          CFI D2 Undefined
          CFI D3 Undefined
          CFI D4 Undefined
          CFI D5 Undefined
          CFI D6 Undefined
          CFI D7 Undefined
          CFI D8 SameValue
          CFI D9 SameValue
          CFI D10 SameValue
          CFI D11 SameValue
          CFI D12 SameValue
          CFI D13 SameValue
          CFI D14 SameValue
          CFI D15 SameValue
          CFI EndCommon cfiCommon0
        
// E:\DLP_Proj\DLP_source\branches\DLP_opensource\Middlewares\Third_Party\Marlin\Marlin_main.cpp
//    1 /**
//    2  * Marlin 3D Printer Firmware
//    3  * Copyright (C) 2016, 2017 MarlinFirmware [https://github.com/MarlinFirmware/Marlin]
//    4  *
//    5  * Based on Sprinter and grbl.
//    6  * Copyright (C) 2011 Camiel Gubbels / Erik van der Zalm
//    7  *
//    8  * This program is free software: you can redistribute it and/or modify
//    9  * it under the terms of the GNU General Public License as published by
//   10  * the Free Software Foundation, either version 3 of the License, or
//   11  * (at your option) any later version.
//   12  *
//   13  * This program is distributed in the hope that it will be useful,
//   14  * but WITHOUT ANY WARRANTY; without even the implied warranty of
//   15  * MERCHANTABILITY or FITNESS FOR A PARTICULAR PURPOSE.  See the
//   16  * GNU General Public License for more details.
//   17  *
//   18  * You should have received a copy of the GNU General Public License
//   19  * along with this program.  If not, see <http://www.gnu.org/licenses/>.
//   20  *
//   21  */
//   22 
//   23 /**
//   24  * About Marlin
//   25  *
//   26  * This firmware is a mashup between Sprinter and grbl.
//   27  *  - https://github.com/kliment/Sprinter
//   28  *  - https://github.com/simen/grbl/tree
//   29  */
//   30 
//   31 /**
//   32  * -----------------
//   33  * G-Codes in Marlin
//   34  * -----------------
//   35  *
//   36  * Helpful G-code references:
//   37  *  - http://linuxcnc.org/handbook/gcode/g-code.html
//   38  *  - http://objects.reprap.org/wiki/Mendel_User_Manual:_RepRapGCodes
//   39  *
//   40  * Help to document Marlin's G-codes online:
//   41  *  - http://reprap.org/wiki/G-code
//   42  *  - https://github.com/MarlinFirmware/MarlinDocumentation
//   43  *
//   44  * -----------------
//   45  *
//   46  * "G" Codes
//   47  *
//   48  * G0   -> G1
//   49  * G1   - Coordinated Movement X Y Z E
//   50  * G2   - CW ARC
//   51  * G3   - CCW ARC
//   52  * G4   - Dwell S<seconds> or P<milliseconds>
//   53  * G5   - Cubic B-spline with XYZE destination and IJPQ offsets
//   54  * G10  - Retract filament according to settings of M207 (Requires FWRETRACT)
//   55  * G11  - Retract recover filament according to settings of M208 (Requires FWRETRACT)
//   56  * G12  - Clean tool (Requires NOZZLE_CLEAN_FEATURE)
//   57  * G17  - Select Plane XY (Requires CNC_WORKSPACE_PLANES)
//   58  * G18  - Select Plane ZX (Requires CNC_WORKSPACE_PLANES)
//   59  * G19  - Select Plane YZ (Requires CNC_WORKSPACE_PLANES)
//   60  * G20  - Set input units to inches (Requires INCH_MODE_SUPPORT)
//   61  * G21  - Set input units to millimeters (Requires INCH_MODE_SUPPORT)
//   62  * G26  - Mesh Validation Pattern (Requires G26_MESH_VALIDATION)
//   63  * G27  - Park Nozzle (Requires NOZZLE_PARK_FEATURE)
//   64  * G28  - Home one or more axes
//   65  * G29  - Start or continue the bed leveling probe procedure (Requires bed leveling)
//   66  * G30  - Single Z probe, probes bed at X Y location (defaults to current XY location)
//   67  * G31  - Dock sled (Z_PROBE_SLED only)
//   68  * G32  - Undock sled (Z_PROBE_SLED only)
//   69  * G33  - Delta Auto-Calibration (Requires DELTA_AUTO_CALIBRATION)
//   70  * G38  - Probe in any direction using the Z_MIN_PROBE (Requires G38_PROBE_TARGET)
//   71  * G42  - Coordinated move to a mesh point (Requires MESH_BED_LEVELING, AUTO_BED_LEVELING_BLINEAR, or AUTO_BED_LEVELING_UBL)
//   72  * G90  - Use Absolute Coordinates
//   73  * G91  - Use Relative Coordinates
//   74  * G92  - Set current position to coordinates given
//   75  *
//   76  * "M" Codes
//   77  *
//   78  * M0   - Unconditional stop - Wait for user to press a button on the LCD (Only if ULTRA_LCD is enabled)
//   79  * M1   -> M0
//   80  * M3   - Turn laser/spindle on, set spindle/laser speed/power, set rotation to clockwise
//   81  * M4   - Turn laser/spindle on, set spindle/laser speed/power, set rotation to counter-clockwise
//   82  * M5   - Turn laser/spindle off
//   83  * M17  - Enable/Power all stepper motors
//   84  * M18  - Disable all stepper motors; same as M84
//   85  * M20  - List SD card. (Requires SDSUPPORT)
//   86  * M21  - Init SD card. (Requires SDSUPPORT)
//   87  * M22  - Release SD card. (Requires SDSUPPORT)
//   88  * M23  - Select SD file: "M23 /path/file.gco". (Requires SDSUPPORT)
//   89  * M24  - Start/resume SD print. (Requires SDSUPPORT)
//   90  * M25  - Pause SD print. (Requires SDSUPPORT)
//   91  * M26  - Set SD position in bytes: "M26 S12345". (Requires SDSUPPORT)
//   92  * M27  - Report SD print status. (Requires SDSUPPORT)
//   93  * M28  - Start SD write: "M28 /path/file.gco". (Requires SDSUPPORT)
//   94  * M29  - Stop SD write. (Requires SDSUPPORT)
//   95  * M30  - Delete file from SD: "M30 /path/file.gco"
//   96  * M31  - Report time since last M109 or SD card start to serial.
//   97  * M32  - Select file and start SD print: "M32 [S<bytepos>] !/path/file.gco#". (Requires SDSUPPORT)
//   98  *        Use P to run other files as sub-programs: "M32 P !filename#"
//   99  *        The '#' is necessary when calling from within sd files, as it stops buffer prereading
//  100  * M33  - Get the longname version of a path. (Requires LONG_FILENAME_HOST_SUPPORT)
//  101  * M34  - Set SD Card sorting options. (Requires SDCARD_SORT_ALPHA)
//  102  * M42  - Change pin status via gcode: M42 P<pin> S<value>. LED pin assumed if P is omitted.
//  103  * M43  - Display pin status, watch pins for changes, watch endstops & toggle LED, Z servo probe test, toggle pins
//  104  * M48  - Measure Z Probe repeatability: M48 P<points> X<pos> Y<pos> V<level> E<engage> L<legs>. (Requires Z_MIN_PROBE_REPEATABILITY_TEST)
//  105  * M75  - Start the print job timer.
//  106  * M76  - Pause the print job timer.
//  107  * M77  - Stop the print job timer.
//  108  * M78  - Show statistical information about the print jobs. (Requires PRINTCOUNTER)
//  109  * M80  - Turn on Power Supply. (Requires POWER_SUPPLY > 0)
//  110  * M81  - Turn off Power Supply. (Requires POWER_SUPPLY > 0)
//  111  * M82  - Set E codes absolute (default).
//  112  * M83  - Set E codes relative while in Absolute (G90) mode.
//  113  * M84  - Disable steppers until next move, or use S<seconds> to specify an idle
//  114  *        duration after which steppers should turn off. S0 disables the timeout.
//  115  * M85  - Set inactivity shutdown timer with parameter S<seconds>. To disable set zero (default)
//  116  * M92  - Set planner.axis_steps_per_mm for one or more axes.
//  117  * M100 - Watch Free Memory (for debugging) (Requires M100_FREE_MEMORY_WATCHER)
//  118  * M104 - Set extruder target temp.
//  119  * M105 - Report current temperatures.
//  120  * M106 - Set print fan speed.
//  121  * M107 - Print fan off.
//  122  * M108 - Break out of heating loops (M109, M190, M303). With no controller, breaks out of M0/M1. (Requires EMERGENCY_PARSER)
//  123  * M109 - Sxxx Wait for extruder current temp to reach target temp. Waits only when heating
//  124  *        Rxxx Wait for extruder current temp to reach target temp. Waits when heating and cooling
//  125  *        If AUTOTEMP is enabled, S<mintemp> B<maxtemp> F<factor>. Exit autotemp by any M109 without F
//  126  * M110 - Set the current line number. (Used by host printing)
//  127  * M111 - Set debug flags: "M111 S<flagbits>". See flag bits defined in enum.h.
//  128  * M112 - Emergency stop.
//  129  * M113 - Get or set the timeout interval for Host Keepalive "busy" messages. (Requires HOST_KEEPALIVE_FEATURE)
//  130  * M114 - Report current position.
//  131  * M115 - Report capabilities. (Extended capabilities requires EXTENDED_CAPABILITIES_REPORT)
//  132  * M117 - Display a message on the controller screen. (Requires an LCD)
//  133  * M118 - Display a message in the host console.
//  134  * M119 - Report endstops status.
//  135  * M120 - Enable endstops detection.
//  136  * M121 - Disable endstops detection.
//  137  * M122 - Debug stepper (Requires HAVE_TMC2130)
//  138  * M125 - Save current position and move to filament change position. (Requires PARK_HEAD_ON_PAUSE)
//  139  * M126 - Solenoid Air Valve Open. (Requires BARICUDA)
//  140  * M127 - Solenoid Air Valve Closed. (Requires BARICUDA)
//  141  * M128 - EtoP Open. (Requires BARICUDA)
//  142  * M129 - EtoP Closed. (Requires BARICUDA)
//  143  * M140 - Set bed target temp. S<temp>
//  144  * M145 - Set heatup values for materials on the LCD. H<hotend> B<bed> F<fan speed> for S<material> (0=PLA, 1=ABS)
//  145  * M149 - Set temperature units. (Requires TEMPERATURE_UNITS_SUPPORT)
//  146  * M150 - Set Status LED Color as R<red> U<green> B<blue> P<bright>. Values 0-255. (Requires BLINKM, RGB_LED, RGBW_LED, NEOPIXEL_LED, or PCA9632).
//  147  * M155 - Auto-report temperatures with interval of S<seconds>. (Requires AUTO_REPORT_TEMPERATURES)
//  148  * M163 - Set a single proportion for a mixing extruder. (Requires MIXING_EXTRUDER)
//  149  * M164 - Save the mix as a virtual extruder. (Requires MIXING_EXTRUDER and MIXING_VIRTUAL_TOOLS)
//  150  * M165 - Set the proportions for a mixing extruder. Use parameters ABCDHI to set the mixing factors. (Requires MIXING_EXTRUDER)
//  151  * M190 - Sxxx Wait for bed current temp to reach target temp. ** Waits only when heating! **
//  152  *        Rxxx Wait for bed current temp to reach target temp. ** Waits for heating or cooling. **
//  153  * M200 - Set filament diameter, D<diameter>, setting E axis units to cubic. (Use S0 to revert to linear units.)
//  154  * M201 - Set max acceleration in units/s^2 for print moves: "M201 X<accel> Y<accel> Z<accel> E<accel>"
//  155  * M202 - Set max acceleration in units/s^2 for travel moves: "M202 X<accel> Y<accel> Z<accel> E<accel>" ** UNUSED IN MARLIN! **
//  156  * M203 - Set maximum feedrate: "M203 X<fr> Y<fr> Z<fr> E<fr>" in units/sec.
//  157  * M204 - Set default acceleration in units/sec^2: P<printing> R<extruder_only> T<travel>
//  158  * M205 - Set advanced settings. Current units apply:
//  159             S<print> T<travel> minimum speeds
//  160             B<minimum segment time>
//  161             X<max X jerk>, Y<max Y jerk>, Z<max Z jerk>, E<max E jerk>
//  162  * M206 - Set additional homing offset. (Disabled by NO_WORKSPACE_OFFSETS or DELTA)
//  163  * M207 - Set Retract Length: S<length>, Feedrate: F<units/min>, and Z lift: Z<distance>. (Requires FWRETRACT)
//  164  * M208 - Set Recover (unretract) Additional (!) Length: S<length> and Feedrate: F<units/min>. (Requires FWRETRACT)
//  165  * M209 - Turn Automatic Retract Detection on/off: S<0|1> (For slicers that don't support G10/11). (Requires FWRETRACT)
//  166           Every normal extrude-only move will be classified as retract depending on the direction.
//  167  * M211 - Enable, Disable, and/or Report software endstops: S<0|1> (Requires MIN_SOFTWARE_ENDSTOPS or MAX_SOFTWARE_ENDSTOPS)
//  168  * M218 - Set a tool offset: "M218 T<index> X<offset> Y<offset>". (Requires 2 or more extruders)
//  169  * M220 - Set Feedrate Percentage: "M220 S<percent>" (i.e., "FR" on the LCD)
//  170  * M221 - Set Flow Percentage: "M221 S<percent>"
//  171  * M226 - Wait until a pin is in a given state: "M226 P<pin> S<state>"
//  172  * M240 - Trigger a camera to take a photograph. (Requires CHDK or PHOTOGRAPH_PIN)
//  173  * M250 - Set LCD contrast: "M250 C<contrast>" (0-63). (Requires LCD support)
//  174  * M260 - i2c Send Data (Requires EXPERIMENTAL_I2CBUS)
//  175  * M261 - i2c Request Data (Requires EXPERIMENTAL_I2CBUS)
//  176  * M280 - Set servo position absolute: "M280 P<index> S<angle|µs>". (Requires servos)
//  177  * M290 - Babystepping (Requires BABYSTEPPING)
//  178  * M300 - Play beep sound S<frequency Hz> P<duration ms>
//  179  * M301 - Set PID parameters P I and D. (Requires PIDTEMP)
//  180  * M302 - Allow cold extrudes, or set the minimum extrude S<temperature>. (Requires PREVENT_COLD_EXTRUSION)
//  181  * M303 - PID relay autotune S<temperature> sets the target temperature. Default 150C. (Requires PIDTEMP)
//  182  * M304 - Set bed PID parameters P I and D. (Requires PIDTEMPBED)
//  183  * M350 - Set microstepping mode. (Requires digital microstepping pins.)
//  184  * M351 - Toggle MS1 MS2 pins directly. (Requires digital microstepping pins.)
//  185  * M355 - Set Case Light on/off and set brightness. (Requires CASE_LIGHT_PIN)
//  186  * M380 - Activate solenoid on active extruder. (Requires EXT_SOLENOID)
//  187  * M381 - Disable all solenoids. (Requires EXT_SOLENOID)
//  188  * M400 - Finish all moves.
//  189  * M401 - Lower Z probe. (Requires a probe)
//  190  * M402 - Raise Z probe. (Requires a probe)
//  191  * M404 - Display or set the Nominal Filament Width: "W<diameter>". (Requires FILAMENT_WIDTH_SENSOR)
//  192  * M405 - Enable Filament Sensor flow control. "M405 D<delay_cm>". (Requires FILAMENT_WIDTH_SENSOR)
//  193  * M406 - Disable Filament Sensor flow control. (Requires FILAMENT_WIDTH_SENSOR)
//  194  * M407 - Display measured filament diameter in millimeters. (Requires FILAMENT_WIDTH_SENSOR)
//  195  * M410 - Quickstop. Abort all planned moves.
//  196  * M420 - Enable/Disable Leveling (with current values) S1=enable S0=disable (Requires MESH_BED_LEVELING or ABL)
//  197  * M421 - Set a single Z coordinate in the Mesh Leveling grid. X<units> Y<units> Z<units> (Requires MESH_BED_LEVELING or AUTO_BED_LEVELING_UBL)
//  198  * M428 - Set the home_offset based on the current_position. Nearest edge applies. (Disabled by NO_WORKSPACE_OFFSETS or DELTA)
//  199  * M500 - Store parameters in EEPROM. (Requires EEPROM_SETTINGS)
//  200  * M501 - Restore parameters from EEPROM. (Requires EEPROM_SETTINGS)
//  201  * M502 - Revert to the default "factory settings". ** Does not write them to EEPROM! **
//  202  * M503 - Print the current settings (in memory): "M503 S<verbose>". S0 specifies compact output.
//  203  * M540 - Enable/disable SD card abort on endstop hit: "M540 S<state>". (Requires ABORT_ON_ENDSTOP_HIT_FEATURE_ENABLED)
//  204  * M600 - Pause for filament change: "M600 X<pos> Y<pos> Z<raise> E<first_retract> L<later_retract>". (Requires ADVANCED_PAUSE_FEATURE)
//  205  * M665 - Set delta configurations: "M665 L<diagonal rod> R<delta radius> S<segments/s> A<rod A trim mm> B<rod B trim mm> C<rod C trim mm> I<tower A trim angle> J<tower B trim angle> K<tower C trim angle>" (Requires DELTA)
//  206  * M666 - Set delta endstop adjustment. (Requires DELTA)
//  207  * M605 - Set dual x-carriage movement mode: "M605 S<mode> [X<x_offset>] [R<temp_offset>]". (Requires DUAL_X_CARRIAGE)
//  208  * M851 - Set Z probe's Z offset in current units. (Negative = below the nozzle.)
//  209  * M852 - Set skew factors: "M852 [I<xy>] [J<xz>] [K<yz>]". (Requires SKEW_CORRECTION_GCODE, and SKEW_CORRECTION_FOR_Z for IJ)
//  210  * M860 - Report the position of position encoder modules.
//  211  * M861 - Report the status of position encoder modules.
//  212  * M862 - Perform an axis continuity test for position encoder modules.
//  213  * M863 - Perform steps-per-mm calibration for position encoder modules.
//  214  * M864 - Change position encoder module I2C address.
//  215  * M865 - Check position encoder module firmware version.
//  216  * M866 - Report or reset position encoder module error count.
//  217  * M867 - Enable/disable or toggle error correction for position encoder modules.
//  218  * M868 - Report or set position encoder module error correction threshold.
//  219  * M869 - Report position encoder module error.
//  220  * M900 - Get and/or Set advance K factor and WH/D ratio. (Requires LIN_ADVANCE)
//  221  * M906 - Set or get motor current in milliamps using axis codes X, Y, Z, E. Report values if no axis codes given. (Requires HAVE_TMC2130 or HAVE_TMC2208)
//  222  * M907 - Set digital trimpot motor current using axis codes. (Requires a board with digital trimpots)
//  223  * M908 - Control digital trimpot directly. (Requires DAC_STEPPER_CURRENT or DIGIPOTSS_PIN)
//  224  * M909 - Print digipot/DAC current value. (Requires DAC_STEPPER_CURRENT)
//  225  * M910 - Commit digipot/DAC value to external EEPROM via I2C. (Requires DAC_STEPPER_CURRENT)
//  226  * M911 - Report stepper driver overtemperature pre-warn condition. (Requires HAVE_TMC2130 or HAVE_TMC2208)
//  227  * M912 - Clear stepper driver overtemperature pre-warn condition flag. (Requires HAVE_TMC2130 or HAVE_TMC2208)
//  228  * M913 - Set HYBRID_THRESHOLD speed. (Requires HYBRID_THRESHOLD)
//  229  * M914 - Set SENSORLESS_HOMING sensitivity. (Requires SENSORLESS_HOMING)
//  230  *
//  231  * M360 - SCARA calibration: Move to cal-position ThetaA (0 deg calibration)
//  232  * M361 - SCARA calibration: Move to cal-position ThetaB (90 deg calibration - steps per degree)
//  233  * M362 - SCARA calibration: Move to cal-position PsiA (0 deg calibration)
//  234  * M363 - SCARA calibration: Move to cal-position PsiB (90 deg calibration - steps per degree)
//  235  * M364 - SCARA calibration: Move to cal-position PSIC (90 deg to Theta calibration position)
//  236  *
//  237  * ************ Custom codes - This can change to suit future G-code regulations
//  238  * M928 - Start SD logging: "M928 filename.gco". Stop with M29. (Requires SDSUPPORT)
//  239  * M998	- Stop SD print. (Requires SDSUPPORT)
//  240  * M999 - Restart after being stopped by error
//  241  *
//  242  * "T" Codes
//  243  *
//  244  * T0-T3 - Select an extruder (tool) by index: "T<n> F<units/min>"
//  245  *
//  246  */
//  247 
//  248 #include "Marlin.h"
//  249 
//  250 #include "ultralcd.h"
//  251 #include "planner.h"
//  252 #include "stepper.h"
//  253 #include "endstops.h"
//  254 #include "temperature.h"
//  255 #include "cardreader.h"
//  256 #include "configuration_store.h"
//  257 #include "language.h"
//  258 #include "math.h"
//  259 #include "nozzle.h"
//  260 #include "duration_t.h"
//  261 #include "tim.h"
//  262 #include "gcode.h"
//  263 #include "least_squares_fit.h"
//  264 #include "mks_cfg.h"
//  265 #include "mks_reprint.h"
//  266 #include "mks_dlp_main.h"
//  267 #include "gui.h"
//  268 #include "draw_ready_print.h"
//  269 #include "draw_ui.h"
//  270 #include "draw_printing.h"
//  271 

        SECTION `.bss`:DATA:REORDER:NOROOT(0)
//  272 volatile uint8_t temper_error_flg = 0;
temper_error_flg:
        DS8 1

        SECTION `.text`:CODE:NOROOT(1)
          CFI Block cfiBlock0 Using cfiCommon0
          CFI Function _ZN7MKS_DLPC2Ev
          CFI FunCall _ZN7MKS_DLPC1Ev
        THUMB
// __code __interwork __softfp MKS_DLP::subobject MKS_DLP()
_ZN7MKS_DLPC2Ev:
        B.W      _ZN7MKS_DLPC1Ev
          CFI EndBlock cfiBlock0
//  273 
//  274 volatile uint8_t mks_heating_busy = 0;
//  275 
//  276 extern void Close_machine_display();
//  277 
//  278 extern uint8_t IsChooseAutoShutdown;
//  279 
//  280 extern uint8_t temperature_change_frequency;
//  281 extern uint8_t from_flash_pic;
//  282 
//  283 static uint32_t temperature_change_frequency_cnt = 0;
//  284 static uint32_t After_finish_print_time = 0;
//  285 
//  286 volatile uint32_t TimeIncrease;
//  287 uint8_t volatile printing_rate_update_flag;
//  288 uint8_t preview_no_display;
//  289 extern PRINT_TIME  print_time;
//  290 
//  291 
//  292 
//  293 #if HAS_ABL
//  294   #include "vector_3.h"
//  295   #if ENABLED(AUTO_BED_LEVELING_LINEAR)
//  296     #include "least_squares_fit.h"
//  297   #endif
//  298 #elif ENABLED(MESH_BED_LEVELING)
//  299   #include "mesh_bed_leveling.h"
//  300 #endif
//  301 
//  302 #if ENABLED(BEZIER_CURVE_SUPPORT)
//  303   #include "planner_bezier.h"
//  304 #endif
//  305 
//  306 #if HAS_BUZZER && DISABLED(LCD_USE_I2C_BUZZER)
//  307   #include "buzzer.h"
//  308 #endif
//  309 
//  310 #if ENABLED(USE_WATCHDOG)
//  311   #include "watchdog.h"
//  312 #endif
//  313 
//  314 #if ENABLED(MAX7219_DEBUG)
//  315   #include "Max7219_Debug_LEDs.h"
//  316 #endif
//  317 
//  318 #if HAS_COLOR_LEDS
//  319   #include "leds.h"
//  320 #endif
//  321 
//  322 #if HAS_SERVOS
//  323   #include "servo.h"
//  324 #endif
//  325 
//  326 #if HAS_DIGIPOTSS
//  327   #include <SPI.h>
//  328 #endif
//  329 
//  330 #if ENABLED(DAC_STEPPER_CURRENT)
//  331   #include "stepper_dac.h"
//  332 #endif
//  333 
//  334 #if ENABLED(EXPERIMENTAL_I2CBUS)
//  335   #include "twibus.h"
//  336 #endif
//  337 
//  338 #if ENABLED(I2C_POSITION_ENCODERS)
//  339   #include "I2CPositionEncoder.h"
//  340 #endif
//  341 
//  342 #if ENABLED(ENDSTOP_INTERRUPTS_FEATURE)
//  343   #include "endstop_interrupts.h"
//  344 #endif
//  345 
//  346 #if ENABLED(M100_FREE_MEMORY_WATCHER)
//  347   void gcode_M100();
//  348   void M100_dump_routine(const char * const title, const char *start, const char *end);
//  349 #endif
//  350 
//  351 #if ENABLED(G26_MESH_VALIDATION)
//  352   bool g26_debug_flag; // =false
//  353   void gcode_G26();
//  354 #endif
//  355 
//  356 #if ENABLED(SDSUPPORT)

        SECTION `.text`:CODE:NOROOT(1)
          CFI Block cfiBlock1 Using cfiCommon0
          CFI Function __sti__routine
        THUMB
// static __intrinsic __interwork __softfp void __sti__routine()
__sti__routine:
        PUSH     {R4,LR}
          CFI R14 Frame(CFA, -4)
          CFI R4 Frame(CFA, -8)
          CFI CFA R13+8
//  357   CardReader card;
        LDR.W    R4,??DataTable92_6
        MOV      R0,R4
          CFI FunCall _ZN10CardReaderC1Ev
        BL       _ZN10CardReaderC1Ev
        ADDW     R0,R4,#+3464
          CFI FunCall _ZN9StopwatchC1Ev
        BL       _ZN9StopwatchC1Ev
        LDR.W    R0,??DataTable92_7
        LDR.W    R1,??DataTable92_8
        LDR      R2,[R1, #+4]
        STR      R2,[R0, #+12]
        LDR      R2,[R1, #+8]
        STR      R2,[R0, #+24]
        LDRSB    R2,[R1, #+1]
        CMP      R2,#+0
        BPL.N    ??__sti__routine_0
        VLDR     S0,[R1, #+4]
        B.N      ??__sti__routine_1
??__sti__routine_0:
        VLDR     S0,[R1, #+8]
??__sti__routine_1:
        VSTR     S0,[R0, #+36]
        VLDR     S0,[R1, #+8]
        VLDR     S1,[R1, #+4]
        VSUB.F32 S0,S0,S1
        VSTR     S0,[R0, #+48]
        LDRB     R1,[R1, #+1]
        STRB     R1,[R0, #+2]
        ADDW     R0,R4,#+2500
        POP      {R4,LR}
          CFI R4 SameValue
          CFI R14 SameValue
          CFI CFA R13+0
          CFI FunCall _ZN7MKS_DLPC1Ev
        B.W      _ZN7MKS_DLPC1Ev
          CFI EndBlock cfiBlock1
//  358 #endif
//  359 
//  360 #if ENABLED(EXPERIMENTAL_I2CBUS)
//  361   TWIBus i2c;
//  362 #endif
//  363 
//  364 #if ENABLED(G38_PROBE_TARGET)
//  365   bool G38_move = false,
//  366        G38_endstop_hit = false;
//  367 #endif
//  368 
//  369 #if ENABLED(AUTO_BED_LEVELING_UBL)
//  370   #include "ubl.h"
//  371   extern bool defer_return_to_status;
//  372   unified_bed_leveling ubl;
//  373 #endif
//  374 
//  375 #if ENABLED(CNC_COORDINATE_SYSTEMS)
//  376   int8_t active_coordinate_system = -1; // machine space
//  377   float coordinate_system[MAX_COORDINATE_SYSTEMS][XYZ];
//  378 #endif
//  379 
//  380 bool Running = true;
//  381 
//  382 uint8_t marlin_debug_flags = DEBUG_NONE;
//  383 
//  384 /**
//  385  * Cartesian Current Position
//  386  *   Used to track the native machine position as moves are queued.
//  387  *   Used by 'buffer_line_to_current_position' to do a move after changing it.
//  388  *   Used by 'SYNC_PLAN_POSITION_KINEMATIC' to update 'planner.position'.
//  389  */
//  390 float current_position[XYZE] = { 0.0 };
//  391 
//  392 /**
//  393  * Cartesian Destination
//  394  *   The destination for a move, filled in by G-code movement commands,
//  395  *   and expected by functions like 'prepare_move_to_destination'.
//  396  *   Set with 'gcode_get_destination' or 'set_destination_from_current'.
//  397  */
//  398 float destination[XYZE] = { 0.0 };
//  399 
//  400 /**
//  401  * axis_homed
//  402  *   Flags that each linear axis was homed.
//  403  *   XYZ on cartesian, ABC on delta, ABZ on SCARA.
//  404  *
//  405  * axis_known_position
//  406  *   Flags that the position is known in each linear axis. Set when homed.
//  407  *   Cleared whenever a stepper powers off, potentially losing its position.
//  408  */
//  409 bool axis_homed[XYZ] = { false }, axis_known_position[XYZ] = { false };
//  410 
//  411 /**
//  412  * GCode line number handling. Hosts may opt to include line numbers when
//  413  * sending commands to Marlin, and lines will be checked for sequentiality.
//  414  * M110 N<int> sets the current line number.
//  415  */
//  416 static long gcode_N, gcode_LastN, Stopped_gcode_LastN = 0;
//  417 
//  418 /**
//  419  * GCode Command Queue
//  420  * A simple ring buffer of BUFSIZE command strings.
//  421  *
//  422  * Commands are copied into this buffer by the command injectors
//  423  * (immediate, serial, sd card) and they are processed sequentially by
//  424  * the main loop. The process_next_command function parses the next
//  425  * command and hands off execution to individual handler functions.
//  426  */
//  427 uint8_t commands_in_queue = 0; // Count of commands in the queue
//  428 static uint8_t cmd_queue_index_r = 0, // Ring buffer read position
//  429                cmd_queue_index_w = 0; // Ring buffer write position
//  430 #if ENABLED(M100_FREE_MEMORY_WATCHER)
//  431   char command_queue[BUFSIZE][MAX_CMD_SIZE];  // Necessary so M100 Free Memory Dumper can show us the commands and any corruption
//  432 #else                                         // This can be collapsed back to the way it was soon.
//  433 static char command_queue[BUFSIZE][MAX_CMD_SIZE];
//  434 #endif
//  435 
//  436 /**
//  437  * Next Injected Command pointer. NULL if no commands are being injected.
//  438  * Used by Marlin internally to ensure that commands initiated from within
//  439  * are enqueued ahead of any pending serial or sd card commands.
//  440  */
//  441 static const char *injected_commands_P = NULL;
//  442 
//  443 #if ENABLED(TEMPERATURE_UNITS_SUPPORT)
//  444   TempUnit input_temp_units = TEMPUNIT_C;
//  445 #endif
//  446 
//  447 /**
//  448  * Feed rates are often configured with mm/m
//  449  * but the planner and stepper like mm/s units.
//  450  */
//  451  /*
//  452 static const float homing_feedrate_mm_s[] PROGMEM = {
//  453   #if ENABLED(DELTA)
//  454     MMM_TO_MMS(HOMING_FEEDRATE_Z), MMM_TO_MMS(HOMING_FEEDRATE_Z),
//  455   #else
//  456     MMM_TO_MMS(HOMING_FEEDRATE_XY), MMM_TO_MMS(HOMING_FEEDRATE_XY),
//  457   #endif
//  458   MMM_TO_MMS(HOMING_FEEDRATE_Z), 0
//  459 };
//  460 
//  461 FORCE_INLINE float homing_feedrate(const AxisEnum a) { return pgm_read_float(&homing_feedrate_mm_s[a]); }
//  462 */
//  463 
//  464 float  homing_feedrate_mm_s[4];
//  465 
//  466 float feedrate_mm_s = MMM_TO_MMS(1500.0);
//  467 static float saved_feedrate_mm_s;
//  468 int16_t feedrate_percentage = 100, saved_feedrate_percentage;
//  469 
//  470 // Initialized by settings.load()
//  471 bool axis_relative_modes[] = AXIS_RELATIVE_MODES;
//  472 
//  473 #if HAS_WORKSPACE_OFFSET
//  474   #if HAS_POSITION_SHIFT
//  475     // The distance that XYZ has been offset by G92. Reset by G28.
//  476     float position_shift[XYZ] = { 0 };
//  477   #endif
//  478   #if HAS_HOME_OFFSET
//  479     // This offset is added to the configured home position.
//  480     // Set by M206, M428, or menu item. Saved to EEPROM.
//  481     float home_offset[XYZ] = { 0 };
//  482   #endif
//  483   #if HAS_HOME_OFFSET && HAS_POSITION_SHIFT
//  484     // The above two are combined to save on computes
//  485     float workspace_offset[XYZ] = { 0 };
//  486   #endif
//  487 #endif
//  488 
//  489 // Software Endstops are based on the configured limits.
//  490 /*
//  491 float soft_endstop_min[XYZ] = { X_MIN_BED, Y_MIN_BED, Z_MIN_POS },
//  492       soft_endstop_max[XYZ] = { X_MAX_BED, Y_MAX_BED, Z_MAX_POS };
//  493 */
//  494 float soft_endstop_min[XYZ],soft_endstop_max[XYZ];

        SECTION `.text`:CODE:NOROOT(2)
          CFI Block cfiBlock2 Using cfiCommon0
          CFI Function _Z21soft_endstop_min_initv
          CFI NoCalls
        THUMB
//  495 void soft_endstop_min_init()
//  496 {
//  497         soft_endstop_min[0]= X_MIN_BED;
_Z21soft_endstop_min_initv:
        LDR.W    R0,??DataTable92_9
        MOVS     R1,#+0
        STR      R1,[R0, #+92]
//  498         soft_endstop_min[1]= X_MIN_BED;
        STR      R1,[R0, #+96]
//  499         soft_endstop_min[2]= Z_MIN_POS;
        LDR.W    R1,??DataTable92_8
        LDR      R2,[R1, #+4]
        STR      R2,[R0, #+100]
//  500 
//  501         soft_endstop_max[0] = X_MAX_BED;
        VLDR.W   S0,??DataTable76  ;; 0x43480000
        VSTR     S0,[R0, #+104]
//  502         soft_endstop_max[1] = Y_MAX_BED;
        VSTR     S0,[R0, #+108]
//  503         soft_endstop_max[2] = Z_MAX_POS;
        LDR      R1,[R1, #+8]
        STR      R1,[R0, #+112]
//  504 }
        BX       LR               ;; return
          CFI EndBlock cfiBlock2
//  505 
//  506 #if HAS_SOFTWARE_ENDSTOPS
//  507   bool soft_endstops_enabled = true;
//  508   #if IS_KINEMATIC
//  509     float soft_endstop_radius, soft_endstop_radius_2;
//  510   #endif
//  511 #endif
//  512 
//  513 #if FAN_COUNT > 0
//  514   int fanSpeeds[FAN_COUNT] = { 0 };
//  515   #if ENABLED(EXTRA_FAN_SPEED)
//  516     int16_t old_fanSpeeds[FAN_COUNT],
//  517             new_fanSpeeds[FAN_COUNT];
//  518   #endif
//  519   #if ENABLED(PROBING_FANS_OFF)
//  520     bool fans_paused = false;
//  521     int16_t paused_fanSpeeds[FAN_COUNT] = { 0 };
//  522   #endif
//  523 #endif
//  524 
//  525 // The active extruder (tool). Set with T<extruder> command.
//  526 uint8_t active_extruder = 0;
//  527 
//  528 // Relative Mode. Enable with G91, disable with G90.
//  529 static bool relative_mode = false;
//  530 
//  531 // For M109 and M190, this flag may be cleared (by M108) to exit the wait loop
//  532 volatile bool wait_for_heatup = true;
//  533 
//  534 // For M0/M1, this flag may be cleared (by M108) to exit the wait-for-user loop
//  535 #if HAS_RESUME_CONTINUE
//  536   volatile bool wait_for_user = false;
//  537 #endif
//  538 
//  539 const char axis_codes[XYZE] = { 'X', 'Y', 'Z', 'E' };
//  540 
//  541 // Number of characters read in the current line of serial input
//  542 static int serial_count = 0;
//  543 
//  544 // Inactivity shutdown
//  545 millis_t previous_cmd_ms = 0;
//  546 static millis_t max_inactive_time = 0;
//  547 static millis_t stepper_inactive_time = (DEFAULT_STEPPER_DEACTIVE_TIME) * 1000UL;
//  548 
//  549 // Print Job Timer
//  550 #if ENABLED(PRINTCOUNTER)
//  551   PrintCounter print_job_timer = PrintCounter();
//  552 #else
//  553   Stopwatch print_job_timer = Stopwatch();
//  554 #endif
//  555 
//  556 // Buzzer - I2C on the LCD or a BEEPER_PIN
//  557 #if ENABLED(LCD_USE_I2C_BUZZER)
//  558   #define BUZZ(d,f) lcd_buzz(d, f)
//  559 #elif PIN_EXISTS(BEEPER)
//  560   Buzzer buzzer;
//  561   #define BUZZ(d,f) buzzer.tone(d, f)
//  562 #else
//  563   #define BUZZ(d,f) NOOP
//  564 #endif
//  565 
//  566 uint8_t target_extruder;
//  567 
//  568 #if HAS_BED_PROBE
//  569   float zprobe_zoffset; // Initialized by settings.load()
//  570 #endif
//  571 
//  572 #if HAS_ABL
//  573   float xy_probe_feedrate_mm_s = MMM_TO_MMS(XY_PROBE_SPEED);
//  574   #define XY_PROBE_FEEDRATE_MM_S xy_probe_feedrate_mm_s
//  575 #elif defined(XY_PROBE_SPEED)
//  576   #define XY_PROBE_FEEDRATE_MM_S MMM_TO_MMS(XY_PROBE_SPEED)
//  577 #else
//  578   #define XY_PROBE_FEEDRATE_MM_S PLANNER_XY_FEEDRATE()
//  579 #endif
//  580 
//  581 #if ENABLED(AUTO_BED_LEVELING_BILINEAR)
//  582   #if ENABLED(DELTA)
//  583     #define ADJUST_DELTA(V) \ 
//  584       if (planner.leveling_active) { \ 
//  585         const float zadj = bilinear_z_offset(V); \ 
//  586         delta[A_AXIS] += zadj; \ 
//  587         delta[B_AXIS] += zadj; \ 
//  588         delta[C_AXIS] += zadj; \ 
//  589       }
//  590   #else
//  591     #define ADJUST_DELTA(V) if (planner.leveling_active) { delta[Z_AXIS] += bilinear_z_offset(V); }
//  592   #endif
//  593 #elif IS_KINEMATIC
//  594   #define ADJUST_DELTA(V) NOOP
//  595 #endif
//  596 
//  597 #if ENABLED(X_DUAL_ENDSTOPS)
//  598   float x_endstop_adj;                // Initialized by settings.load()
//  599 #endif
//  600 #if ENABLED(Y_DUAL_ENDSTOPS)
//  601   float y_endstop_adj;                // Initialized by settings.load()
//  602 #endif
//  603 #if ENABLED(Z_DUAL_ENDSTOPS)
//  604   float z_endstop_adj;                // Initialized by settings.load()
//  605 #endif
//  606 
//  607 // Extruder offsets
//  608 #if HOTENDS > 1
//  609   float hotend_offset[XYZ][HOTENDS];  // Initialized by settings.load()
//  610 #endif
//  611 
//  612 #if HAS_Z_SERVO_ENDSTOP
//  613   const int z_servo_angle[2] = Z_SERVO_ANGLES;
//  614 #endif
//  615 
//  616 #if ENABLED(BARICUDA)
//  617   uint8_t baricuda_valve_pressure = 0,
//  618           baricuda_e_to_p_pressure = 0;
//  619 #endif
//  620 
//  621 #if ENABLED(FWRETRACT)                      // Initialized by settings.load()...
//  622   bool autoretract_enabled,                 // M209 S - Autoretract switch
//  623        retracted[EXTRUDERS] = { false };    // Which extruders are currently retracted
//  624   float retract_length,                     // M207 S - G10 Retract length
//  625         retract_feedrate_mm_s,              // M207 F - G10 Retract feedrate
//  626         retract_zlift,                      // M207 Z - G10 Retract hop size
//  627         retract_recover_length,             // M208 S - G11 Recover length
//  628         retract_recover_feedrate_mm_s,      // M208 F - G11 Recover feedrate
//  629         swap_retract_length,                // M207 W - G10 Swap Retract length
//  630         swap_retract_recover_length,        // M208 W - G11 Swap Recover length
//  631         swap_retract_recover_feedrate_mm_s; // M208 R - G11 Swap Recover feedrate
//  632   #if EXTRUDERS > 1
//  633     bool retracted_swap[EXTRUDERS] = { false }; // Which extruders are swap-retracted
//  634   #else
//  635     constexpr bool retracted_swap[1] = { false };
//  636   #endif
//  637 #endif // FWRETRACT
//  638 
//  639 #if HAS_POWER_SWITCH
//  640   bool powersupply_on =
//  641     #if ENABLED(PS_DEFAULT_OFF)
//  642       false
//  643     #else
//  644       true
//  645     #endif
//  646   ;
//  647 #endif
//  648 
//  649 #if ENABLED(DELTA)
//  650 
//  651   float delta[ABC];
//  652 
//  653   // Initialized by settings.load()
//  654   float delta_height,
//  655         delta_endstop_adj[ABC] = { 0 },
//  656         delta_radius,
//  657         delta_tower_angle_trim[ABC],
//  658         delta_tower[ABC][2],
//  659         delta_diagonal_rod,
//  660         delta_calibration_radius,
//  661         delta_diagonal_rod_2_tower[ABC],
//  662         delta_segments_per_second,
//  663         delta_clip_start_height = Z_MAX_POS;
//  664 
//  665   float delta_safe_distance_from_top();
//  666 
//  667 #endif
//  668 
//  669 #if ENABLED(AUTO_BED_LEVELING_BILINEAR)
//  670   int bilinear_grid_spacing[2], bilinear_start[2];
//  671   float bilinear_grid_factor[2],
//  672         z_values[GRID_MAX_POINTS_X][GRID_MAX_POINTS_Y];
//  673 #endif
//  674 
//  675 #if IS_SCARA
//  676   // Float constants for SCARA calculations
//  677   const float L1 = SCARA_LINKAGE_1, L2 = SCARA_LINKAGE_2,
//  678               L1_2 = sq(float(L1)), L1_2_2 = 2.0 * L1_2,
//  679               L2_2 = sq(float(L2));
//  680 
//  681   float delta_segments_per_second = SCARA_SEGMENTS_PER_SECOND,
//  682         delta[ABC];
//  683 #endif
//  684 
//  685 float cartes[XYZ] = { 0 };
//  686 
//  687 #if ENABLED(FILAMENT_WIDTH_SENSOR)
//  688   bool filament_sensor = false;                                 // M405 turns on filament sensor control. M406 turns it off.
//  689   float filament_width_nominal = DEFAULT_NOMINAL_FILAMENT_DIA,  // Nominal filament width. Change with M404.
//  690         filament_width_meas = DEFAULT_MEASURED_FILAMENT_DIA;    // Measured filament diameter
//  691   uint8_t meas_delay_cm = MEASUREMENT_DELAY_CM;                 // Distance delay setting
//  692   int8_t measurement_delay[MAX_MEASUREMENT_DELAY + 1],          // Ring buffer to delayed measurement. Store extruder factor after subtracting 100
//  693          filwidth_delay_index[2] = { 0, -1 };                   // Indexes into ring buffer
//  694 #endif
//  695 
//  696 #if ENABLED(FILAMENT_RUNOUT_SENSOR)
//  697   static bool filament_ran_out = false;
//  698 #endif
//  699 
//  700 #if ENABLED(ADVANCED_PAUSE_FEATURE)
//  701   AdvancedPauseMenuResponse advanced_pause_menu_response;
//  702 #endif
//  703 
//  704 #if ENABLED(MIXING_EXTRUDER)
//  705   float mixing_factor[MIXING_STEPPERS]; // Reciprocal of mix proportion. 0.0 = off, otherwise >= 1.0.
//  706   #if MIXING_VIRTUAL_TOOLS > 1
//  707     float mixing_virtual_tool_mix[MIXING_VIRTUAL_TOOLS][MIXING_STEPPERS];
//  708   #endif
//  709 #endif
//  710 
//  711 static bool send_ok[BUFSIZE];
//  712 
//  713 #if HAS_SERVOS
//  714   Servo servo[NUM_SERVOS];
//  715   #define MOVE_SERVO(I, P) servo[I].move(P)
//  716   #if HAS_Z_SERVO_ENDSTOP
//  717     #define DEPLOY_Z_SERVO() MOVE_SERVO(Z_ENDSTOP_SERVO_NR, z_servo_angle[0])
//  718     #define STOW_Z_SERVO() MOVE_SERVO(Z_ENDSTOP_SERVO_NR, z_servo_angle[1])
//  719   #endif
//  720 #endif
//  721 
//  722 #ifdef CHDK
//  723   millis_t chdkHigh = 0;
//  724   bool chdkActive = false;
//  725 #endif
//  726 
//  727 #if ENABLED(PID_EXTRUSION_SCALING)
//  728   int lpq_len = 20;
//  729 #endif
//  730 
//  731 #if ENABLED(HOST_KEEPALIVE_FEATURE)
//  732   MarlinBusyState busy_state = NOT_BUSY;
//  733   static millis_t next_busy_signal_ms = 0;
//  734   uint8_t host_keepalive_interval = DEFAULT_KEEPALIVE_INTERVAL;
//  735 #else
//  736   #define host_keepalive() NOOP
//  737 #endif
//  738 
//  739 #if ENABLED(I2C_POSITION_ENCODERS)
//  740   I2CPositionEncodersMgr I2CPEM;
//  741   uint8_t blockBufferIndexRef = 0;
//  742   millis_t lastUpdateMillis;
//  743 #endif
//  744 
//  745 #if ENABLED(CNC_WORKSPACE_PLANES)
//  746   static WorkspacePlane workspace_plane = PLANE_XY;
//  747 #endif
//  748 
//  749 //FORCE_INLINE float pgm_read_any(const float *p) { return pgm_read_float_near(p); }
//  750 //FORCE_INLINE signed char pgm_read_any(const signed char *p) { return pgm_read_byte_near(p); }
//  751 static inline float pgm_read_any(const float *p) { return (*(const float *)(p)); }
//  752 static inline signed char pgm_read_any(const signed char *p) { return (*(const signed char *)(p)); }
//  753 /*P
//  754 #define XYZ_CONSTS_FROM_CONFIG(type, array, CONFIG) \ 
//  755   static const PROGMEM type array##_P[XYZ] = { X_##CONFIG, Y_##CONFIG, Z_##CONFIG }; \ 
//  756   static inline type array(const AxisEnum axis) { return pgm_read_any(&array##_P[axis]); } \ 
//  757   typedef void __void_##CONFIG##__
//  758 */
//  759 #define XYZ_CONSTS_FROM_CONFIG(type, array, CONFIG) \ 
//  760 	  type array##_P[XYZ] = { X_##CONFIG, Y_##CONFIG, Z_##CONFIG }; \ 
//  761 	  static inline type array(AxisEnum axis) { return (array##_P[axis]); } 
//  762 

        SECTION `.text`:CODE:NOROOT(1)
          CFI Block cfiBlock3 Using cfiCommon0
          CFI Function _Z12base_min_pos8AxisEnum
          CFI NoCalls
        THUMB
//  763 XYZ_CONSTS_FROM_CONFIG(float, base_min_pos,   MIN_POS);
_Z12base_min_pos8AxisEnum:
        LDR.W    R1,??DataTable92_7
        ADD      R0,R1,R0, LSL #+2
        VLDR     S0,[R0, #+4]
        BX       LR               ;; return
          CFI EndBlock cfiBlock3

        SECTION `.text`:CODE:NOROOT(1)
          CFI Block cfiBlock4 Using cfiCommon0
          CFI Function _Z12base_max_pos8AxisEnum
          CFI NoCalls
        THUMB
//  764 XYZ_CONSTS_FROM_CONFIG(float, base_max_pos,   MAX_POS);
_Z12base_max_pos8AxisEnum:
        LDR.W    R1,??DataTable92_7
        ADD      R0,R1,R0, LSL #+2
        VLDR     S0,[R0, #+16]
        BX       LR               ;; return
          CFI EndBlock cfiBlock4

        SECTION `.text`:CODE:NOROOT(1)
          CFI Block cfiBlock5 Using cfiCommon0
          CFI Function _Z13base_home_pos8AxisEnum
          CFI NoCalls
        THUMB
//  765 XYZ_CONSTS_FROM_CONFIG(float, base_home_pos,  HOME_POS);
_Z13base_home_pos8AxisEnum:
        LDR.W    R1,??DataTable92_7
        ADD      R0,R1,R0, LSL #+2
        VLDR     S0,[R0, #+28]
        BX       LR               ;; return
          CFI EndBlock cfiBlock5

        SECTION `.text`:CODE:NOROOT(1)
          CFI Block cfiBlock6 Using cfiCommon0
          CFI Function _Z10max_length8AxisEnum
          CFI NoCalls
        THUMB
//  766 XYZ_CONSTS_FROM_CONFIG(float, max_length,     MAX_LENGTH);
_Z10max_length8AxisEnum:
        LDR.W    R1,??DataTable92_7
        ADD      R0,R1,R0, LSL #+2
        VLDR     S0,[R0, #+40]
        BX       LR               ;; return
          CFI EndBlock cfiBlock6

        SECTION `.text`:CODE:NOROOT(1)
          CFI Block cfiBlock7 Using cfiCommon0
          CFI Function _Z12home_bump_mm8AxisEnum
          CFI NoCalls
        THUMB
//  767 XYZ_CONSTS_FROM_CONFIG(float, home_bump_mm,   HOME_BUMP_MM);
_Z12home_bump_mm8AxisEnum:
        LDR.W    R1,??DataTable95
        ADD      R0,R1,R0, LSL #+2
        VLDR     S0,[R0, #0]
        BX       LR               ;; return
          CFI EndBlock cfiBlock7

        SECTION `.text`:CODE:NOROOT(1)
          CFI Block cfiBlock8 Using cfiCommon0
          CFI Function _Z8home_dir8AxisEnum
          CFI NoCalls
        THUMB
//  768 XYZ_CONSTS_FROM_CONFIG(signed char, home_dir, HOME_DIR);
_Z8home_dir8AxisEnum:
        LDR.W    R1,??DataTable92_7
        LDRSB    R0,[R0, R1]
        BX       LR               ;; return
          CFI EndBlock cfiBlock8
//  769 
//  770 /**
//  771  * ***************************************************************************
//  772  * ******************************** FUNCTIONS ********************************
//  773  * ***************************************************************************
//  774  */
//  775 
//  776 void stop();
//  777 
//  778 void get_available_commands();
//  779 void process_next_command();
//  780 void process_parsed_command();
//  781 
//  782 void get_cartesian_from_steppers();
//  783 void set_current_from_steppers_for_axis(const AxisEnum axis);
//  784 
//  785 #if ENABLED(ARC_SUPPORT)
//  786   void plan_arc(const float (&cart)[XYZE], const float (&offset)[2], const bool clockwise);
//  787 #endif
//  788 
//  789 #if ENABLED(BEZIER_CURVE_SUPPORT)
//  790   void plan_cubic_move(const float (&offset)[4]);
//  791 #endif
//  792 
//  793 void tool_change(const uint8_t tmp_extruder, const float fr_mm_s=0.0, bool no_move=false);
//  794 void report_current_position();
//  795 void report_current_position_detail();
//  796 
//  797 #if ENABLED(DEBUG_LEVELING_FEATURE)
//  798   void print_xyz(const char* prefix, const char* suffix, const float x, const float y, const float z) {
//  799     serialprintPGM(prefix);
//  800     SERIAL_CHAR('(');
//  801     SERIAL_ECHO(x);
//  802     SERIAL_ECHOPAIR(", ", y);
//  803     SERIAL_ECHOPAIR(", ", z);
//  804     SERIAL_CHAR(')');
//  805     if (suffix) serialprintPGM(suffix); else SERIAL_EOL();
//  806   }
//  807 
//  808   void print_xyz(const char* prefix, const char* suffix, const float xyz[]) {
//  809     print_xyz(prefix, suffix, xyz[X_AXIS], xyz[Y_AXIS], xyz[Z_AXIS]);
//  810   }
//  811 
//  812   #if HAS_ABL
//  813     void print_xyz(const char* prefix, const char* suffix, const vector_3 &xyz) {
//  814       print_xyz(prefix, suffix, xyz.x, xyz.y, xyz.z);
//  815     }
//  816   #endif
//  817 
//  818   #define DEBUG_POS(SUFFIX,VAR) do { \ 
//  819     print_xyz(PSTR("  " STRINGIFY(VAR) "="), PSTR(" : " SUFFIX "\n"), VAR); }while(0)
//  820 #endif
//  821 
//  822 /**
//  823  * sync_plan_position
//  824  *
//  825  * Set the planner/stepper positions directly from current_position with
//  826  * no kinematic translation. Used for homing axes and cartesian/core syncing.
//  827  */

        SECTION `.text`:CODE:NOROOT(1)
          CFI Block cfiBlock9 Using cfiCommon0
          CFI Function _Z18sync_plan_positionv
        THUMB
//  828 void sync_plan_position() {
//  829   #if ENABLED(DEBUG_LEVELING_FEATURE)
//  830     if (DEBUGGING(LEVELING)) DEBUG_POS("sync_plan_position", current_position);
//  831   #endif
//  832   planner.set_position_mm(current_position[X_AXIS], current_position[Y_AXIS], current_position[Z_AXIS], current_position[E_AXIS]);
_Z18sync_plan_positionv:
        LDR.W    R1,??DataTable92_9
        ADD      R0,R1,#+44
        VLDR     S2,[R1, #+40]
        VLDR     S1,[R1, #+36]
        VLDR     S0,[R1, #+32]
          CFI FunCall _ZN7Planner15set_position_mmEfffRKf
        B.W      _ZN7Planner15set_position_mmEfffRKf
          CFI EndBlock cfiBlock9
//  833 }
//  834 inline void sync_plan_position_e() { planner.set_e_position_mm(current_position[E_AXIS]); }
//  835 
//  836 #if IS_KINEMATIC
//  837 
//  838   inline void sync_plan_position_kinematic() {
//  839     #if ENABLED(DEBUG_LEVELING_FEATURE)
//  840       if (DEBUGGING(LEVELING)) DEBUG_POS("sync_plan_position_kinematic", current_position);
//  841     #endif
//  842     planner.set_position_mm_kinematic(current_position);
//  843   }
//  844   #define SYNC_PLAN_POSITION_KINEMATIC() sync_plan_position_kinematic()
//  845 
//  846 #else
//  847 
//  848   #define SYNC_PLAN_POSITION_KINEMATIC() sync_plan_position()
//  849 
//  850 #endif
//  851 
//  852 #if 0//ENABLED(SDSUPPORT)
//  853   #include "SdFatUtil.h"
//  854   int freeMemory() { return SdFatUtil::FreeRam(); }
//  855 #else
//  856 /*
//  857 extern "C" {
//  858   extern char __bss_end;
//  859   extern char __heap_start;
//  860   extern void* __brkval;
//  861 
//  862   int freeMemory() {
//  863     int free_memory;
//  864     if ((int)__brkval == 0)
//  865       free_memory = ((int)&free_memory) - ((int)&__bss_end);
//  866     else
//  867       free_memory = ((int)&free_memory) - ((int)__brkval);
//  868     return free_memory;
//  869   }
//  870 }
//  871 */

        SECTION `.text`:CODE:NOROOT(1)
          CFI Block cfiBlock10 Using cfiCommon0
          CFI Function _Z10freeMemoryv
          CFI NoCalls
        THUMB
//  872 	int freeMemory() { return 4396; }	//No free ram management
_Z10freeMemoryv:
        MOVW     R0,#+4396
        BX       LR               ;; return
          CFI EndBlock cfiBlock10
//  873 
//  874 #endif // !SDSUPPORT
//  875 
//  876 #if ENABLED(DIGIPOT_I2C)
//  877   extern void digipot_i2c_set_current(uint8_t channel, float current);
//  878   extern void digipot_i2c_init();
//  879 #endif
//  880 
//  881 /**
//  882  * Inject the next "immediate" command, when possible, onto the front of the queue.
//  883  * Return true if any immediate commands remain to inject.
//  884  */

        SECTION `.text`:CODE:NOROOT(1)
          CFI Block cfiBlock11 Using cfiCommon0
          CFI Function _Z25drain_injected_commands_Pv
        THUMB
//  885 static bool drain_injected_commands_P() {
_Z25drain_injected_commands_Pv:
        PUSH     {R4-R6,LR}
          CFI R14 Frame(CFA, -4)
          CFI R6 Frame(CFA, -8)
          CFI R5 Frame(CFA, -12)
          CFI R4 Frame(CFA, -16)
          CFI CFA R13+16
        SUB      SP,SP,#+32
          CFI CFA R13+48
//  886   if (injected_commands_P != NULL) {
        LDR.W    R4,??DataTable95_1
        LDR      R1,[R4, #+0]
        CMP      R1,#+0
        BEQ.N    ??drain_injected_commands_P_0
//  887     size_t i = 0;
        MOVS     R5,#+0
//  888     char c, cmd[30];
//  889     //strncpy_P(cmd, injected_commands_P, sizeof(cmd) - 1);
//  890     strncpy(cmd, injected_commands_P, sizeof(cmd) - 1);	/*--mks--*/
        MOVS     R2,#+29
        ADD      R0,SP,#+0
          CFI FunCall strncpy
        BL       strncpy
//  891     cmd[sizeof(cmd) - 1] = '\0';
        ADD      R0,SP,#+0
        MOV      R1,R5
        STRB     R1,[R0, #+29]
        B.N      ??drain_injected_commands_P_1
//  892     while ((c = cmd[i]) && c != '\n') i++; // find the end of this gcode command
??drain_injected_commands_P_2:
        ADDS     R5,R5,#+1
??drain_injected_commands_P_1:
        LDRSB    R6,[R5, R0]
        CMP      R6,#+0
        BEQ.N    ??drain_injected_commands_P_3
        CMP      R6,#+10
        BNE.N    ??drain_injected_commands_P_2
//  893     cmd[i] = '\0';
??drain_injected_commands_P_3:
        STRB     R1,[R5, R0]
//  894     if (enqueue_and_echo_command(cmd))     // success?
          CFI FunCall _Z24enqueue_and_echo_commandPKcb
        BL       _Z24enqueue_and_echo_commandPKcb
        CMP      R0,#+0
        BEQ.N    ??drain_injected_commands_P_0
//  895       injected_commands_P = c ? injected_commands_P + i + 1 : NULL; // next command or done
        CMP      R6,#+0
        BEQ.N    ??drain_injected_commands_P_4
        LDR      R0,[R4, #+0]
        ADDS     R0,R5,R0
        ADDS     R0,R0,#+1
        STR      R0,[R4, #+0]
        B.N      ??drain_injected_commands_P_0
??drain_injected_commands_P_4:
        MOVS     R0,#+0
        STR      R0,[R4, #+0]
//  896   }
//  897   return (injected_commands_P != NULL);    // return whether any more remain
??drain_injected_commands_P_0:
        LDR      R0,[R4, #+0]
        CMP      R0,#+0
        BEQ.N    ??drain_injected_commands_P_5
        MOVS     R0,#+1
        B.N      ??drain_injected_commands_P_6
??drain_injected_commands_P_5:
        MOVS     R0,#+0
??drain_injected_commands_P_6:
        ADD      SP,SP,#+32
          CFI CFA R13+16
        POP      {R4-R6,PC}       ;; return
          CFI EndBlock cfiBlock11
//  898 }
//  899 
//  900 /**
//  901  * Record one or many commands to run from program memory.
//  902  * Aborts the current queue, if any.
//  903  * Note: drain_injected_commands_P() must be called repeatedly to drain the commands afterwards
//  904  */

        SECTION `.text`:CODE:NOROOT(1)
          CFI Block cfiBlock12 Using cfiCommon0
          CFI Function _Z27enqueue_and_echo_commands_PPKc
        THUMB
//  905 void enqueue_and_echo_commands_P(const char * const pgcode) {
//  906   injected_commands_P = pgcode;
_Z27enqueue_and_echo_commands_PPKc:
        LDR.W    R1,??DataTable95_1
        STR      R0,[R1, #+0]
//  907   drain_injected_commands_P(); // first command executed asap (when possible)
          CFI FunCall _Z25drain_injected_commands_Pv
        B.N      _Z25drain_injected_commands_Pv
          CFI EndBlock cfiBlock12
//  908 }
//  909 
//  910 /**
//  911  * Clear the Marlin command queue
//  912  */

        SECTION `.text`:CODE:NOROOT(1)
          CFI Block cfiBlock13 Using cfiCommon0
          CFI Function _Z19clear_command_queuev
          CFI NoCalls
        THUMB
//  913 void clear_command_queue() {
//  914   cmd_queue_index_r = cmd_queue_index_w;
_Z19clear_command_queuev:
        LDR.W    R0,??DataTable92_9
        LDRB     R1,[R0, #+16]
        STRB     R1,[R0, #+15]
//  915   commands_in_queue = 0;
        MOVS     R1,#+0
        STRB     R1,[R0, #+14]
//  916 }
        BX       LR               ;; return
          CFI EndBlock cfiBlock13
//  917 
//  918 /**
//  919  * Once a new command is in the ring buffer, call this to commit it
//  920  */
//  921 inline void _commit_command(bool say_ok) {
//  922   send_ok[cmd_queue_index_w] = say_ok;
//  923   if (++cmd_queue_index_w >= BUFSIZE) cmd_queue_index_w = 0;
//  924   commands_in_queue++;
//  925 }
//  926 
//  927 /**
//  928  * Copy a command from RAM into the main command buffer.
//  929  * Return true if the command was successfully added.
//  930  * Return false for a full buffer, or if the 'command' is a comment.
//  931  */
//  932 inline bool _enqueuecommand(const char* cmd, bool say_ok=false) {
//  933   if (*cmd == ';' || commands_in_queue >= BUFSIZE) return false;
//  934   strcpy(command_queue[cmd_queue_index_w], cmd);
//  935   _commit_command(say_ok);
//  936   return true;
//  937 }
//  938 
//  939 /**
//  940  * Enqueue with Serial Echo
//  941  */

        SECTION `.text`:CODE:NOROOT(1)
          CFI Block cfiBlock14 Using cfiCommon0
          CFI Function _Z24enqueue_and_echo_commandPKcb
        THUMB
//  942 bool enqueue_and_echo_command(const char* cmd, bool say_ok/*=false*/) {
_Z24enqueue_and_echo_commandPKcb:
        PUSH     {R4,LR}
          CFI R14 Frame(CFA, -4)
          CFI R4 Frame(CFA, -8)
          CFI CFA R13+8
        MOV      R4,R0
//  943   if (_enqueuecommand(cmd, say_ok)) {
          CFI FunCall _Z15_enqueuecommandPKcb
        BL       _Z15_enqueuecommandPKcb
        CMP      R0,#+0
        BEQ.N    ??enqueue_and_echo_command_0
//  944     SERIAL_ECHO_START();
        LDR.W    R0,??DataTable95_2
          CFI FunCall _Z14serialprintPGMPKc
        BL       _Z14serialprintPGMPKc
//  945     SERIAL_ECHOPAIR(MSG_ENQUEUEING, cmd);
        MOV      R1,R4
        ADR.W    R0,`?<Constant "enqueueing \\"">`
          CFI FunCall _Z17serial_echopair_PPKcS0_
        BL       _Z17serial_echopair_PPKcS0_
//  946     SERIAL_CHAR('"');
        LDR.W    R4,??DataTable97
        MOVS     R1,#+34
        MOV      R0,R4
          CFI FunCall _ZN10USARTClass5writeEh
        BL       _ZN10USARTClass5writeEh
//  947     SERIAL_EOL();
        MOVS     R1,#+10
        MOV      R0,R4
          CFI FunCall _ZN10USARTClass5writeEh
        BL       _ZN10USARTClass5writeEh
//  948     return true;
        MOVS     R0,#+1
        POP      {R4,PC}
//  949   }
//  950   return false;
??enqueue_and_echo_command_0:
        MOVS     R0,#+0
        POP      {R4,PC}          ;; return
          CFI EndBlock cfiBlock14
//  951 }

        SECTION `.text`:CODE:NOROOT(2)
        SECTION_TYPE SHT_PROGBITS, 0
        DATA
`?<Constant "enqueueing \\"">`:
        DC8 "enqueueing \""
        DC8 0, 0, 0
//  952 

        SECTION `.text`:CODE:NOROOT(1)
          CFI Block cfiBlock15 Using cfiCommon0
          CFI Function _Z13setup_killpinv
          CFI NoCalls
        THUMB
//  953 void setup_killpin() {
//  954   #if HAS_KILL
//  955     SET_INPUT_PULLUP(KILL_PIN);
//  956   #endif
//  957 }
_Z13setup_killpinv:
        BX       LR               ;; return
          CFI EndBlock cfiBlock15
//  958 
//  959 #if ENABLED(FILAMENT_RUNOUT_SENSOR)
//  960 
//  961   void setup_filrunoutpin() {
//  962     #if ENABLED(ENDSTOPPULLUP_FIL_RUNOUT)
//  963       SET_INPUT_PULLUP(FIL_RUNOUT_PIN);
//  964     #else
//  965       SET_INPUT(FIL_RUNOUT_PIN);
//  966     #endif
//  967   }
//  968 
//  969 #endif
//  970 

        SECTION `.text`:CODE:NOROOT(1)
          CFI Block cfiBlock16 Using cfiCommon0
          CFI Function _Z15setup_powerholdv
          CFI NoCalls
        THUMB
//  971 void setup_powerhold() {
//  972   #if HAS_SUICIDE
//  973     OUT_WRITE(SUICIDE_PIN, HIGH);
//  974   #endif
//  975   #if HAS_POWER_SWITCH
//  976     #if ENABLED(PS_DEFAULT_OFF)
//  977       OUT_WRITE(PS_ON_PIN, PS_ON_ASLEEP);
//  978     #else
//  979       OUT_WRITE(PS_ON_PIN, PS_ON_AWAKE);
//  980     #endif
//  981   #endif
//  982 }
_Z15setup_powerholdv:
        BX       LR               ;; return
          CFI EndBlock cfiBlock16
//  983 

        SECTION `.text`:CODE:NOROOT(1)
          CFI Block cfiBlock17 Using cfiCommon0
          CFI Function _Z7suicidev
          CFI NoCalls
        THUMB
//  984 void suicide() {
//  985   #if HAS_SUICIDE
//  986     OUT_WRITE(SUICIDE_PIN, LOW);
//  987   #endif
//  988 }
_Z7suicidev:
        BX       LR               ;; return
          CFI EndBlock cfiBlock17
//  989 

        SECTION `.text`:CODE:NOROOT(1)
          CFI Block cfiBlock18 Using cfiCommon0
          CFI Function _Z10servo_initv
          CFI NoCalls
        THUMB
//  990 void servo_init() {
//  991   #if NUM_SERVOS >= 1 && HAS_SERVO_0
//  992     servo[0].attach(SERVO0_PIN);
//  993     servo[0].detach(); // Just set up the pin. We don't have a position yet. Don't move to a random position.
//  994   #endif
//  995   #if NUM_SERVOS >= 2 && HAS_SERVO_1
//  996     servo[1].attach(SERVO1_PIN);
//  997     servo[1].detach();
//  998   #endif
//  999   #if NUM_SERVOS >= 3 && HAS_SERVO_2
// 1000     servo[2].attach(SERVO2_PIN);
// 1001     servo[2].detach();
// 1002   #endif
// 1003   #if NUM_SERVOS >= 4 && HAS_SERVO_3
// 1004     servo[3].attach(SERVO3_PIN);
// 1005     servo[3].detach();
// 1006   #endif
// 1007 
// 1008   #if HAS_Z_SERVO_ENDSTOP
// 1009     /**
// 1010      * Set position of Z Servo Endstop
// 1011      *
// 1012      * The servo might be deployed and positioned too low to stow
// 1013      * when starting up the machine or rebooting the board.
// 1014      * There's no way to know where the nozzle is positioned until
// 1015      * homing has been done - no homing with z-probe without init!
// 1016      *
// 1017      */
// 1018     STOW_Z_SERVO();
// 1019   #endif
// 1020 }
_Z10servo_initv:
        BX       LR               ;; return
          CFI EndBlock cfiBlock18
// 1021 
// 1022 /**
// 1023  * Stepper Reset (RigidBoard, et.al.)
// 1024  */
// 1025 #if HAS_STEPPER_RESET
// 1026   void disableStepperDrivers() {
// 1027     OUT_WRITE(STEPPER_RESET_PIN, LOW);  // drive it down to hold in reset motor driver chips
// 1028   }
// 1029   void enableStepperDrivers() { SET_INPUT(STEPPER_RESET_PIN); }  // set to input, which allows it to be pulled high by pullups
// 1030 #endif
// 1031 
// 1032 #if ENABLED(EXPERIMENTAL_I2CBUS) && I2C_SLAVE_ADDRESS > 0
// 1033 
// 1034   void i2c_on_receive(int bytes) { // just echo all bytes received to serial
// 1035     i2c.receive(bytes);
// 1036   }
// 1037 
// 1038   void i2c_on_request() {          // just send dummy data for now
// 1039     i2c.reply("Hello World!\n");
// 1040   }
// 1041 
// 1042 #endif
// 1043 

        SECTION `.text`:CODE:NOROOT(1)
          CFI Block cfiBlock19 Using cfiCommon0
          CFI Function _Z16gcode_line_errorPKcb
        THUMB
// 1044 void gcode_line_error(const char* err, bool doFlush = true) {
_Z16gcode_line_errorPKcb:
        PUSH     {R4-R6,LR}
          CFI R14 Frame(CFA, -4)
          CFI R6 Frame(CFA, -8)
          CFI R5 Frame(CFA, -12)
          CFI R4 Frame(CFA, -16)
          CFI CFA R13+16
        MOV      R4,R0
        MOV      R5,R1
// 1045   SERIAL_ERROR_START();
        LDR.W    R0,??DataTable95_3
          CFI FunCall _Z14serialprintPGMPKc
        BL       _Z14serialprintPGMPKc
// 1046   serialprintPGM(err);
        MOV      R0,R4
          CFI FunCall _Z14serialprintPGMPKc
        BL       _Z14serialprintPGMPKc
// 1047   SERIAL_ERRORLN(gcode_LastN);
        LDR.W    R4,??DataTable97
        LDR.W    R6,??DataTable98
        MOVS     R2,#+10
        LDR      R1,[R6, #+4]
        MOV      R0,R4
          CFI FunCall _ZN5Print5printEli
        BL       _ZN5Print5printEli
        MOVS     R1,#+10
        MOV      R0,R4
          CFI FunCall _ZN10USARTClass5writeEh
        BL       _ZN10USARTClass5writeEh
// 1048   //Serial.println(gcode_N);
// 1049   if (doFlush) FlushSerialRequestResend();
        CMP      R5,#+0
        BEQ.N    ??gcode_line_error_0
          CFI FunCall _Z24FlushSerialRequestResendv
        BL       _Z24FlushSerialRequestResendv
// 1050   serial_count = 0;
??gcode_line_error_0:
        MOVS     R0,#+0
        STR      R0,[R6, #+12]
// 1051 }
        POP      {R4-R6,PC}       ;; return
          CFI EndBlock cfiBlock19

        SECTION `.data`:DATA:REORDER:NOROOT(2)
axis_relative_modes:
        DATA
        DC8 0, 0, 0, 0
axis_homed:
        DC8 0, 0, 0, 0
axis_known_position:
        DC8 0, 0, 0, 0
mks_heating_busy:
        DC8 0
marlin_debug_flags:
        DC8 0
commands_in_queue:
        DC8 0
        DC8 0
        DC8 0
soft_endstops_enabled:
        DC8 1
active_extruder:
        DC8 0
        DC8 0
wait_for_heatup:
        DC8 1
target_extruder:
        DC8 0
// 1052 
// 1053 uint8_t serial_wait_tick = 0; //use to calculate the serial wait ticks
serial_wait_tick:
        DC8 0
        DC8 0
        DC8 0, 0, 0, 0
feedrate_percentage:
        DC16 100
saved_feedrate_percentage:
        DC8 0, 0
current_position:
        DC32 0H
        DC8 0, 0, 0, 0, 0, 0, 0, 0, 0, 0, 0, 0
destination:
        DC32 0H
        DC8 0, 0, 0, 0, 0, 0, 0, 0, 0, 0, 0, 0
homing_feedrate_mm_s:
        DC8 0, 0, 0, 0, 0, 0, 0, 0, 0, 0, 0, 0, 0, 0, 0, 0
home_offset:
        DC32 0H
        DC8 0, 0, 0, 0, 0, 0, 0, 0
soft_endstop_min:
        DC8 0, 0, 0, 0, 0, 0, 0, 0, 0, 0, 0, 0
soft_endstop_max:
        DC8 0, 0, 0, 0, 0, 0, 0, 0, 0, 0, 0, 0
        DC8 0, 0, 0, 0
feedrate_mm_s:
        DC32 41C80000H
        DC8 0, 0, 0, 0
position_shift:
        DC32 0H
        DC8 0, 0, 0, 0, 0, 0, 0, 0
        DC8 0, 0, 0, 0, 0, 0, 0, 0, 0, 0, 0, 0, 0, 0, 0, 0
        DC8 0, 0, 0, 0, 0, 0, 0, 0, 0, 0, 0, 0, 0, 0, 0, 0
        DC8 0, 0, 0, 0, 0, 0, 0, 0, 0, 0, 0, 0, 0, 0, 0, 0
        DC8 0, 0, 0, 0, 0, 0, 0, 0, 0, 0, 0, 0, 0, 0, 0, 0
        DC8 0, 0, 0, 0, 0, 0, 0, 0, 0, 0, 0, 0, 0, 0, 0, 0
        DC8 0, 0, 0, 0, 0, 0, 0, 0, 0, 0, 0, 0, 0, 0, 0, 0
        DC8 0, 0, 0, 0, 0, 0, 0, 0, 0, 0, 0, 0, 0, 0, 0, 0
        DC8 0, 0, 0, 0, 0, 0, 0, 0, 0, 0, 0, 0, 0, 0, 0, 0
        DC8 0, 0, 0, 0, 0, 0, 0, 0, 0, 0, 0, 0, 0, 0, 0, 0
        DC8 0, 0, 0, 0, 0, 0, 0, 0, 0, 0, 0, 0, 0, 0, 0, 0
        DC8 0, 0, 0, 0, 0, 0, 0, 0, 0, 0, 0, 0, 0, 0, 0, 0
        DC8 0, 0, 0, 0, 0, 0, 0, 0, 0, 0, 0, 0, 0, 0, 0, 0
        DC8 0, 0, 0, 0, 0, 0, 0, 0, 0, 0, 0, 0, 0, 0, 0, 0
        DC8 0, 0, 0, 0, 0, 0, 0, 0, 0, 0, 0, 0, 0, 0, 0, 0
        DC8 0, 0, 0, 0, 0, 0, 0, 0, 0, 0, 0, 0, 0, 0, 0, 0
        DC8 0, 0, 0, 0, 0, 0, 0, 0, 0, 0, 0, 0, 0, 0, 0, 0
        DC8 0, 0, 0, 0, 0, 0, 0, 0, 0, 0, 0, 0, 0, 0, 0, 0
        DC8 0, 0, 0, 0, 0, 0, 0, 0, 0, 0, 0, 0, 0, 0, 0, 0
        DC8 0, 0, 0, 0, 0, 0, 0, 0, 0, 0, 0, 0, 0, 0, 0, 0
        DC8 0, 0, 0, 0, 0, 0, 0, 0, 0, 0, 0, 0, 0, 0, 0, 0
        DC8 0, 0, 0, 0, 0, 0, 0, 0, 0, 0, 0, 0, 0, 0, 0, 0
        DC8 0, 0, 0, 0, 0, 0, 0, 0, 0, 0, 0, 0, 0, 0, 0, 0
        DC8 0, 0, 0, 0, 0, 0, 0, 0, 0, 0, 0, 0, 0, 0, 0, 0
        DC8 0, 0, 0, 0, 0, 0, 0, 0, 0, 0, 0, 0, 0, 0, 0, 0

        SECTION `.data`:DATA:REORDER:NOROOT(2)
Running:
        DATA
        DC8 1
        DC8 0, 0, 0
        DC8 0, 0, 0, 0
        DC32 0
        DC32 0

        SECTION `.data`:DATA:REORDER:NOROOT(2)
home_dir_P:
        DATA
        DC8 -1, -1, 0, 0
base_min_pos_P:
        DC32 0H, 0H, 0H
base_max_pos_P:
        DC32 43480000H, 43480000H, 0H
base_home_pos_P:
        DC32 0H, 0H, 0H
max_length_P:
        DC32 43480000H, 43480000H, 0H

        SECTION `.data`:DATA:REORDER:NOROOT(2)
home_bump_mm_P:
        DATA
        DC32 40A00000H, 40A00000H, 40A00000H
// 1054 
// 1055 
// 1056 /**
// 1057  * Get all commands waiting on the serial port and queue them.
// 1058  * Exit when the buffer is full or when no more characters are
// 1059  * left on the serial port.
// 1060  */
// 1061 inline void get_serial_commands() {
// 1062   static char serial_line_buffer[MAX_CMD_SIZE];
// 1063   static bool serial_comment_mode = false;
// 1064   static millis_t last_wait_time = 0;
// 1065   const millis_t wait_ms = millis();
// 1066 
// 1067   // If the command buffer is empty for too long,
// 1068   // send "wait" to indicate Marlin is still waiting.
// 1069   #if defined(NO_TIMEOUTS) && NO_TIMEOUTS > 0
// 1070     static millis_t last_command_time = 0;
// 1071     const millis_t ms = millis();
// 1072     if (commands_in_queue == 0 && !MYSERIAL.available() && ELAPSED(ms, last_command_time + NO_TIMEOUTS)) {
// 1073       SERIAL_ECHOLNPGM(MSG_WAIT);
// 1074       last_command_time = ms;
// 1075     }
// 1076   #endif
// 1077 #if 1
// 1078   
// 1079 	  /*5s?¡§?2a2?|¨¬?????¡§2¡§oy?Y?¡§¡ã¡§¡§??a??¡§?D¡§¡éa?¡§2?????¨º??¡§|¡§o1¡§??wifi*/
// 1080 	 if (commands_in_queue == 0 && !MYSERIAL.available() && ELAPSED(wait_ms, last_wait_time + 1000)) {
// 1081 		if(serial_wait_tick <= 5)
// 1082 	  {
// 1083 		  serial_wait_tick ++;
// 1084 	  }
// 1085 		last_wait_time = wait_ms;
// 1086 	  }
// 1087 #endif
// 1088 
// 1089   /**
// 1090    * Loop while serial characters are incoming and the queue is not full
// 1091    */
// 1092   int c;
// 1093   while (commands_in_queue < BUFSIZE && (c = MYSERIAL.read()) >= 0) {
// 1094 
// 1095     char serial_char = c;
// 1096 	
// 1097 	serial_wait_tick = 0;
// 1098 
// 1099     /**
// 1100      * If the character ends the line
// 1101      */
// 1102     if (serial_char == '\n' || serial_char == '\r') {
// 1103 
// 1104       serial_comment_mode = false;                      // end of line == end of comment
// 1105 
// 1106       if (!serial_count) continue;                      // Skip empty lines
// 1107 
// 1108       serial_line_buffer[serial_count] = 0;             // Terminate string
// 1109       serial_count = 0;                                 // Reset buffer
// 1110 
// 1111       char* command = serial_line_buffer;
// 1112 
// 1113       while (*command == ' ') command++;                // Skip leading spaces
// 1114       char *npos = (*command == 'N') ? command : NULL;  // Require the N parameter to start the line
// 1115 
// 1116       if (npos) {
// 1117 
// 1118         bool M110 = strstr_P(command, PSTR("M110")) != NULL;
// 1119 
// 1120         if (M110) {
// 1121           char* n2pos = strchr(command + 4, 'N');
// 1122           if (n2pos) npos = n2pos;
// 1123         }
// 1124 
// 1125         gcode_N = strtol(npos + 1, NULL, 10);
// 1126 
// 1127         if (gcode_N != gcode_LastN + 1 && !M110) {
// 1128           gcode_line_error(PSTR(MSG_ERR_LINE_NO));
// 1129           return;
// 1130         }
// 1131 
// 1132         char *apos = strrchr(command, '*');
// 1133         if (apos) {
// 1134           uint8_t checksum = 0, count = uint8_t(apos - command);
// 1135           while (count) checksum ^= command[--count];
// 1136           if (strtol(apos + 1, NULL, 10) != checksum) {
// 1137             gcode_line_error(PSTR(MSG_ERR_CHECKSUM_MISMATCH));
// 1138             return;
// 1139           }
// 1140         }
// 1141         else {
// 1142           gcode_line_error(PSTR(MSG_ERR_NO_CHECKSUM));
// 1143           return;
// 1144         }
// 1145 
// 1146         gcode_LastN = gcode_N;
// 1147       }
// 1148 
// 1149       // Movement commands alert when stopped
// 1150       if (IsStopped()) {
// 1151         char* gpos = strchr(command, 'G');
// 1152         if (gpos) {
// 1153           const int codenum = strtol(gpos + 1, NULL, 10);
// 1154           switch (codenum) {
// 1155             case 0:
// 1156             case 1:
// 1157             case 2:
// 1158             case 3:
// 1159               SERIAL_ERRORLNPGM(MSG_ERR_STOPPED);
// 1160               LCD_MESSAGEPGM(MSG_STOPPED);
// 1161               break;
// 1162           }
// 1163         }
// 1164       }
// 1165 
// 1166       #if DISABLED(EMERGENCY_PARSER)
// 1167         // If command was e-stop process now
// 1168         if (strcmp(command, "M108") == 0) {
// 1169           wait_for_heatup = false;
// 1170           #if ENABLED(ULTIPANEL)
// 1171             wait_for_user = false;
// 1172           #endif
// 1173         }
// 1174         if (strcmp(command, "M112") == 0) kill(PSTR(MSG_KILLED));
// 1175         if (strcmp(command, "M410") == 0) { quickstop_stepper(); }
// 1176       #endif
// 1177 
// 1178       #if defined(NO_TIMEOUTS) && NO_TIMEOUTS > 0
// 1179         last_command_time = ms;
// 1180       #endif
// 1181 
// 1182       // Add the command to the queue
// 1183       _enqueuecommand(serial_line_buffer, true);
// 1184     }
// 1185     else if (serial_count >= MAX_CMD_SIZE - 1) {
// 1186       // Keep fetching, but ignore normal characters beyond the max length
// 1187       // The command will be injected when EOL is reached
// 1188     }
// 1189     else if (serial_char == '\\') {  // Handle escapes
// 1190       if ((c = MYSERIAL.read()) >= 0) {
// 1191         // if we have one more character, copy it over
// 1192         serial_char = c;
// 1193         if (!serial_comment_mode) serial_line_buffer[serial_count++] = serial_char;
// 1194       }
// 1195       // otherwise do nothing
// 1196     }
// 1197     else { // it's not a newline, carriage return or escape char
// 1198       if (serial_char == ';') serial_comment_mode = true;
// 1199       if (!serial_comment_mode) serial_line_buffer[serial_count++] = serial_char;
// 1200     }
// 1201 
// 1202   } // queue has space, serial has data
// 1203 }
// 1204 
// 1205 #if ENABLED(SDSUPPORT)
// 1206 
// 1207   /**
// 1208    * Get commands from the SD Card until the command buffer is full
// 1209    * or until the end of the file is reached. The special character '#'
// 1210    * can also interrupt buffering.
// 1211    */
// 1212   inline void get_sdcard_commands() {
// 1213     static bool stop_buffering = false,
// 1214                 sd_comment_mode = false;
// 1215 
// 1216     if (!card.sdprinting) return;
// 1217 
// 1218     /**
// 1219      * '#' stops reading from SD to the buffer prematurely, so procedural
// 1220      * macro calls are possible. If it occurs, stop_buffering is triggered
// 1221      * and the buffer is run dry; this character _can_ occur in serial com
// 1222      * due to checksums, however, no checksums are used in SD printing.
// 1223      */
// 1224 
// 1225     if (commands_in_queue == 0) stop_buffering = false;
// 1226 
// 1227     uint16_t sd_count = 0;
// 1228     bool card_eof = card.eof();
// 1229     while (commands_in_queue < BUFSIZE && !card_eof && !stop_buffering) {
// 1230       const int16_t n = card.get();
// 1231       char sd_char = (char)n;
// 1232       card_eof = card.eof();
// 1233       if (card_eof || n == -1
// 1234           || sd_char == '\n' || sd_char == '\r'
// 1235           || ((sd_char == '#' || sd_char == ':') && !sd_comment_mode)
// 1236       ) {
// 1237         if (card_eof) {
// 1238           gCfgItems.breakpoint_reprint_flg = 0;
// 1239           gCfgItems.breakpoint_z_pos = 0;
// 1240 
// 1241           card.printingHasFinished();
// 1242 
// 1243           if (card.sdprinting)
// 1244             sd_count = 0; // If a sub-file was printing, continue from call point
// 1245           else {
// 1246             SERIAL_PROTOCOLLNPGM(MSG_FILE_PRINTED);
// 1247             #if ENABLED(PRINTER_EVENT_LEDS)
// 1248               LCD_MESSAGEPGM(MSG_INFO_COMPLETED_PRINTS);
// 1249               leds.set_green();
// 1250               #if HAS_RESUME_CONTINUE
// 1251                 enqueue_and_echo_commands_P(PSTR("M0")); // end of the queue!
// 1252               #else
// 1253                 safe_delay(1000);
// 1254               #endif
// 1255               leds.set_off();
// 1256             #endif
// 1257             card.checkautostart(true);
// 1258 			
// 1259 			#if 1
// 1260 			
// 1261 			
// 1262 			//¡ä¨°¨ª¨º1??¨²?¡ê
// 1263 			if((gCfgItems.print_finish_close_machine_flg == 1)&&(IsChooseAutoShutdown==1))
// 1264 			    Close_machine_display();
// 1265 
// 1266             #endif 				
// 1267           }
// 1268         }
// 1269         else if (n == -1) {
// 1270           SERIAL_ERROR_START();
// 1271           SERIAL_ECHOLNPGM(MSG_SD_ERR_READ);
// 1272         }
// 1273         if (sd_char == '#') stop_buffering = true;
// 1274 
// 1275         sd_comment_mode = false; // for new command
// 1276 
// 1277         if (!sd_count) continue; // skip empty lines (and comment lines)
// 1278 
// 1279         command_queue[cmd_queue_index_w][sd_count] = '\0'; // terminate string
// 1280         sd_count = 0; // clear sd line buffer
// 1281 
// 1282         _commit_command(false);
// 1283       }
// 1284       else if (sd_count >= MAX_CMD_SIZE - 1) {
// 1285         /**
// 1286          * Keep fetching, but ignore normal characters beyond the max length
// 1287          * The command will be injected when EOL is reached
// 1288          */
// 1289       }
// 1290       else {
// 1291         if (sd_char == ';') sd_comment_mode = true;
// 1292         //if (!sd_comment_mode) command_queue[cmd_queue_index_w][sd_count++] = sd_char;
// 1293         if (!sd_comment_mode) 
// 1294         {
// 1295 			command_queue[cmd_queue_index_w][sd_count++] = sd_char;
// 1296 #if 0	//mks dlp			
// 1297 			if(sd_char == 0x5a ) //"Z"
// 1298 			{
// 1299 				mksReprint.sdpos = card.getsdpos()-3;	//"¡¤?2?????"
// 1300 				#if 1
// 1301 				mksReprint.sdpos_bak = mksReprint.sdpos;//sdpos_bak¦Ì?¨¨Y??¦Ì?¡ê????¡ä¨º1¨®?
// 1302 				if(gCfgItems.pwroff_save_mode != 1)//sd?¡§¡À¡ê¡ä???¦Ì?¨ºy?Y
// 1303                 #endif
// 1304 					mksReprint.refresh = true;
// 1305 			}
// 1306 #endif			
// 1307         }        
// 1308       }
// 1309     }
// 1310   }
// 1311 
// 1312 #endif // SDSUPPORT
// 1313 
// 1314 /**
// 1315  * Add to the circular command queue the next command from:
// 1316  *  - The command-injection queue (injected_commands_P)
// 1317  *  - The active serial input (usually USB)
// 1318  *  - The SD card file being actively printed
// 1319  */

        SECTION `.text`:CODE:NOROOT(1)
          CFI Block cfiBlock20 Using cfiCommon0
          CFI Function _Z22get_available_commandsv
        THUMB
// 1320 void get_available_commands() {
_Z22get_available_commandsv:
        PUSH     {R7,LR}
          CFI R14 Frame(CFA, -4)
          CFI CFA R13+8
// 1321 
// 1322   // if any immediate commands remain, don't get other commands yet
// 1323   if (drain_injected_commands_P()) return;
          CFI FunCall _Z25drain_injected_commands_Pv
        BL       _Z25drain_injected_commands_Pv
        CMP      R0,#+0
        BNE.N    ??get_available_commands_0
// 1324 
// 1325   get_serial_commands();
        POP      {R0,LR}
          CFI R14 SameValue
          CFI CFA R13+0
          CFI FunCall _Z19get_serial_commandsv
        B.W      _Z19get_serial_commandsv
          CFI R14 Frame(CFA, -4)
          CFI CFA R13+8
??get_available_commands_0:
        POP      {R0,PC}          ;; return
          CFI EndBlock cfiBlock20
// 1326   
// 1327   #if ENABLED(SDSUPPORT) && DISABLED(MKS_DLP_BOARD)
// 1328     get_sdcard_commands();
// 1329   #endif
// 1330 }
// 1331 
// 1332 /**
// 1333  * Set target_extruder from the T parameter or the active_extruder
// 1334  *
// 1335  * Returns TRUE if the target is invalid
// 1336  */

        SECTION `.text`:CODE:NOROOT(1)
          CFI Block cfiBlock21 Using cfiCommon0
          CFI Function _Z32get_target_extruder_from_commandt
        THUMB
// 1337 bool get_target_extruder_from_command(const uint16_t code) {
_Z32get_target_extruder_from_commandt:
        PUSH     {R4-R6,LR}
          CFI R14 Frame(CFA, -4)
          CFI R6 Frame(CFA, -8)
          CFI R5 Frame(CFA, -12)
          CFI R4 Frame(CFA, -16)
          CFI CFA R13+16
        MOV      R4,R0
// 1338   if (parser.seenval('T')) {
        MOVS     R0,#+84
          CFI FunCall _ZN11GCodeParser7seenvalEc
        BL       _ZN11GCodeParser7seenvalEc
        CMP      R0,#+0
        BEQ.N    ??get_target_extruder_from_command_0
// 1339     const int8_t e = parser.value_byte();
          CFI FunCall _ZN11GCodeParser10value_byteEv
        BL       _ZN11GCodeParser10value_byteEv
        MOV      R5,R0
        SXTB     R5,R5
// 1340     if (e >= EXTRUDERS) {
        CMP      R5,#+1
        BLT.N    ??get_target_extruder_from_command_1
// 1341       SERIAL_ECHO_START();
        LDR.W    R0,??DataTable95_2
          CFI FunCall _Z14serialprintPGMPKc
        BL       _Z14serialprintPGMPKc
// 1342       SERIAL_CHAR('M');
        LDR.W    R6,??DataTable97
        MOVS     R1,#+77
        MOV      R0,R6
          CFI FunCall _ZN10USARTClass5writeEh
        BL       _ZN10USARTClass5writeEh
// 1343       SERIAL_ECHO(code);
        MOVS     R2,#+10
        MOV      R1,R4
        MOV      R0,R6
          CFI FunCall _ZN5Print5printEii
        BL       _ZN5Print5printEii
// 1344       SERIAL_ECHOLNPAIR(" " MSG_INVALID_EXTRUDER " ", e);
        MOV      R1,R5
        ADR.W    R0,`?<Constant " Invalid extruder ">`
          CFI FunCall _Z17serial_echopair_PPKci
        BL       _Z17serial_echopair_PPKci
        MOVS     R1,#+10
        MOV      R0,R6
          CFI FunCall _ZN10USARTClass5writeEh
        BL       _ZN10USARTClass5writeEh
// 1345       return true;
        MOVS     R0,#+1
        POP      {R4-R6,PC}
// 1346     }
// 1347     target_extruder = e;
??get_target_extruder_from_command_1:
        LDR.W    R0,??DataTable92_9
        STRB     R5,[R0, #+21]
        B.N      ??get_target_extruder_from_command_2
// 1348   }
// 1349   else
// 1350     target_extruder = active_extruder;
??get_target_extruder_from_command_0:
        LDR.W    R0,??DataTable92_9
        LDRB     R1,[R0, #+18]
        STRB     R1,[R0, #+21]
// 1351 
// 1352   return false;
??get_target_extruder_from_command_2:
        MOVS     R0,#+0
        POP      {R4-R6,PC}       ;; return
          CFI EndBlock cfiBlock21
// 1353 }

        SECTION `.text`:CODE:NOROOT(2)
        SECTION_TYPE SHT_PROGBITS, 0
        DATA
`?<Constant " Invalid extruder ">`:
        DC8 " Invalid extruder "
        DC8 0
// 1354 
// 1355 #if ENABLED(DUAL_X_CARRIAGE) || ENABLED(DUAL_NOZZLE_DUPLICATION_MODE)
// 1356   bool extruder_duplication_enabled = false; // Used in Dual X mode 2
// 1357 #endif
// 1358 
// 1359 #if ENABLED(DUAL_X_CARRIAGE)
// 1360 
// 1361   static DualXMode dual_x_carriage_mode = DEFAULT_DUAL_X_CARRIAGE_MODE;
// 1362 
// 1363   static float x_home_pos(const int extruder) {
// 1364     if (extruder == 0)
// 1365       return base_home_pos(X_AXIS);
// 1366     else
// 1367       /**
// 1368        * In dual carriage mode the extruder offset provides an override of the
// 1369        * second X-carriage position when homed - otherwise X2_HOME_POS is used.
// 1370        * This allows soft recalibration of the second extruder home position
// 1371        * without firmware reflash (through the M218 command).
// 1372        */
// 1373       return hotend_offset[X_AXIS][1] > 0 ? hotend_offset[X_AXIS][1] : X2_HOME_POS;
// 1374   }
// 1375 
// 1376   static int x_home_dir(const int extruder) { return extruder ? X2_HOME_DIR : X_HOME_DIR; }
// 1377 
// 1378   static float inactive_extruder_x_pos = X2_MAX_POS; // used in mode 0 & 1
// 1379   static bool active_extruder_parked = false;        // used in mode 1 & 2
// 1380   static float raised_parked_position[XYZE];         // used in mode 1
// 1381   static millis_t delayed_move_time = 0;             // used in mode 1
// 1382   static float duplicate_extruder_x_offset = DEFAULT_DUPLICATION_X_OFFSET; // used in mode 2
// 1383   static int16_t duplicate_extruder_temp_offset = 0; // used in mode 2
// 1384 
// 1385 #endif // DUAL_X_CARRIAGE
// 1386 
// 1387 #if HAS_WORKSPACE_OFFSET || ENABLED(DUAL_X_CARRIAGE)
// 1388 
// 1389   /**
// 1390    * Software endstops can be used to monitor the open end of
// 1391    * an axis that has a hardware endstop on the other end. Or
// 1392    * they can prevent axes from moving past endstops and grinding.
// 1393    *
// 1394    * To keep doing their job as the coordinate system changes,
// 1395    * the software endstop positions must be refreshed to remain
// 1396    * at the same positions relative to the machine.
// 1397    */

        SECTION `.text`:CODE:NOROOT(1)
          CFI Block cfiBlock22 Using cfiCommon0
          CFI Function _Z24update_software_endstops8AxisEnum
        THUMB
// 1398   void update_software_endstops(const AxisEnum axis) {
_Z24update_software_endstops8AxisEnum:
        PUSH     {R3-R5,LR}
          CFI R14 Frame(CFA, -4)
          CFI R5 Frame(CFA, -8)
          CFI R4 Frame(CFA, -12)
          CFI CFA R13+16
        MOV      R4,R0
// 1399     #if HAS_HOME_OFFSET && HAS_POSITION_SHIFT
// 1400       workspace_offset[axis] = home_offset[axis] + position_shift[axis];
        LDR.W    R0,??DataTable92_9
        ADD      R5,R0,R4, LSL #+2
        VLDR     S0,[R5, #+80]
        VLDR     S1,[R5, #+128]
        VADD.F32 S0,S0,S1
        LDR.W    R0,??DataTable99
        ADD      R0,R0,R4, LSL #+2
        VSTR     S0,[R0, #0]
// 1401     #endif
// 1402 
// 1403     #if ENABLED(DUAL_X_CARRIAGE)
// 1404       if (axis == X_AXIS) {
// 1405 
// 1406         // In Dual X mode hotend_offset[X] is T1's home position
// 1407         float dual_max_x = max(hotend_offset[X_AXIS][1], X2_MAX_POS);
// 1408 
// 1409         if (active_extruder != 0) {
// 1410           // T1 can move from X2_MIN_POS to X2_MAX_POS or X2 home position (whichever is larger)
// 1411           soft_endstop_min[X_AXIS] = X2_MIN_POS;
// 1412           soft_endstop_max[X_AXIS] = dual_max_x;
// 1413         }
// 1414         else if (dual_x_carriage_mode == DXC_DUPLICATION_MODE) {
// 1415           // In Duplication Mode, T0 can move as far left as X_MIN_POS
// 1416           // but not so far to the right that T1 would move past the end
// 1417           soft_endstop_min[X_AXIS] = base_min_pos(X_AXIS);
// 1418           soft_endstop_max[X_AXIS] = min(base_max_pos(X_AXIS), dual_max_x - duplicate_extruder_x_offset);
// 1419         }
// 1420         else {
// 1421           // In other modes, T0 can move from X_MIN_POS to X_MAX_POS
// 1422           soft_endstop_min[axis] = base_min_pos(axis);
// 1423           soft_endstop_max[axis] = base_max_pos(axis);
// 1424         }
// 1425       }
// 1426     #elif ENABLED(DELTA)
// 1427       soft_endstop_min[axis] = base_min_pos(axis);
// 1428       soft_endstop_max[axis] = axis == Z_AXIS ? delta_height : base_max_pos(axis);
// 1429     #else
// 1430       soft_endstop_min[axis] = base_min_pos(axis);
        MOV      R0,R4
          CFI FunCall _Z12base_min_pos8AxisEnum
        BL       _Z12base_min_pos8AxisEnum
        VSTR     S0,[R5, #+92]
// 1431       soft_endstop_max[axis] = base_max_pos(axis);
        MOV      R0,R4
          CFI FunCall _Z12base_max_pos8AxisEnum
        BL       _Z12base_max_pos8AxisEnum
        VSTR     S0,[R5, #+104]
// 1432     #endif
// 1433 
// 1434     #if ENABLED(DEBUG_LEVELING_FEATURE)
// 1435       if (DEBUGGING(LEVELING)) {
// 1436         SERIAL_ECHOPAIR("For ", axis_codes[axis]);
// 1437         #if HAS_HOME_OFFSET
// 1438           SERIAL_ECHOPAIR(" axis:\n home_offset = ", home_offset[axis]);
// 1439         #endif
// 1440         #if HAS_POSITION_SHIFT
// 1441           SERIAL_ECHOPAIR("\n position_shift = ", position_shift[axis]);
// 1442         #endif
// 1443         SERIAL_ECHOPAIR("\n soft_endstop_min = ", soft_endstop_min[axis]);
// 1444         SERIAL_ECHOLNPAIR("\n soft_endstop_max = ", soft_endstop_max[axis]);
// 1445       }
// 1446     #endif
// 1447 
// 1448     #if ENABLED(DELTA)
// 1449       switch(axis) {
// 1450         case X_AXIS:
// 1451         case Y_AXIS:
// 1452           // Get a minimum radius for clamping
// 1453           soft_endstop_radius = MIN3(FABS(max(soft_endstop_min[X_AXIS], soft_endstop_min[Y_AXIS])), soft_endstop_max[X_AXIS], soft_endstop_max[Y_AXIS]);
// 1454           soft_endstop_radius_2 = sq(soft_endstop_radius);
// 1455           break;
// 1456         case Z_AXIS:
// 1457           delta_clip_start_height = soft_endstop_max[axis] - delta_safe_distance_from_top();
// 1458         default: break;
// 1459       }
// 1460     #endif
// 1461   }
        POP      {R0,R4,R5,PC}    ;; return
          CFI EndBlock cfiBlock22
// 1462 
// 1463 #endif // HAS_WORKSPACE_OFFSET || DUAL_X_CARRIAGE
// 1464 
// 1465 #if HAS_M206_COMMAND
// 1466   /**
// 1467    * Change the home offset for an axis, update the current
// 1468    * position and the software endstops to retain the same
// 1469    * relative distance to the new home.
// 1470    *
// 1471    * Since this changes the current_position, code should
// 1472    * call sync_plan_position soon after this.
// 1473    */

        SECTION `.text`:CODE:NOROOT(1)
          CFI Block cfiBlock23 Using cfiCommon0
          CFI Function _Z15set_home_offset8AxisEnumf
        THUMB
// 1474   static void set_home_offset(const AxisEnum axis, const float v) {
// 1475     home_offset[axis] = v;
_Z15set_home_offset8AxisEnumf:
        LDR.W    R1,??DataTable92_9
        ADD      R1,R1,R0, LSL #+2
        VSTR     S0,[R1, #+80]
// 1476     update_software_endstops(axis);
          CFI FunCall _Z24update_software_endstops8AxisEnum
        B.N      _Z24update_software_endstops8AxisEnum
          CFI EndBlock cfiBlock23
// 1477   }
// 1478 #endif // HAS_M206_COMMAND
// 1479 
// 1480 /**
// 1481  * Set an axis' current position to its home position (after homing).
// 1482  *
// 1483  * For Core and Cartesian robots this applies one-to-one when an
// 1484  * individual axis has been homed.
// 1485  *
// 1486  * DELTA should wait until all homing is done before setting the XYZ
// 1487  * current_position to home, because homing is a single operation.
// 1488  * In the case where the axis positions are already known and previously
// 1489  * homed, DELTA could home to X or Y individually by moving either one
// 1490  * to the center. However, homing Z always homes XY and Z.
// 1491  *
// 1492  * SCARA should wait until all XY homing is done before setting the XY
// 1493  * current_position to home, because neither X nor Y is at home until
// 1494  * both are at home. Z can however be homed individually.
// 1495  *
// 1496  * Callers must sync the planner position after calling this!
// 1497  */

        SECTION `.text`:CODE:NOROOT(1)
          CFI Block cfiBlock24 Using cfiCommon0
          CFI Function _Z19set_axis_is_at_home8AxisEnum
        THUMB
// 1498 static void set_axis_is_at_home(const AxisEnum axis) {
_Z19set_axis_is_at_home8AxisEnum:
        PUSH     {R4-R6,LR}
          CFI R14 Frame(CFA, -4)
          CFI R6 Frame(CFA, -8)
          CFI R5 Frame(CFA, -12)
          CFI R4 Frame(CFA, -16)
          CFI CFA R13+16
        MOV      R4,R0
// 1499   #if ENABLED(DEBUG_LEVELING_FEATURE)
// 1500     if (DEBUGGING(LEVELING)) {
// 1501       SERIAL_ECHOPAIR(">>> set_axis_is_at_home(", axis_codes[axis]);
// 1502       SERIAL_CHAR(')');
// 1503       SERIAL_EOL();
// 1504     }
// 1505   #endif
// 1506 
// 1507   axis_known_position[axis] = axis_homed[axis] = true;
        LDR.W    R5,??DataTable92_9
        ADDS     R0,R4,R5
        MOVS     R1,#+1
        STRB     R1,[R0, #+4]
        STRB     R1,[R0, #+8]
// 1508 
// 1509   #if HAS_POSITION_SHIFT
// 1510     position_shift[axis] = 0;
        ADD      R6,R5,R4, LSL #+2
        MOVS     R0,#+0
        STR      R0,[R6, #+128]
// 1511     update_software_endstops(axis);
        MOV      R0,R4
          CFI FunCall _Z24update_software_endstops8AxisEnum
        BL       _Z24update_software_endstops8AxisEnum
// 1512   #endif
// 1513 
// 1514   #if ENABLED(DUAL_X_CARRIAGE)
// 1515     if (axis == X_AXIS && (active_extruder == 1 || dual_x_carriage_mode == DXC_DUPLICATION_MODE)) {
// 1516       current_position[X_AXIS] = x_home_pos(active_extruder);
// 1517       return;
// 1518     }
// 1519   #endif
// 1520 
// 1521   #if ENABLED(MORGAN_SCARA)
// 1522 
// 1523     /**
// 1524      * Morgan SCARA homes XY at the same time
// 1525      */
// 1526     if (axis == X_AXIS || axis == Y_AXIS) {
// 1527 
// 1528       float homeposition[XYZ] = {
// 1529         base_home_pos(X_AXIS),
// 1530         base_home_pos(Y_AXIS),
// 1531         base_home_pos(Z_AXIS)
// 1532       };
// 1533 
// 1534       // SERIAL_ECHOPAIR("homeposition X:", homeposition[X_AXIS]);
// 1535       // SERIAL_ECHOLNPAIR(" Y:", homeposition[Y_AXIS]);
// 1536 
// 1537       /**
// 1538        * Get Home position SCARA arm angles using inverse kinematics,
// 1539        * and calculate homing offset using forward kinematics
// 1540        */
// 1541       inverse_kinematics(homeposition);
// 1542       forward_kinematics_SCARA(delta[A_AXIS], delta[B_AXIS]);
// 1543 
// 1544       // SERIAL_ECHOPAIR("Cartesian X:", cartes[X_AXIS]);
// 1545       // SERIAL_ECHOLNPAIR(" Y:", cartes[Y_AXIS]);
// 1546 
// 1547       current_position[axis] = cartes[axis];
// 1548 
// 1549       /**
// 1550        * SCARA home positions are based on configuration since the actual
// 1551        * limits are determined by the inverse kinematic transform.
// 1552        */
// 1553       soft_endstop_min[axis] = base_min_pos(axis); // + (cartes[axis] - base_home_pos(axis));
// 1554       soft_endstop_max[axis] = base_max_pos(axis); // + (cartes[axis] - base_home_pos(axis));
// 1555     }
// 1556     else
// 1557   #elif ENABLED(DELTA)
// 1558     if (axis == Z_AXIS)
// 1559       current_position[axis] = delta_height;
// 1560     else
// 1561   #endif
// 1562   {
// 1563     current_position[axis] = base_home_pos(axis);
        MOV      R0,R4
          CFI FunCall _Z13base_home_pos8AxisEnum
        BL       _Z13base_home_pos8AxisEnum
        VSTR     S0,[R6, #+32]
// 1564     current_position[C_AXIS] = home_offset[C_AXIS];   //mks_dlp 
        LDR      R0,[R5, #+88]
        STR      R0,[R5, #+40]
// 1565   }
// 1566 
// 1567   /**
// 1568    * Z Probe Z Homing? Account for the probe's Z offset.
// 1569    */
// 1570   //#if HAS_BED_PROBE && Z_HOME_DIR < 0
// 1571 #if 0
// 1572     if (axis == Z_AXIS) {
// 1573       #if HOMING_Z_WITH_PROBE
// 1574 
// 1575         current_position[Z_AXIS] -= zprobe_zoffset;
// 1576 
// 1577         #if ENABLED(DEBUG_LEVELING_FEATURE)
// 1578           if (DEBUGGING(LEVELING)) {
// 1579             SERIAL_ECHOLNPGM("*** Z HOMED WITH PROBE (Z_MIN_PROBE_USES_Z_MIN_ENDSTOP_PIN) ***");
// 1580             SERIAL_ECHOLNPAIR("> zprobe_zoffset = ", zprobe_zoffset);
// 1581           }
// 1582         #endif
// 1583 
// 1584       #elif ENABLED(DEBUG_LEVELING_FEATURE)
// 1585 
// 1586         if (DEBUGGING(LEVELING)) SERIAL_ECHOLNPGM("*** Z HOMED TO ENDSTOP (Z_MIN_PROBE_ENDSTOP) ***");
// 1587 
// 1588       #endif
// 1589     }
// 1590   #endif
// 1591 
// 1592   #if ENABLED(DEBUG_LEVELING_FEATURE)
// 1593     if (DEBUGGING(LEVELING)) {
// 1594       #if HAS_HOME_OFFSET
// 1595         SERIAL_ECHOPAIR("> home_offset[", axis_codes[axis]);
// 1596         SERIAL_ECHOLNPAIR("] = ", home_offset[axis]);
// 1597       #endif
// 1598       DEBUG_POS("", current_position);
// 1599       SERIAL_ECHOPAIR("<<< set_axis_is_at_home(", axis_codes[axis]);
// 1600       SERIAL_CHAR(')');
// 1601       SERIAL_EOL();
// 1602     }
// 1603   #endif
// 1604 
// 1605   #if ENABLED(I2C_POSITION_ENCODERS)
// 1606     I2CPEM.homed(axis);
// 1607   #endif
// 1608 }
        POP      {R4-R6,PC}       ;; return
          CFI EndBlock cfiBlock24
// 1609 
// 1610 /**
// 1611  * Some planner shorthand inline functions
// 1612  */
// 1613 inline float get_homing_bump_feedrate(const AxisEnum axis) {
// 1614   //static const uint8_t homing_bump_divisor[] PROGMEM = HOMING_BUMP_DIVISOR;
// 1615 	int  homing_bump_divisor[4];
// 1616 		homing_bump_divisor[0] = 2;
// 1617 		homing_bump_divisor[1] = 2;
// 1618 		homing_bump_divisor[2] = 4;
// 1619   uint8_t hbd = pgm_read_byte(&homing_bump_divisor[axis]);
// 1620   if (hbd < 1) {
// 1621     hbd = 10;
// 1622     SERIAL_ECHO_START();
// 1623     SERIAL_ECHOLNPGM("Warning: Homing Bump Divisor < 1");
// 1624   }
// 1625   //return homing_feedrate(axis) / hbd;
// 1626   return homing_feedrate_mm_s[axis] / hbd;
// 1627 }
// 1628 
// 1629 /**
// 1630  * Move the planner to the current position from wherever it last moved
// 1631  * (or from wherever it has been told it is located).
// 1632  */
// 1633 inline void buffer_line_to_current_position() {
// 1634   planner.buffer_line(current_position[X_AXIS], current_position[Y_AXIS], current_position[Z_AXIS], current_position[E_AXIS], feedrate_mm_s, active_extruder);
// 1635 }
// 1636 
// 1637 /**
// 1638  * Move the planner to the position stored in the destination array, which is
// 1639  * used by G0/G1/G2/G3/G5 and many other functions to set a destination.
// 1640  */
// 1641 inline void buffer_line_to_destination(const float fr_mm_s) {
// 1642   planner.buffer_line(destination[X_AXIS], destination[Y_AXIS], destination[Z_AXIS], destination[E_AXIS], fr_mm_s, active_extruder);
// 1643 }
// 1644 
// 1645 #if IS_KINEMATIC
// 1646   /**
// 1647    * Calculate delta, start a line, and set current_position to destination
// 1648    */
// 1649   void prepare_uninterpolated_move_to_destination(const float fr_mm_s=0.0) {
// 1650     #if ENABLED(DEBUG_LEVELING_FEATURE)
// 1651       if (DEBUGGING(LEVELING)) DEBUG_POS("prepare_uninterpolated_move_to_destination", destination);
// 1652     #endif
// 1653 
// 1654     refresh_cmd_timeout();
// 1655 
// 1656     #if UBL_SEGMENTED
// 1657       // ubl segmented line will do z-only moves in single segment
// 1658       ubl.prepare_segmented_line_to(destination, MMS_SCALED(fr_mm_s ? fr_mm_s : feedrate_mm_s));
// 1659     #else
// 1660       if ( current_position[X_AXIS] == destination[X_AXIS]
// 1661         && current_position[Y_AXIS] == destination[Y_AXIS]
// 1662         && current_position[Z_AXIS] == destination[Z_AXIS]
// 1663         && current_position[E_AXIS] == destination[E_AXIS]
// 1664       ) return;
// 1665 
// 1666       planner.buffer_line_kinematic(destination, MMS_SCALED(fr_mm_s ? fr_mm_s : feedrate_mm_s), active_extruder);
// 1667     #endif
// 1668 
// 1669     set_current_from_destination();
// 1670   }
// 1671 #endif // IS_KINEMATIC
// 1672 
// 1673 /**
// 1674  *  Plan a move to (X, Y, Z) and set the current_position
// 1675  *  The final current_position may not be the one that was requested
// 1676  */

        SECTION `.text`:CODE:NOROOT(1)
          CFI Block cfiBlock25 Using cfiCommon0
          CFI Function _Z19do_blocking_move_toRKfS0_S0_S0_
        THUMB
// 1677 void do_blocking_move_to(const float &rx, const float &ry, const float &rz, const float &fr_mm_s/*=0.0*/) {
_Z19do_blocking_move_toRKfS0_S0_S0_:
        PUSH     {R4-R8,LR}
          CFI R14 Frame(CFA, -4)
          CFI R8 Frame(CFA, -8)
          CFI R7 Frame(CFA, -12)
          CFI R6 Frame(CFA, -16)
          CFI R5 Frame(CFA, -20)
          CFI R4 Frame(CFA, -24)
          CFI CFA R13+24
        VPUSH    {D8}
          CFI D8 Frame(CFA, -32)
          CFI CFA R13+32
        MOV      R6,R0
        MOV      R7,R1
        MOV      R4,R2
        MOV      R8,R3
// 1678   const float old_feedrate_mm_s = feedrate_mm_s;
        LDR.W    R5,??DataTable92_9
        VLDR     S16,[R5, #+120]
// 1679 
// 1680   #if ENABLED(DEBUG_LEVELING_FEATURE)
// 1681     if (DEBUGGING(LEVELING)) print_xyz(PSTR(">>> do_blocking_move_to"), NULL, LOGICAL_X_POSITION(rx), LOGICAL_Y_POSITION(ry), LOGICAL_Z_POSITION(rz));
// 1682   #endif
// 1683 
// 1684   const float z_feedrate = fr_mm_s ? fr_mm_s : homing_feedrate_mm_s[Z_AXIS];
        VLDR     S17,[R8, #0]
        VCMP.F32 S17,#0.0
        FMSTAT   
        BNE.N    ??do_blocking_move_to_0
        VLDR     S17,[R5, #+72]
// 1685 
// 1686   #if ENABLED(DELTA)
// 1687     if (!position_is_reachable(rx, ry)) return;
// 1688 
// 1689     feedrate_mm_s = fr_mm_s ? fr_mm_s : XY_PROBE_FEEDRATE_MM_S;
// 1690 
// 1691     set_destination_from_current();          // sync destination at the start
// 1692 
// 1693     #if ENABLED(DEBUG_LEVELING_FEATURE)
// 1694       if (DEBUGGING(LEVELING)) DEBUG_POS("set_destination_from_current", destination);
// 1695     #endif
// 1696 
// 1697     // when in the danger zone
// 1698     if (current_position[Z_AXIS] > delta_clip_start_height) {
// 1699       if (rz > delta_clip_start_height) {   // staying in the danger zone
// 1700         destination[X_AXIS] = rx;           // move directly (uninterpolated)
// 1701         destination[Y_AXIS] = ry;
// 1702         destination[Z_AXIS] = rz;
// 1703         prepare_uninterpolated_move_to_destination(); // set_current_from_destination
// 1704         #if ENABLED(DEBUG_LEVELING_FEATURE)
// 1705           if (DEBUGGING(LEVELING)) DEBUG_POS("danger zone move", current_position);
// 1706         #endif
// 1707         return;
// 1708       }
// 1709       destination[Z_AXIS] = delta_clip_start_height;
// 1710       prepare_uninterpolated_move_to_destination(); // set_current_from_destination
// 1711       #if ENABLED(DEBUG_LEVELING_FEATURE)
// 1712         if (DEBUGGING(LEVELING)) DEBUG_POS("zone border move", current_position);
// 1713       #endif
// 1714     }
// 1715 
// 1716     if (rz > current_position[Z_AXIS]) {    // raising?
// 1717       destination[Z_AXIS] = rz;
// 1718       prepare_uninterpolated_move_to_destination(z_feedrate);   // set_current_from_destination
// 1719       #if ENABLED(DEBUG_LEVELING_FEATURE)
// 1720         if (DEBUGGING(LEVELING)) DEBUG_POS("z raise move", current_position);
// 1721       #endif
// 1722     }
// 1723 
// 1724     destination[X_AXIS] = rx;
// 1725     destination[Y_AXIS] = ry;
// 1726     prepare_move_to_destination();         // set_current_from_destination
// 1727     #if ENABLED(DEBUG_LEVELING_FEATURE)
// 1728       if (DEBUGGING(LEVELING)) DEBUG_POS("xy move", current_position);
// 1729     #endif
// 1730 
// 1731     if (rz < current_position[Z_AXIS]) {    // lowering?
// 1732       destination[Z_AXIS] = rz;
// 1733       prepare_uninterpolated_move_to_destination(z_feedrate);   // set_current_from_destination
// 1734       #if ENABLED(DEBUG_LEVELING_FEATURE)
// 1735         if (DEBUGGING(LEVELING)) DEBUG_POS("z lower move", current_position);
// 1736       #endif
// 1737     }
// 1738 
// 1739   #elif IS_SCARA
// 1740 
// 1741     if (!position_is_reachable(rx, ry)) return;
// 1742 
// 1743     set_destination_from_current();
// 1744 
// 1745     // If Z needs to raise, do it before moving XY
// 1746     if (destination[Z_AXIS] < rz) {
// 1747       destination[Z_AXIS] = rz;
// 1748       prepare_uninterpolated_move_to_destination(z_feedrate);
// 1749     }
// 1750 
// 1751     destination[X_AXIS] = rx;
// 1752     destination[Y_AXIS] = ry;
// 1753     prepare_uninterpolated_move_to_destination(fr_mm_s ? fr_mm_s : XY_PROBE_FEEDRATE_MM_S);
// 1754 
// 1755     // If Z needs to lower, do it after moving XY
// 1756     if (destination[Z_AXIS] > rz) {
// 1757       destination[Z_AXIS] = rz;
// 1758       prepare_uninterpolated_move_to_destination(z_feedrate);
// 1759     }
// 1760 
// 1761   #else
// 1762 
// 1763     // If Z needs to raise, do it before moving XY
// 1764     if (current_position[Z_AXIS] < rz) {
??do_blocking_move_to_0:
        VLDR     S0,[R5, #+40]
        VLDR     S1,[R4, #0]
        VCMP.F32 S0,S1
        FMSTAT   
        BPL.N    ??do_blocking_move_to_1
// 1765       feedrate_mm_s = z_feedrate;
        VSTR     S17,[R5, #+120]
// 1766       current_position[Z_AXIS] = rz;
        LDR      R0,[R4, #+0]
        STR      R0,[R5, #+40]
// 1767       buffer_line_to_current_position();
          CFI FunCall _Z31buffer_line_to_current_positionv
        BL       _Z31buffer_line_to_current_positionv
// 1768     }
// 1769 
// 1770     feedrate_mm_s = fr_mm_s ? fr_mm_s : XY_PROBE_FEEDRATE_MM_S;
??do_blocking_move_to_1:
        VLDR     S0,[R8, #0]
        VCMP.F32 S0,#0.0
        FMSTAT   
        BEQ.N    ??do_blocking_move_to_2
        VSTR     S0,[R5, #+120]
        B.N      ??do_blocking_move_to_3
??do_blocking_move_to_2:
        LDR.W    R0,??DataTable99_1  ;; 0x43055555
        STR      R0,[R5, #+120]
// 1771     current_position[X_AXIS] = rx;
??do_blocking_move_to_3:
        LDR      R0,[R6, #+0]
        STR      R0,[R5, #+32]
// 1772     current_position[Y_AXIS] = ry;
        LDR      R0,[R7, #+0]
        STR      R0,[R5, #+36]
// 1773     buffer_line_to_current_position();
          CFI FunCall _Z31buffer_line_to_current_positionv
        BL       _Z31buffer_line_to_current_positionv
// 1774 
// 1775     // If Z needs to lower, do it after moving XY
// 1776     if (current_position[Z_AXIS] > rz) {
        VLDR     S0,[R4, #0]
        VLDR     S1,[R5, #+40]
        VCMP.F32 S0,S1
        FMSTAT   
        BPL.N    ??do_blocking_move_to_4
// 1777       feedrate_mm_s = z_feedrate;
        VSTR     S17,[R5, #+120]
// 1778       current_position[Z_AXIS] = rz;
        LDR      R0,[R4, #+0]
        STR      R0,[R5, #+40]
// 1779       buffer_line_to_current_position();
          CFI FunCall _Z31buffer_line_to_current_positionv
        BL       _Z31buffer_line_to_current_positionv
// 1780     }
// 1781 
// 1782   #endif
// 1783 
// 1784   stepper.synchronize();
??do_blocking_move_to_4:
          CFI FunCall _ZN7Stepper11synchronizeEv
        BL       _ZN7Stepper11synchronizeEv
// 1785 
// 1786   feedrate_mm_s = old_feedrate_mm_s;
        VSTR     S16,[R5, #+120]
// 1787 
// 1788   #if ENABLED(DEBUG_LEVELING_FEATURE)
// 1789     if (DEBUGGING(LEVELING)) SERIAL_ECHOLNPGM("<<< do_blocking_move_to");
// 1790   #endif
// 1791 }
        VPOP     {D8}
          CFI D8 SameValue
          CFI CFA R13+24
        POP      {R4-R8,PC}       ;; return
          CFI EndBlock cfiBlock25

        SECTION `.text`:CODE:NOROOT(2)
        SECTION_TYPE SHT_PROGBITS, 0
        DATA
??DataTable76:
        DC32     0x43480000
// 1792 

        SECTION `.text`:CODE:NOROOT(1)
          CFI Block cfiBlock26 Using cfiCommon0
          CFI Function _Z26do_blocking_move_to_nowaitRKfS0_S0_S0_
        THUMB
// 1793 void do_blocking_move_to_nowait(const float &rx, const float &ry, const float &rz, const float &fr_mm_s/*=0.0*/) {
_Z26do_blocking_move_to_nowaitRKfS0_S0_S0_:
        PUSH     {R4-R8,LR}
          CFI R14 Frame(CFA, -4)
          CFI R8 Frame(CFA, -8)
          CFI R7 Frame(CFA, -12)
          CFI R6 Frame(CFA, -16)
          CFI R5 Frame(CFA, -20)
          CFI R4 Frame(CFA, -24)
          CFI CFA R13+24
        VPUSH    {D8}
          CFI D8 Frame(CFA, -32)
          CFI CFA R13+32
        MOV      R6,R0
        MOV      R7,R1
        MOV      R4,R2
        MOV      R8,R3
// 1794   const float old_feedrate_mm_s = feedrate_mm_s;
        LDR.W    R5,??DataTable92_9
        VLDR     S16,[R5, #+120]
// 1795 
// 1796   #if ENABLED(DEBUG_LEVELING_FEATURE)
// 1797     if (DEBUGGING(LEVELING)) print_xyz(PSTR(">>> do_blocking_move_to"), NULL, LOGICAL_X_POSITION(rx), LOGICAL_Y_POSITION(ry), LOGICAL_Z_POSITION(rz));
// 1798   #endif
// 1799 
// 1800   const float z_feedrate = fr_mm_s ? fr_mm_s : homing_feedrate_mm_s[Z_AXIS];
        VLDR     S17,[R8, #0]
        VCMP.F32 S17,#0.0
        FMSTAT   
        BNE.N    ??do_blocking_move_to_nowait_0
        VLDR     S17,[R5, #+72]
// 1801 
// 1802   #if ENABLED(DELTA)
// 1803     if (!position_is_reachable(rx, ry)) return;
// 1804 
// 1805     feedrate_mm_s = fr_mm_s ? fr_mm_s : XY_PROBE_FEEDRATE_MM_S;
// 1806 
// 1807     set_destination_from_current();          // sync destination at the start
// 1808 
// 1809     #if ENABLED(DEBUG_LEVELING_FEATURE)
// 1810       if (DEBUGGING(LEVELING)) DEBUG_POS("set_destination_from_current", destination);
// 1811     #endif
// 1812 
// 1813     // when in the danger zone
// 1814     if (current_position[Z_AXIS] > delta_clip_start_height) {
// 1815       if (rz > delta_clip_start_height) {   // staying in the danger zone
// 1816         destination[X_AXIS] = rx;           // move directly (uninterpolated)
// 1817         destination[Y_AXIS] = ry;
// 1818         destination[Z_AXIS] = rz;
// 1819         prepare_uninterpolated_move_to_destination(); // set_current_from_destination
// 1820         #if ENABLED(DEBUG_LEVELING_FEATURE)
// 1821           if (DEBUGGING(LEVELING)) DEBUG_POS("danger zone move", current_position);
// 1822         #endif
// 1823         return;
// 1824       }
// 1825       destination[Z_AXIS] = delta_clip_start_height;
// 1826       prepare_uninterpolated_move_to_destination(); // set_current_from_destination
// 1827       #if ENABLED(DEBUG_LEVELING_FEATURE)
// 1828         if (DEBUGGING(LEVELING)) DEBUG_POS("zone border move", current_position);
// 1829       #endif
// 1830     }
// 1831 
// 1832     if (rz > current_position[Z_AXIS]) {    // raising?
// 1833       destination[Z_AXIS] = rz;
// 1834       prepare_uninterpolated_move_to_destination(z_feedrate);   // set_current_from_destination
// 1835       #if ENABLED(DEBUG_LEVELING_FEATURE)
// 1836         if (DEBUGGING(LEVELING)) DEBUG_POS("z raise move", current_position);
// 1837       #endif
// 1838     }
// 1839 
// 1840     destination[X_AXIS] = rx;
// 1841     destination[Y_AXIS] = ry;
// 1842     prepare_move_to_destination();         // set_current_from_destination
// 1843     #if ENABLED(DEBUG_LEVELING_FEATURE)
// 1844       if (DEBUGGING(LEVELING)) DEBUG_POS("xy move", current_position);
// 1845     #endif
// 1846 
// 1847     if (rz < current_position[Z_AXIS]) {    // lowering?
// 1848       destination[Z_AXIS] = rz;
// 1849       prepare_uninterpolated_move_to_destination(z_feedrate);   // set_current_from_destination
// 1850       #if ENABLED(DEBUG_LEVELING_FEATURE)
// 1851         if (DEBUGGING(LEVELING)) DEBUG_POS("z lower move", current_position);
// 1852       #endif
// 1853     }
// 1854 
// 1855   #elif IS_SCARA
// 1856 
// 1857     if (!position_is_reachable(rx, ry)) return;
// 1858 
// 1859     set_destination_from_current();
// 1860 
// 1861     // If Z needs to raise, do it before moving XY
// 1862     if (destination[Z_AXIS] < rz) {
// 1863       destination[Z_AXIS] = rz;
// 1864       prepare_uninterpolated_move_to_destination(z_feedrate);
// 1865     }
// 1866 
// 1867     destination[X_AXIS] = rx;
// 1868     destination[Y_AXIS] = ry;
// 1869     prepare_uninterpolated_move_to_destination(fr_mm_s ? fr_mm_s : XY_PROBE_FEEDRATE_MM_S);
// 1870 
// 1871     // If Z needs to lower, do it after moving XY
// 1872     if (destination[Z_AXIS] > rz) {
// 1873       destination[Z_AXIS] = rz;
// 1874       prepare_uninterpolated_move_to_destination(z_feedrate);
// 1875     }
// 1876 
// 1877   #else
// 1878 
// 1879     // If Z needs to raise, do it before moving XY
// 1880     if (current_position[Z_AXIS] < rz) {
??do_blocking_move_to_nowait_0:
        VLDR     S0,[R5, #+40]
        VLDR     S1,[R4, #0]
        VCMP.F32 S0,S1
        FMSTAT   
        BPL.N    ??do_blocking_move_to_nowait_1
// 1881       feedrate_mm_s = z_feedrate;
        VSTR     S17,[R5, #+120]
// 1882       current_position[Z_AXIS] = rz;
        LDR      R0,[R4, #+0]
        STR      R0,[R5, #+40]
// 1883       buffer_line_to_current_position();
          CFI FunCall _Z31buffer_line_to_current_positionv
        BL       _Z31buffer_line_to_current_positionv
// 1884     }
// 1885 
// 1886     feedrate_mm_s = fr_mm_s ? fr_mm_s : XY_PROBE_FEEDRATE_MM_S;
??do_blocking_move_to_nowait_1:
        VLDR     S0,[R8, #0]
        VCMP.F32 S0,#0.0
        FMSTAT   
        BEQ.N    ??do_blocking_move_to_nowait_2
        VSTR     S0,[R5, #+120]
        B.N      ??do_blocking_move_to_nowait_3
??do_blocking_move_to_nowait_2:
        LDR.W    R0,??DataTable99_1  ;; 0x43055555
        STR      R0,[R5, #+120]
// 1887     current_position[X_AXIS] = rx;
??do_blocking_move_to_nowait_3:
        LDR      R0,[R6, #+0]
        STR      R0,[R5, #+32]
// 1888     current_position[Y_AXIS] = ry;
        LDR      R0,[R7, #+0]
        STR      R0,[R5, #+36]
// 1889     buffer_line_to_current_position();
          CFI FunCall _Z31buffer_line_to_current_positionv
        BL       _Z31buffer_line_to_current_positionv
// 1890 
// 1891     // If Z needs to lower, do it after moving XY
// 1892     if (current_position[Z_AXIS] > rz) {
        VLDR     S0,[R4, #0]
        VLDR     S1,[R5, #+40]
        VCMP.F32 S0,S1
        FMSTAT   
        BPL.N    ??do_blocking_move_to_nowait_4
// 1893       feedrate_mm_s = z_feedrate;
        VSTR     S17,[R5, #+120]
// 1894       current_position[Z_AXIS] = rz;
        LDR      R0,[R4, #+0]
        STR      R0,[R5, #+40]
// 1895       buffer_line_to_current_position();
          CFI FunCall _Z31buffer_line_to_current_positionv
        BL       _Z31buffer_line_to_current_positionv
// 1896     }
// 1897 
// 1898   #endif
// 1899 
// 1900 //  stepper.synchronize();
// 1901 
// 1902   feedrate_mm_s = old_feedrate_mm_s;
??do_blocking_move_to_nowait_4:
        VSTR     S16,[R5, #+120]
// 1903 
// 1904   #if ENABLED(DEBUG_LEVELING_FEATURE)
// 1905     if (DEBUGGING(LEVELING)) SERIAL_ECHOLNPGM("<<< do_blocking_move_to");
// 1906   #endif
// 1907 }
        VPOP     {D8}
          CFI D8 SameValue
          CFI CFA R13+24
        POP      {R4-R8,PC}       ;; return
          CFI EndBlock cfiBlock26
// 1908 
// 1909 

        SECTION `.text`:CODE:NOROOT(1)
          CFI Block cfiBlock27 Using cfiCommon0
          CFI Function _Z21do_blocking_move_to_xRKfS0_
        THUMB
// 1910 void do_blocking_move_to_x(const float &rx, const float &fr_mm_s/*=0.0*/) {
_Z21do_blocking_move_to_xRKfS0_:
        PUSH     {R3,R4}
          CFI R4 Frame(CFA, -4)
          CFI CFA R13+8
// 1911   do_blocking_move_to(rx, current_position[Y_AXIS], current_position[Z_AXIS], fr_mm_s);
        LDR.W    R4,??DataTable92_9
        MOV      R3,R1
        ADD      R2,R4,#+40
        ADD      R1,R4,#+36
        ADD      SP,SP,#+4
          CFI CFA R13+4
        POP      {R4}
          CFI R4 SameValue
          CFI CFA R13+0
          CFI FunCall _Z19do_blocking_move_toRKfS0_S0_S0_
        B.N      _Z19do_blocking_move_toRKfS0_S0_S0_
          CFI EndBlock cfiBlock27
// 1912 }

        SECTION `.text`:CODE:NOROOT(1)
          CFI Block cfiBlock28 Using cfiCommon0
          CFI Function _Z21do_blocking_move_to_zRKfS0_
        THUMB
// 1913 void do_blocking_move_to_z(const float &rz, const float &fr_mm_s/*=0.0*/) {
_Z21do_blocking_move_to_zRKfS0_:
        PUSH     {R3,R4}
          CFI R4 Frame(CFA, -4)
          CFI CFA R13+8
// 1914   do_blocking_move_to(current_position[X_AXIS], current_position[Y_AXIS], rz, fr_mm_s);
        LDR.W    R4,??DataTable92_9
        MOV      R3,R1
        MOV      R2,R0
        ADD      R1,R4,#+36
        ADD      R0,R4,#+32
        ADD      SP,SP,#+4
          CFI CFA R13+4
        POP      {R4}
          CFI R4 SameValue
          CFI CFA R13+0
          CFI FunCall _Z19do_blocking_move_toRKfS0_S0_S0_
        B.N      _Z19do_blocking_move_toRKfS0_S0_S0_
          CFI EndBlock cfiBlock28
// 1915 }

        SECTION `.text`:CODE:NOROOT(1)
          CFI Block cfiBlock29 Using cfiCommon0
          CFI Function _Z28do_blocking_move_to_z_nowaitRKfS0_
        THUMB
// 1916 void do_blocking_move_to_z_nowait(const float &rz, const float &fr_mm_s/*=0.0*/) {
_Z28do_blocking_move_to_z_nowaitRKfS0_:
        PUSH     {R3,R4}
          CFI R4 Frame(CFA, -4)
          CFI CFA R13+8
// 1917   do_blocking_move_to_nowait(current_position[X_AXIS], current_position[Y_AXIS], rz, fr_mm_s);
        LDR.W    R4,??DataTable92_9
        MOV      R3,R1
        MOV      R2,R0
        ADD      R1,R4,#+36
        ADD      R0,R4,#+32
        ADD      SP,SP,#+4
          CFI CFA R13+4
        POP      {R4}
          CFI R4 SameValue
          CFI CFA R13+0
          CFI FunCall _Z26do_blocking_move_to_nowaitRKfS0_S0_S0_
        B.N      _Z26do_blocking_move_to_nowaitRKfS0_S0_S0_
          CFI EndBlock cfiBlock29
// 1918 }
// 1919 

        SECTION `.text`:CODE:NOROOT(1)
          CFI Block cfiBlock30 Using cfiCommon0
          CFI Function _Z22do_blocking_move_to_xyRKfS0_S0_
        THUMB
// 1920 void do_blocking_move_to_xy(const float &rx, const float &ry, const float &fr_mm_s/*=0.0*/) {
// 1921   do_blocking_move_to(rx, ry, current_position[Z_AXIS], fr_mm_s);
_Z22do_blocking_move_to_xyRKfS0_S0_:
        MOV      R3,R2
        LDR.W    R2,??DataTable99_3
          CFI FunCall _Z19do_blocking_move_toRKfS0_S0_S0_
        B.N      _Z19do_blocking_move_toRKfS0_S0_S0_
          CFI EndBlock cfiBlock30
// 1922 }
// 1923 
// 1924 //
// 1925 // Prepare to do endstop or probe moves
// 1926 // with custom feedrates.
// 1927 //
// 1928 //  - Save current feedrates
// 1929 //  - Reset the rate multiplier
// 1930 //  - Reset the command timeout
// 1931 //  - Enable the endstops (for endstop moves)
// 1932 //

        SECTION `.text`:CODE:NOROOT(1)
          CFI Block cfiBlock31 Using cfiCommon0
          CFI Function _Z31setup_for_endstop_or_probe_movev
        THUMB
// 1933 static void setup_for_endstop_or_probe_move() {
// 1934   #if ENABLED(DEBUG_LEVELING_FEATURE)
// 1935     if (DEBUGGING(LEVELING)) DEBUG_POS("setup_for_endstop_or_probe_move", current_position);
// 1936   #endif
// 1937   saved_feedrate_mm_s = feedrate_mm_s;
_Z31setup_for_endstop_or_probe_movev:
        LDR.W    R0,??DataTable92_9
        LDR      R1,[R0, #+120]
        STR      R1,[R0, #+124]
// 1938   saved_feedrate_percentage = feedrate_percentage;
        LDRH     R1,[R0, #+28]
        STRH     R1,[R0, #+30]
// 1939   feedrate_percentage = 100;
        MOVS     R1,#+100
        STRH     R1,[R0, #+28]
// 1940   refresh_cmd_timeout();
          CFI FunCall _Z19refresh_cmd_timeoutv
        B.W      _Z19refresh_cmd_timeoutv
          CFI EndBlock cfiBlock31
// 1941 }
// 1942 

        SECTION `.text`:CODE:NOROOT(1)
          CFI Block cfiBlock32 Using cfiCommon0
          CFI Function _Z36clean_up_after_endstop_or_probe_movev
        THUMB
// 1943 static void clean_up_after_endstop_or_probe_move() {
// 1944   #if ENABLED(DEBUG_LEVELING_FEATURE)
// 1945     if (DEBUGGING(LEVELING)) DEBUG_POS("clean_up_after_endstop_or_probe_move", current_position);
// 1946   #endif
// 1947   feedrate_mm_s = saved_feedrate_mm_s;
_Z36clean_up_after_endstop_or_probe_movev:
        LDR.W    R0,??DataTable92_9
        LDR      R1,[R0, #+124]
        STR      R1,[R0, #+120]
// 1948   feedrate_percentage = saved_feedrate_percentage;
        LDRH     R1,[R0, #+30]
        STRH     R1,[R0, #+28]
// 1949   refresh_cmd_timeout();
          CFI FunCall _Z19refresh_cmd_timeoutv
        B.W      _Z19refresh_cmd_timeoutv
          CFI EndBlock cfiBlock32
// 1950 }
// 1951 
// 1952 #if HAS_BED_PROBE
// 1953   /**
// 1954    * Raise Z to a minimum height to make room for a probe to move
// 1955    */
// 1956   inline void do_probe_raise(const float z_raise) {
// 1957     #if ENABLED(DEBUG_LEVELING_FEATURE)
// 1958       if (DEBUGGING(LEVELING)) {
// 1959         SERIAL_ECHOPAIR("do_probe_raise(", z_raise);
// 1960         SERIAL_CHAR(')');
// 1961         SERIAL_EOL();
// 1962       }
// 1963     #endif
// 1964 
// 1965     float z_dest = z_raise;
// 1966     if (zprobe_zoffset < 0) z_dest -= zprobe_zoffset;
// 1967 
// 1968     if (z_dest > current_position[Z_AXIS])
// 1969       do_blocking_move_to_z(z_dest);
// 1970   }
// 1971 
// 1972 #endif // HAS_BED_PROBE
// 1973 
// 1974 #if HAS_AXIS_UNHOMED_ERR
// 1975 #if defined(MKS_DLP_BOARD)

        SECTION `.text`:CODE:NOROOT(1)
          CFI Block cfiBlock33 Using cfiCommon0
          CFI Function _Z18axis_unhomed_errorb
        THUMB
// 1976   bool axis_unhomed_error(const bool z/*=true*/) {
_Z18axis_unhomed_errorb:
        PUSH     {R4,LR}
          CFI R14 Frame(CFA, -4)
          CFI R4 Frame(CFA, -8)
          CFI CFA R13+8
// 1977     #if ENABLED(HOME_AFTER_DEACTIVATE)
// 1978       const bool zz = z && !axis_known_position[Z_AXIS];
// 1979     #else
// 1980       const bool zz = z && !axis_homed[Z_AXIS];
        CMP      R0,#+0
        BEQ.N    ??axis_unhomed_error_0
        LDR.W    R0,??DataTable92_9
        LDRB     R0,[R0, #+6]
        EOR      R4,R0,#0x1
        B.N      ??axis_unhomed_error_1
??axis_unhomed_error_0:
        MOVS     R4,#+0
// 1981     #endif
// 1982     if (zz) {
??axis_unhomed_error_1:
        CMP      R4,#+0
        BEQ.N    ??axis_unhomed_error_2
// 1983       SERIAL_ECHO_START();
        LDR.W    R0,??DataTable95_2
          CFI FunCall _Z14serialprintPGMPKc
        BL       _Z14serialprintPGMPKc
// 1984       SERIAL_ECHOPGM(MSG_HOME " ");
        ADR.W    R0,`?<Constant "Home ">`
          CFI FunCall _Z14serialprintPGMPKc
        BL       _Z14serialprintPGMPKc
// 1985       if (zz) SERIAL_ECHOPGM(MSG_Z);
        CMP      R4,#+0
        BEQ.N    ??axis_unhomed_error_3
        ADR.N    R0,??DataTable91  ;; "Z"
          CFI FunCall _Z14serialprintPGMPKc
        BL       _Z14serialprintPGMPKc
// 1986       SERIAL_ECHOLNPGM(" " MSG_FIRST);
??axis_unhomed_error_3:
        ADR.W    R0,`?<Constant " first\\n">`
          CFI FunCall _Z14serialprintPGMPKc
        BL       _Z14serialprintPGMPKc
// 1987 
// 1988       #if ENABLED(ULTRA_LCD)
// 1989         lcd_status_printf_P(0, PSTR(MSG_HOME " %s%s%s " MSG_FIRST), xx ? MSG_X : "", yy ? MSG_Y : "", zz ? MSG_Z : "");
// 1990       #endif
// 1991       return true;
        MOVS     R0,#+1
        POP      {R4,PC}
// 1992     }
// 1993     return false;
??axis_unhomed_error_2:
        MOVS     R0,#+0
        POP      {R4,PC}          ;; return
          CFI EndBlock cfiBlock33
// 1994   }

        SECTION `.text`:CODE:NOROOT(2)
        SECTION_TYPE SHT_PROGBITS, 0
        DATA
`?<Constant "Home ">`:
        DC8 "Home "
        DC8 0, 0

        SECTION `.text`:CODE:NOROOT(2)
        SECTION_TYPE SHT_PROGBITS, 0
        DATA
`?<Constant " first\\n">`:
        DC8 " first\012"
// 1995 #else
// 1996 bool axis_unhomed_error(const bool x/*=true*/, const bool y/*=true*/, const bool z/*=true*/) {
// 1997   #if ENABLED(HOME_AFTER_DEACTIVATE)
// 1998 	const bool xx = x && !axis_known_position[X_AXIS],
// 1999 			   yy = y && !axis_known_position[Y_AXIS],
// 2000 			   zz = z && !axis_known_position[Z_AXIS];
// 2001   #else
// 2002 	const bool xx = x && !axis_homed[X_AXIS],
// 2003 			   yy = y && !axis_homed[Y_AXIS],
// 2004 			   zz = z && !axis_homed[Z_AXIS];
// 2005   #endif
// 2006   if (xx || yy || zz) {
// 2007 	SERIAL_ECHO_START();
// 2008 	SERIAL_ECHOPGM(MSG_HOME " ");
// 2009 	if (xx) SERIAL_ECHOPGM(MSG_X);
// 2010 	if (yy) SERIAL_ECHOPGM(MSG_Y);
// 2011 	if (zz) SERIAL_ECHOPGM(MSG_Z);
// 2012 	SERIAL_ECHOLNPGM(" " MSG_FIRST);
// 2013 
// 2014 	#if ENABLED(ULTRA_LCD)
// 2015 	  lcd_status_printf_P(0, PSTR(MSG_HOME " %s%s%s " MSG_FIRST), xx ? MSG_X : "", yy ? MSG_Y : "", zz ? MSG_Z : "");
// 2016 	#endif
// 2017 	return true;
// 2018   }
// 2019   return false;
// 2020 }
// 2021 
// 2022 #endif
// 2023 #endif // HAS_AXIS_UNHOMED_ERR
// 2024 
// 2025 #if ENABLED(Z_PROBE_SLED)
// 2026 
// 2027   #ifndef SLED_DOCKING_OFFSET
// 2028     #define SLED_DOCKING_OFFSET 0
// 2029   #endif
// 2030 
// 2031   /**
// 2032    * Method to dock/undock a sled designed by Charles Bell.
// 2033    *
// 2034    * stow[in]     If false, move to MAX_X and engage the solenoid
// 2035    *              If true, move to MAX_X and release the solenoid
// 2036    */
// 2037   static void dock_sled(bool stow) {
// 2038     #if ENABLED(DEBUG_LEVELING_FEATURE)
// 2039       if (DEBUGGING(LEVELING)) {
// 2040         SERIAL_ECHOPAIR("dock_sled(", stow);
// 2041         SERIAL_CHAR(')');
// 2042         SERIAL_EOL();
// 2043       }
// 2044     #endif
// 2045 
// 2046     // Dock sled a bit closer to ensure proper capturing
// 2047     do_blocking_move_to_x(X_MAX_POS + SLED_DOCKING_OFFSET - ((stow) ? 1 : 0));
// 2048 
// 2049     #if HAS_SOLENOID_1 && DISABLED(EXT_SOLENOID)
// 2050       WRITE(SOL1_PIN, !stow); // switch solenoid
// 2051     #endif
// 2052   }
// 2053 
// 2054 #elif ENABLED(Z_PROBE_ALLEN_KEY)
// 2055 
// 2056   FORCE_INLINE void do_blocking_move_to(const float (&raw)[XYZ], const float &fr_mm_s) {
// 2057     do_blocking_move_to(raw[X_AXIS], raw[Y_AXIS], raw[Z_AXIS], fr_mm_s);
// 2058   }
// 2059 
// 2060   void run_deploy_moves_script() {
// 2061     #if defined(Z_PROBE_ALLEN_KEY_DEPLOY_1_X) || defined(Z_PROBE_ALLEN_KEY_DEPLOY_1_Y) || defined(Z_PROBE_ALLEN_KEY_DEPLOY_1_Z)
// 2062       #ifndef Z_PROBE_ALLEN_KEY_DEPLOY_1_X
// 2063         #define Z_PROBE_ALLEN_KEY_DEPLOY_1_X current_position[X_AXIS]
// 2064       #endif
// 2065       #ifndef Z_PROBE_ALLEN_KEY_DEPLOY_1_Y
// 2066         #define Z_PROBE_ALLEN_KEY_DEPLOY_1_Y current_position[Y_AXIS]
// 2067       #endif
// 2068       #ifndef Z_PROBE_ALLEN_KEY_DEPLOY_1_Z
// 2069         #define Z_PROBE_ALLEN_KEY_DEPLOY_1_Z current_position[Z_AXIS]
// 2070       #endif
// 2071       #ifndef Z_PROBE_ALLEN_KEY_DEPLOY_1_FEEDRATE
// 2072         #define Z_PROBE_ALLEN_KEY_DEPLOY_1_FEEDRATE 0.0
// 2073       #endif
// 2074       const float deploy_1[] = { Z_PROBE_ALLEN_KEY_DEPLOY_1_X, Z_PROBE_ALLEN_KEY_DEPLOY_1_Y, Z_PROBE_ALLEN_KEY_DEPLOY_1_Z };
// 2075       do_blocking_move_to(deploy_1, MMM_TO_MMS(Z_PROBE_ALLEN_KEY_DEPLOY_1_FEEDRATE));
// 2076     #endif
// 2077     #if defined(Z_PROBE_ALLEN_KEY_DEPLOY_2_X) || defined(Z_PROBE_ALLEN_KEY_DEPLOY_2_Y) || defined(Z_PROBE_ALLEN_KEY_DEPLOY_2_Z)
// 2078       #ifndef Z_PROBE_ALLEN_KEY_DEPLOY_2_X
// 2079         #define Z_PROBE_ALLEN_KEY_DEPLOY_2_X current_position[X_AXIS]
// 2080       #endif
// 2081       #ifndef Z_PROBE_ALLEN_KEY_DEPLOY_2_Y
// 2082         #define Z_PROBE_ALLEN_KEY_DEPLOY_2_Y current_position[Y_AXIS]
// 2083       #endif
// 2084       #ifndef Z_PROBE_ALLEN_KEY_DEPLOY_2_Z
// 2085         #define Z_PROBE_ALLEN_KEY_DEPLOY_2_Z current_position[Z_AXIS]
// 2086       #endif
// 2087       #ifndef Z_PROBE_ALLEN_KEY_DEPLOY_2_FEEDRATE
// 2088         #define Z_PROBE_ALLEN_KEY_DEPLOY_2_FEEDRATE 0.0
// 2089       #endif
// 2090       const float deploy_2[] = { Z_PROBE_ALLEN_KEY_DEPLOY_2_X, Z_PROBE_ALLEN_KEY_DEPLOY_2_Y, Z_PROBE_ALLEN_KEY_DEPLOY_2_Z };
// 2091       do_blocking_move_to(deploy_2, MMM_TO_MMS(Z_PROBE_ALLEN_KEY_DEPLOY_2_FEEDRATE));
// 2092     #endif
// 2093     #if defined(Z_PROBE_ALLEN_KEY_DEPLOY_3_X) || defined(Z_PROBE_ALLEN_KEY_DEPLOY_3_Y) || defined(Z_PROBE_ALLEN_KEY_DEPLOY_3_Z)
// 2094       #ifndef Z_PROBE_ALLEN_KEY_DEPLOY_3_X
// 2095         #define Z_PROBE_ALLEN_KEY_DEPLOY_3_X current_position[X_AXIS]
// 2096       #endif
// 2097       #ifndef Z_PROBE_ALLEN_KEY_DEPLOY_3_Y
// 2098         #define Z_PROBE_ALLEN_KEY_DEPLOY_3_Y current_position[Y_AXIS]
// 2099       #endif
// 2100       #ifndef Z_PROBE_ALLEN_KEY_DEPLOY_3_Z
// 2101         #define Z_PROBE_ALLEN_KEY_DEPLOY_3_Z current_position[Z_AXIS]
// 2102       #endif
// 2103       #ifndef Z_PROBE_ALLEN_KEY_DEPLOY_3_FEEDRATE
// 2104         #define Z_PROBE_ALLEN_KEY_DEPLOY_3_FEEDRATE 0.0
// 2105       #endif
// 2106       const float deploy_3[] = { Z_PROBE_ALLEN_KEY_DEPLOY_3_X, Z_PROBE_ALLEN_KEY_DEPLOY_3_Y, Z_PROBE_ALLEN_KEY_DEPLOY_3_Z };
// 2107       do_blocking_move_to(deploy_3, MMM_TO_MMS(Z_PROBE_ALLEN_KEY_DEPLOY_3_FEEDRATE));
// 2108     #endif
// 2109     #if defined(Z_PROBE_ALLEN_KEY_DEPLOY_4_X) || defined(Z_PROBE_ALLEN_KEY_DEPLOY_4_Y) || defined(Z_PROBE_ALLEN_KEY_DEPLOY_4_Z)
// 2110       #ifndef Z_PROBE_ALLEN_KEY_DEPLOY_4_X
// 2111         #define Z_PROBE_ALLEN_KEY_DEPLOY_4_X current_position[X_AXIS]
// 2112       #endif
// 2113       #ifndef Z_PROBE_ALLEN_KEY_DEPLOY_4_Y
// 2114         #define Z_PROBE_ALLEN_KEY_DEPLOY_4_Y current_position[Y_AXIS]
// 2115       #endif
// 2116       #ifndef Z_PROBE_ALLEN_KEY_DEPLOY_4_Z
// 2117         #define Z_PROBE_ALLEN_KEY_DEPLOY_4_Z current_position[Z_AXIS]
// 2118       #endif
// 2119       #ifndef Z_PROBE_ALLEN_KEY_DEPLOY_4_FEEDRATE
// 2120         #define Z_PROBE_ALLEN_KEY_DEPLOY_4_FEEDRATE 0.0
// 2121       #endif
// 2122       const float deploy_4[] = { Z_PROBE_ALLEN_KEY_DEPLOY_4_X, Z_PROBE_ALLEN_KEY_DEPLOY_4_Y, Z_PROBE_ALLEN_KEY_DEPLOY_4_Z };
// 2123       do_blocking_move_to(deploy_4, MMM_TO_MMS(Z_PROBE_ALLEN_KEY_DEPLOY_4_FEEDRATE));
// 2124     #endif
// 2125     #if defined(Z_PROBE_ALLEN_KEY_DEPLOY_5_X) || defined(Z_PROBE_ALLEN_KEY_DEPLOY_5_Y) || defined(Z_PROBE_ALLEN_KEY_DEPLOY_5_Z)
// 2126       #ifndef Z_PROBE_ALLEN_KEY_DEPLOY_5_X
// 2127         #define Z_PROBE_ALLEN_KEY_DEPLOY_5_X current_position[X_AXIS]
// 2128       #endif
// 2129       #ifndef Z_PROBE_ALLEN_KEY_DEPLOY_5_Y
// 2130         #define Z_PROBE_ALLEN_KEY_DEPLOY_5_Y current_position[Y_AXIS]
// 2131       #endif
// 2132       #ifndef Z_PROBE_ALLEN_KEY_DEPLOY_5_Z
// 2133         #define Z_PROBE_ALLEN_KEY_DEPLOY_5_Z current_position[Z_AXIS]
// 2134       #endif
// 2135       #ifndef Z_PROBE_ALLEN_KEY_DEPLOY_5_FEEDRATE
// 2136         #define Z_PROBE_ALLEN_KEY_DEPLOY_5_FEEDRATE 0.0
// 2137       #endif
// 2138       const float deploy_5[] = { Z_PROBE_ALLEN_KEY_DEPLOY_5_X, Z_PROBE_ALLEN_KEY_DEPLOY_5_Y, Z_PROBE_ALLEN_KEY_DEPLOY_5_Z };
// 2139       do_blocking_move_to(deploy_5, MMM_TO_MMS(Z_PROBE_ALLEN_KEY_DEPLOY_5_FEEDRATE));
// 2140     #endif
// 2141   }
// 2142 
// 2143   void run_stow_moves_script() {
// 2144     #if defined(Z_PROBE_ALLEN_KEY_STOW_1_X) || defined(Z_PROBE_ALLEN_KEY_STOW_1_Y) || defined(Z_PROBE_ALLEN_KEY_STOW_1_Z)
// 2145       #ifndef Z_PROBE_ALLEN_KEY_STOW_1_X
// 2146         #define Z_PROBE_ALLEN_KEY_STOW_1_X current_position[X_AXIS]
// 2147       #endif
// 2148       #ifndef Z_PROBE_ALLEN_KEY_STOW_1_Y
// 2149         #define Z_PROBE_ALLEN_KEY_STOW_1_Y current_position[Y_AXIS]
// 2150       #endif
// 2151       #ifndef Z_PROBE_ALLEN_KEY_STOW_1_Z
// 2152         #define Z_PROBE_ALLEN_KEY_STOW_1_Z current_position[Z_AXIS]
// 2153       #endif
// 2154       #ifndef Z_PROBE_ALLEN_KEY_STOW_1_FEEDRATE
// 2155         #define Z_PROBE_ALLEN_KEY_STOW_1_FEEDRATE 0.0
// 2156       #endif
// 2157       const float stow_1[] = { Z_PROBE_ALLEN_KEY_STOW_1_X, Z_PROBE_ALLEN_KEY_STOW_1_Y, Z_PROBE_ALLEN_KEY_STOW_1_Z };
// 2158       do_blocking_move_to(stow_1, MMM_TO_MMS(Z_PROBE_ALLEN_KEY_STOW_1_FEEDRATE));
// 2159     #endif
// 2160     #if defined(Z_PROBE_ALLEN_KEY_STOW_2_X) || defined(Z_PROBE_ALLEN_KEY_STOW_2_Y) || defined(Z_PROBE_ALLEN_KEY_STOW_2_Z)
// 2161       #ifndef Z_PROBE_ALLEN_KEY_STOW_2_X
// 2162         #define Z_PROBE_ALLEN_KEY_STOW_2_X current_position[X_AXIS]
// 2163       #endif
// 2164       #ifndef Z_PROBE_ALLEN_KEY_STOW_2_Y
// 2165         #define Z_PROBE_ALLEN_KEY_STOW_2_Y current_position[Y_AXIS]
// 2166       #endif
// 2167       #ifndef Z_PROBE_ALLEN_KEY_STOW_2_Z
// 2168         #define Z_PROBE_ALLEN_KEY_STOW_2_Z current_position[Z_AXIS]
// 2169       #endif
// 2170       #ifndef Z_PROBE_ALLEN_KEY_STOW_2_FEEDRATE
// 2171         #define Z_PROBE_ALLEN_KEY_STOW_2_FEEDRATE 0.0
// 2172       #endif
// 2173       const float stow_2[] = { Z_PROBE_ALLEN_KEY_STOW_2_X, Z_PROBE_ALLEN_KEY_STOW_2_Y, Z_PROBE_ALLEN_KEY_STOW_2_Z };
// 2174       do_blocking_move_to(stow_2, MMM_TO_MMS(Z_PROBE_ALLEN_KEY_STOW_2_FEEDRATE));
// 2175     #endif
// 2176     #if defined(Z_PROBE_ALLEN_KEY_STOW_3_X) || defined(Z_PROBE_ALLEN_KEY_STOW_3_Y) || defined(Z_PROBE_ALLEN_KEY_STOW_3_Z)
// 2177       #ifndef Z_PROBE_ALLEN_KEY_STOW_3_X
// 2178         #define Z_PROBE_ALLEN_KEY_STOW_3_X current_position[X_AXIS]
// 2179       #endif
// 2180       #ifndef Z_PROBE_ALLEN_KEY_STOW_3_Y
// 2181         #define Z_PROBE_ALLEN_KEY_STOW_3_Y current_position[Y_AXIS]
// 2182       #endif
// 2183       #ifndef Z_PROBE_ALLEN_KEY_STOW_3_Z
// 2184         #define Z_PROBE_ALLEN_KEY_STOW_3_Z current_position[Z_AXIS]
// 2185       #endif
// 2186       #ifndef Z_PROBE_ALLEN_KEY_STOW_3_FEEDRATE
// 2187         #define Z_PROBE_ALLEN_KEY_STOW_3_FEEDRATE 0.0
// 2188       #endif
// 2189       const float stow_3[] = { Z_PROBE_ALLEN_KEY_STOW_3_X, Z_PROBE_ALLEN_KEY_STOW_3_Y, Z_PROBE_ALLEN_KEY_STOW_3_Z };
// 2190       do_blocking_move_to(stow_3, MMM_TO_MMS(Z_PROBE_ALLEN_KEY_STOW_3_FEEDRATE));
// 2191     #endif
// 2192     #if defined(Z_PROBE_ALLEN_KEY_STOW_4_X) || defined(Z_PROBE_ALLEN_KEY_STOW_4_Y) || defined(Z_PROBE_ALLEN_KEY_STOW_4_Z)
// 2193       #ifndef Z_PROBE_ALLEN_KEY_STOW_4_X
// 2194         #define Z_PROBE_ALLEN_KEY_STOW_4_X current_position[X_AXIS]
// 2195       #endif
// 2196       #ifndef Z_PROBE_ALLEN_KEY_STOW_4_Y
// 2197         #define Z_PROBE_ALLEN_KEY_STOW_4_Y current_position[Y_AXIS]
// 2198       #endif
// 2199       #ifndef Z_PROBE_ALLEN_KEY_STOW_4_Z
// 2200         #define Z_PROBE_ALLEN_KEY_STOW_4_Z current_position[Z_AXIS]
// 2201       #endif
// 2202       #ifndef Z_PROBE_ALLEN_KEY_STOW_4_FEEDRATE
// 2203         #define Z_PROBE_ALLEN_KEY_STOW_4_FEEDRATE 0.0
// 2204       #endif
// 2205       const float stow_4[] = { Z_PROBE_ALLEN_KEY_STOW_4_X, Z_PROBE_ALLEN_KEY_STOW_4_Y, Z_PROBE_ALLEN_KEY_STOW_4_Z };
// 2206       do_blocking_move_to(stow_4, MMM_TO_MMS(Z_PROBE_ALLEN_KEY_STOW_4_FEEDRATE));
// 2207     #endif
// 2208     #if defined(Z_PROBE_ALLEN_KEY_STOW_5_X) || defined(Z_PROBE_ALLEN_KEY_STOW_5_Y) || defined(Z_PROBE_ALLEN_KEY_STOW_5_Z)
// 2209       #ifndef Z_PROBE_ALLEN_KEY_STOW_5_X
// 2210         #define Z_PROBE_ALLEN_KEY_STOW_5_X current_position[X_AXIS]
// 2211       #endif
// 2212       #ifndef Z_PROBE_ALLEN_KEY_STOW_5_Y
// 2213         #define Z_PROBE_ALLEN_KEY_STOW_5_Y current_position[Y_AXIS]
// 2214       #endif
// 2215       #ifndef Z_PROBE_ALLEN_KEY_STOW_5_Z
// 2216         #define Z_PROBE_ALLEN_KEY_STOW_5_Z current_position[Z_AXIS]
// 2217       #endif
// 2218       #ifndef Z_PROBE_ALLEN_KEY_STOW_5_FEEDRATE
// 2219         #define Z_PROBE_ALLEN_KEY_STOW_5_FEEDRATE 0.0
// 2220       #endif
// 2221       const float stow_5[] = { Z_PROBE_ALLEN_KEY_STOW_5_X, Z_PROBE_ALLEN_KEY_STOW_5_Y, Z_PROBE_ALLEN_KEY_STOW_5_Z };
// 2222       do_blocking_move_to(stow_5, MMM_TO_MMS(Z_PROBE_ALLEN_KEY_STOW_5_FEEDRATE));
// 2223     #endif
// 2224   }
// 2225 
// 2226 #endif // Z_PROBE_ALLEN_KEY
// 2227 
// 2228 #if ENABLED(PROBING_FANS_OFF)
// 2229 
// 2230   void fans_pause(const bool p) {
// 2231     if (p != fans_paused) {
// 2232       fans_paused = p;
// 2233       if (p)
// 2234         for (uint8_t x = 0; x < FAN_COUNT; x++) {
// 2235           paused_fanSpeeds[x] = fanSpeeds[x];
// 2236           fanSpeeds[x] = 0;
// 2237         }
// 2238       else
// 2239         for (uint8_t x = 0; x < FAN_COUNT; x++)
// 2240           fanSpeeds[x] = paused_fanSpeeds[x];
// 2241     }
// 2242   }
// 2243 
// 2244 #endif // PROBING_FANS_OFF
// 2245 
// 2246 #if HAS_BED_PROBE
// 2247 
// 2248   // TRIGGERED_WHEN_STOWED_TEST can easily be extended to servo probes, ... if needed.
// 2249   #if ENABLED(PROBE_IS_TRIGGERED_WHEN_STOWED_TEST)
// 2250     #if ENABLED(Z_MIN_PROBE_ENDSTOP)
// 2251       #define _TRIGGERED_WHEN_STOWED_TEST (READ(Z_MIN_PROBE_PIN) != Z_MIN_PROBE_ENDSTOP_INVERTING)
// 2252     #else
// 2253       #define _TRIGGERED_WHEN_STOWED_TEST (READ(Z_MIN_PIN) != Z_MIN_ENDSTOP_INVERTING)
// 2254     #endif
// 2255   #endif
// 2256 
// 2257   #if QUIET_PROBING
// 2258     void probing_pause(const bool p) {
// 2259       #if ENABLED(PROBING_HEATERS_OFF)
// 2260         thermalManager.pause(p);
// 2261       #endif
// 2262       #if ENABLED(PROBING_FANS_OFF)
// 2263         fans_pause(p);
// 2264       #endif
// 2265       if (p) safe_delay(
// 2266         #if DELAY_BEFORE_PROBING > 25
// 2267           DELAY_BEFORE_PROBING
// 2268         #else
// 2269           25
// 2270         #endif
// 2271       );
// 2272     }
// 2273   #endif // QUIET_PROBING
// 2274 
// 2275   #if ENABLED(BLTOUCH)
// 2276 
// 2277     void bltouch_command(int angle) {
// 2278       MOVE_SERVO(Z_ENDSTOP_SERVO_NR, angle);  // Give the BL-Touch the command and wait
// 2279       safe_delay(BLTOUCH_DELAY);
// 2280     }
// 2281 
// 2282     bool set_bltouch_deployed(const bool deploy) {
// 2283       if (deploy && TEST_BLTOUCH()) {      // If BL-Touch says it's triggered
// 2284         bltouch_command(BLTOUCH_RESET);    //  try to reset it.
// 2285         bltouch_command(BLTOUCH_DEPLOY);   // Also needs to deploy and stow to
// 2286         bltouch_command(BLTOUCH_STOW);     //  clear the triggered condition.
// 2287         safe_delay(1500);                  // Wait for internal self-test to complete.
// 2288                                            //  (Measured completion time was 0.65 seconds
// 2289                                            //   after reset, deploy, and stow sequence)
// 2290         if (TEST_BLTOUCH()) {              // If it still claims to be triggered...
// 2291           SERIAL_ERROR_START();
// 2292           SERIAL_ERRORLNPGM(MSG_STOP_BLTOUCH);
// 2293           stop();                          // punt!
// 2294           return true;
// 2295         }
// 2296       }
// 2297 
// 2298       bltouch_command(deploy ? BLTOUCH_DEPLOY : BLTOUCH_STOW);
// 2299 
// 2300       #if ENABLED(DEBUG_LEVELING_FEATURE)
// 2301         if (DEBUGGING(LEVELING)) {
// 2302           SERIAL_ECHOPAIR("set_bltouch_deployed(", deploy);
// 2303           SERIAL_CHAR(')');
// 2304           SERIAL_EOL();
// 2305         }
// 2306       #endif
// 2307 
// 2308       return false;
// 2309     }
// 2310 
// 2311   #endif // BLTOUCH
// 2312 
// 2313   // returns false for ok and true for failure
// 2314   bool set_probe_deployed(bool deploy) {
// 2315 
// 2316     #if ENABLED(DEBUG_LEVELING_FEATURE)
// 2317       if (DEBUGGING(LEVELING)) {
// 2318         DEBUG_POS("set_probe_deployed", current_position);
// 2319         SERIAL_ECHOLNPAIR("deploy: ", deploy);
// 2320       }
// 2321     #endif
// 2322 
// 2323     if (endstops.z_probe_enabled == deploy) return false;
// 2324 
// 2325     // Make room for probe
// 2326     //do_probe_raise(_Z_CLEARANCE_DEPLOY_PROBE);
// 2327     do_probe_raise(Z_CLEARANCE_DEPLOY_PROBE>Z_CLEARANCE_BETWEEN_PROBES ? Z_CLEARANCE_DEPLOY_PROBE : Z_CLEARANCE_BETWEEN_PROBES);
// 2328 
// 2329     #if ENABLED(Z_PROBE_SLED) || ENABLED(Z_PROBE_ALLEN_KEY)
// 2330       #if ENABLED(Z_PROBE_SLED)
// 2331         #define _AUE_ARGS true, false, false
// 2332       #else
// 2333         #define _AUE_ARGS
// 2334       #endif
// 2335       if (axis_unhomed_error(_AUE_ARGS)) {
// 2336         SERIAL_ERROR_START();
// 2337         SERIAL_ERRORLNPGM(MSG_STOP_UNHOMED);
// 2338         stop();
// 2339         return true;
// 2340       }
// 2341     #endif
// 2342 
// 2343     const float oldXpos = current_position[X_AXIS],
// 2344                 oldYpos = current_position[Y_AXIS];
// 2345 
// 2346     #ifdef _TRIGGERED_WHEN_STOWED_TEST
// 2347 
// 2348       // If endstop is already false, the Z probe is deployed
// 2349       if (_TRIGGERED_WHEN_STOWED_TEST == deploy) {     // closed after the probe specific actions.
// 2350                                                        // Would a goto be less ugly?
// 2351         //while (!_TRIGGERED_WHEN_STOWED_TEST) idle(); // would offer the opportunity
// 2352                                                        // for a triggered when stowed manual probe.
// 2353 
// 2354         if (!deploy) endstops.enable_z_probe(false); // Switch off triggered when stowed probes early
// 2355                                                      // otherwise an Allen-Key probe can't be stowed.
// 2356     #endif
// 2357 
// 2358         #if ENABLED(SOLENOID_PROBE)
// 2359 
// 2360           #if HAS_SOLENOID_1
// 2361             WRITE(SOL1_PIN, deploy);
// 2362           #endif
// 2363 
// 2364         #elif ENABLED(Z_PROBE_SLED)
// 2365 
// 2366           dock_sled(!deploy);
// 2367 
// 2368         #elif HAS_Z_SERVO_ENDSTOP && DISABLED(BLTOUCH)
// 2369 
// 2370           MOVE_SERVO(Z_ENDSTOP_SERVO_NR, z_servo_angle[deploy ? 0 : 1]);
// 2371 
// 2372         #elif ENABLED(Z_PROBE_ALLEN_KEY)
// 2373 
// 2374           deploy ? run_deploy_moves_script() : run_stow_moves_script();
// 2375 
// 2376         #endif
// 2377 
// 2378     #ifdef _TRIGGERED_WHEN_STOWED_TEST
// 2379       } // _TRIGGERED_WHEN_STOWED_TEST == deploy
// 2380 
// 2381       if (_TRIGGERED_WHEN_STOWED_TEST == deploy) { // State hasn't changed?
// 2382 
// 2383         if (IsRunning()) {
// 2384           SERIAL_ERROR_START();
// 2385           SERIAL_ERRORLNPGM("Z-Probe failed");
// 2386           LCD_ALERTMESSAGEPGM("Err: ZPROBE");
// 2387         }
// 2388         stop();
// 2389         return true;
// 2390 
// 2391       } // _TRIGGERED_WHEN_STOWED_TEST == deploy
// 2392 
// 2393     #endif
// 2394 
// 2395     do_blocking_move_to(oldXpos, oldYpos, current_position[Z_AXIS]); // return to position before deploy
// 2396     endstops.enable_z_probe(deploy);
// 2397     return false;
// 2398   }
// 2399 
// 2400   /**
// 2401    * @brief Used by run_z_probe to do a single Z probe move.
// 2402    *
// 2403    * @param  z        Z destination
// 2404    * @param  fr_mm_s  Feedrate in mm/s
// 2405    * @return true to indicate an error
// 2406    */
// 2407   static bool do_probe_move(const float z, const float fr_mm_m) {
// 2408     #if ENABLED(DEBUG_LEVELING_FEATURE)
// 2409       if (DEBUGGING(LEVELING)) DEBUG_POS(">>> do_probe_move", current_position);
// 2410     #endif
// 2411 
// 2412     // Deploy BLTouch at the start of any probe
// 2413     #if ENABLED(BLTOUCH)
// 2414       if (set_bltouch_deployed(true)) return true;
// 2415     #endif
// 2416 
// 2417     #if QUIET_PROBING
// 2418       probing_pause(true);
// 2419     #endif
// 2420 
// 2421     // Move down until probe triggered
// 2422     do_blocking_move_to_z(z, MMM_TO_MMS(fr_mm_m));
// 2423 
// 2424     // Check to see if the probe was triggered
// 2425     const bool probe_triggered = TEST(Endstops::endstop_hit_bits,
// 2426       #if ENABLED(Z_MIN_PROBE_USES_Z_MIN_ENDSTOP_PIN)
// 2427         Z_MIN
// 2428       #else
// 2429         Z_MIN_PROBE
// 2430       #endif
// 2431     );
// 2432 
// 2433     #if QUIET_PROBING
// 2434       probing_pause(false);
// 2435     #endif
// 2436 
// 2437     // Retract BLTouch immediately after a probe if it was triggered
// 2438     #if ENABLED(BLTOUCH)
// 2439       if (probe_triggered && set_bltouch_deployed(false)) return true;
// 2440     #endif
// 2441 
// 2442     // Clear endstop flags
// 2443     endstops.hit_on_purpose();
// 2444 
// 2445     // Get Z where the steppers were interrupted
// 2446     set_current_from_steppers_for_axis(Z_AXIS);
// 2447 
// 2448     // Tell the planner where we actually are
// 2449     SYNC_PLAN_POSITION_KINEMATIC();
// 2450 
// 2451     #if ENABLED(DEBUG_LEVELING_FEATURE)
// 2452       if (DEBUGGING(LEVELING)) DEBUG_POS("<<< do_probe_move", current_position);
// 2453     #endif
// 2454 
// 2455     return !probe_triggered;
// 2456   }
// 2457 
// 2458   /**
// 2459    * @details Used by probe_pt to do a single Z probe at the current position.
// 2460    *          Leaves current_position[Z_AXIS] at the height where the probe triggered.
// 2461    *
// 2462    * @return The raw Z position where the probe was triggered
// 2463    */
// 2464   static float run_z_probe() {
// 2465 
// 2466     #if ENABLED(DEBUG_LEVELING_FEATURE)
// 2467       if (DEBUGGING(LEVELING)) DEBUG_POS(">>> run_z_probe", current_position);
// 2468     #endif
// 2469 
// 2470     // Prevent stepper_inactive_time from running out and EXTRUDER_RUNOUT_PREVENT from extruding
// 2471     refresh_cmd_timeout();
// 2472 
// 2473     // Double-probing does a fast probe followed by a slow probe
// 2474     #if MULTIPLE_PROBING == 2
// 2475 
// 2476       // Do a first probe at the fast speed
// 2477       if (do_probe_move(-10, Z_PROBE_SPEED_FAST)) return NAN;
// 2478 
// 2479       float first_probe_z = current_position[Z_AXIS];
// 2480 
// 2481       #if ENABLED(DEBUG_LEVELING_FEATURE)
// 2482         if (DEBUGGING(LEVELING)) SERIAL_ECHOLNPAIR("1st Probe Z:", first_probe_z);
// 2483       #endif
// 2484 
// 2485       // move up to make clearance for the probe
// 2486       do_blocking_move_to_z(current_position[Z_AXIS] + Z_CLEARANCE_BETWEEN_PROBES, MMM_TO_MMS(Z_PROBE_SPEED_FAST));
// 2487 
// 2488     #else
// 2489 
// 2490       // If the nozzle is above the travel height then
// 2491       // move down quickly before doing the slow probe
// 2492       float z = Z_CLEARANCE_DEPLOY_PROBE;
// 2493       if (zprobe_zoffset < 0) z -= zprobe_zoffset;
// 2494 
// 2495       if (z < current_position[Z_AXIS]) {
// 2496 
// 2497         // If we don't make it to the z position (i.e. the probe triggered), move up to make clearance for the probe
// 2498         if (!do_probe_move(z, Z_PROBE_SPEED_FAST))
// 2499           do_blocking_move_to_z(current_position[Z_AXIS] + Z_CLEARANCE_BETWEEN_PROBES, MMM_TO_MMS(Z_PROBE_SPEED_FAST));
// 2500       }
// 2501     #endif
// 2502 
// 2503     #if MULTIPLE_PROBING > 2
// 2504       float probes_total = 0;
// 2505       for (uint8_t p = MULTIPLE_PROBING + 1; --p;) {
// 2506     #endif
// 2507 
// 2508         // move down slowly to find bed
// 2509         if (do_probe_move(-10, Z_PROBE_SPEED_SLOW)) return NAN;
// 2510 
// 2511     #if MULTIPLE_PROBING > 2
// 2512         probes_total += current_position[Z_AXIS];
// 2513         if (p > 1) do_blocking_move_to_z(current_position[Z_AXIS] + Z_CLEARANCE_BETWEEN_PROBES, MMM_TO_MMS(Z_PROBE_SPEED_FAST));
// 2514       }
// 2515     #endif
// 2516 
// 2517     #if MULTIPLE_PROBING > 2
// 2518 
// 2519       // Return the average value of all probes
// 2520       return probes_total * (1.0 / (MULTIPLE_PROBING));
// 2521 
// 2522     #elif MULTIPLE_PROBING == 2
// 2523 
// 2524       const float z2 = current_position[Z_AXIS];
// 2525 
// 2526       #if ENABLED(DEBUG_LEVELING_FEATURE)
// 2527         if (DEBUGGING(LEVELING)) {
// 2528           SERIAL_ECHOPAIR("2nd Probe Z:", z2);
// 2529           SERIAL_ECHOLNPAIR(" Discrepancy:", first_probe_z - z2);
// 2530         }
// 2531       #endif
// 2532 
// 2533       // Return a weighted average of the fast and slow probes
// 2534       return (z2 * 3.0 + first_probe_z * 2.0) * 0.2;
// 2535 
// 2536     #else
// 2537 
// 2538       // Return the single probe result
// 2539       return current_position[Z_AXIS];
// 2540 
// 2541     #endif
// 2542 
// 2543     #if ENABLED(DEBUG_LEVELING_FEATURE)
// 2544       if (DEBUGGING(LEVELING)) DEBUG_POS("<<< run_z_probe", current_position);
// 2545     #endif
// 2546   }
// 2547 
// 2548   /**
// 2549    * - Move to the given XY
// 2550    * - Deploy the probe, if not already deployed
// 2551    * - Probe the bed, get the Z position
// 2552    * - Depending on the 'stow' flag
// 2553    *   - Stow the probe, or
// 2554    *   - Raise to the BETWEEN height
// 2555    * - Return the probed Z position
// 2556    */
// 2557   float probe_pt(const float &rx, const float &ry, const bool stow, const uint8_t verbose_level, const bool probe_relative=true) {
// 2558     #if ENABLED(DEBUG_LEVELING_FEATURE)
// 2559       if (DEBUGGING(LEVELING)) {
// 2560         SERIAL_ECHOPAIR(">>> probe_pt(", LOGICAL_X_POSITION(rx));
// 2561         SERIAL_ECHOPAIR(", ", LOGICAL_Y_POSITION(ry));
// 2562         SERIAL_ECHOPAIR(", ", stow ? "" : "no ");
// 2563         SERIAL_ECHOLNPGM("stow)");
// 2564         DEBUG_POS("", current_position);
// 2565       }
// 2566     #endif
// 2567 
// 2568     // TODO: Adapt for SCARA, where the offset rotates
// 2569     float nx = rx, ny = ry;
// 2570     if (probe_relative) {
// 2571       if (!position_is_reachable_by_probe(rx, ry)) return NAN;  // The given position is in terms of the probe
// 2572       nx -= (X_PROBE_OFFSET_FROM_EXTRUDER);                     // Get the nozzle position
// 2573       ny -= (Y_PROBE_OFFSET_FROM_EXTRUDER);
// 2574     }
// 2575     else if (!position_is_reachable(nx, ny)) return NAN;        // The given position is in terms of the nozzle
// 2576 
// 2577     const float nz =
// 2578       #if ENABLED(DELTA)
// 2579         // Move below clip height or xy move will be aborted by do_blocking_move_to
// 2580         min(current_position[Z_AXIS], delta_clip_start_height)
// 2581       #else
// 2582         current_position[Z_AXIS]
// 2583       #endif
// 2584     ;
// 2585 
// 2586     const float old_feedrate_mm_s = feedrate_mm_s;
// 2587     feedrate_mm_s = XY_PROBE_FEEDRATE_MM_S;
// 2588 
// 2589     // Move the probe to the starting XYZ
// 2590     do_blocking_move_to(nx, ny, nz);
// 2591 
// 2592     float measured_z = NAN;
// 2593     if (!DEPLOY_PROBE()) {
// 2594       measured_z = run_z_probe() + zprobe_zoffset;
// 2595 
// 2596       if (!stow)
// 2597         do_blocking_move_to_z(current_position[Z_AXIS] + Z_CLEARANCE_BETWEEN_PROBES, MMM_TO_MMS(Z_PROBE_SPEED_FAST));
// 2598       else
// 2599         if (STOW_PROBE()) measured_z = NAN;
// 2600     }
// 2601 
// 2602     if (verbose_level > 2) {
// 2603       SERIAL_PROTOCOLPGM("Bed X: ");
// 2604       SERIAL_PROTOCOL_F(LOGICAL_X_POSITION(rx), 3);
// 2605       SERIAL_PROTOCOLPGM(" Y: ");
// 2606       SERIAL_PROTOCOL_F(LOGICAL_Y_POSITION(ry), 3);
// 2607       SERIAL_PROTOCOLPGM(" Z: ");
// 2608       SERIAL_PROTOCOL_F(measured_z, 3);
// 2609       SERIAL_EOL();
// 2610     }
// 2611 
// 2612     #if ENABLED(DEBUG_LEVELING_FEATURE)
// 2613       if (DEBUGGING(LEVELING)) SERIAL_ECHOLNPGM("<<< probe_pt");
// 2614     #endif
// 2615 
// 2616     feedrate_mm_s = old_feedrate_mm_s;
// 2617 
// 2618     if (isnan(measured_z)) {
// 2619       LCD_MESSAGEPGM(MSG_ERR_PROBING_FAILED);
// 2620       SERIAL_ERROR_START();
// 2621       SERIAL_ERRORLNPGM(MSG_ERR_PROBING_FAILED);
// 2622     }
// 2623 
// 2624     return measured_z;
// 2625   }
// 2626 
// 2627 #endif // HAS_BED_PROBE
// 2628 
// 2629 #if HAS_LEVELING
// 2630 
// 2631   bool leveling_is_valid() {
// 2632     return
// 2633       #if ENABLED(MESH_BED_LEVELING)
// 2634         mbl.has_mesh
// 2635       #elif ENABLED(AUTO_BED_LEVELING_BILINEAR)
// 2636         !!bilinear_grid_spacing[X_AXIS]
// 2637       #elif ENABLED(AUTO_BED_LEVELING_UBL)
// 2638         true
// 2639       #else // 3POINT, LINEAR
// 2640         true
// 2641       #endif
// 2642     ;
// 2643   }
// 2644 
// 2645   /**
// 2646    * Turn bed leveling on or off, fixing the current
// 2647    * position as-needed.
// 2648    *
// 2649    * Disable: Current position = physical position
// 2650    *  Enable: Current position = "unleveled" physical position
// 2651    */
// 2652   void set_bed_leveling_enabled(const bool enable/*=true*/) {
// 2653 
// 2654     #if ENABLED(AUTO_BED_LEVELING_BILINEAR)
// 2655       const bool can_change = (!enable || leveling_is_valid());
// 2656     #else
// 2657       constexpr bool can_change = true;
// 2658     #endif
// 2659 
// 2660     if (can_change && enable != planner.leveling_active) {
// 2661 
// 2662       #if ENABLED(MESH_BED_LEVELING)
// 2663 
// 2664         if (!enable)
// 2665           planner.apply_leveling(current_position[X_AXIS], current_position[Y_AXIS], current_position[Z_AXIS]);
// 2666 
// 2667         const bool enabling = enable && leveling_is_valid();
// 2668         planner.leveling_active = enabling;
// 2669         if (enabling) planner.unapply_leveling(current_position);
// 2670 
// 2671       #elif ENABLED(AUTO_BED_LEVELING_UBL)
// 2672         #if PLANNER_LEVELING
// 2673           if (planner.leveling_active) {                       // leveling from on to off
// 2674             // change unleveled current_position to physical current_position without moving steppers.
// 2675             planner.apply_leveling(current_position[X_AXIS], current_position[Y_AXIS], current_position[Z_AXIS]);
// 2676             planner.leveling_active = false;                   // disable only AFTER calling apply_leveling
// 2677           }
// 2678           else {                                        // leveling from off to on
// 2679             planner.leveling_active = true;                    // enable BEFORE calling unapply_leveling, otherwise ignored
// 2680             // change physical current_position to unleveled current_position without moving steppers.
// 2681             planner.unapply_leveling(current_position);
// 2682           }
// 2683         #else
// 2684           planner.leveling_active = enable;                    // just flip the bit, current_position will be wrong until next move.
// 2685         #endif
// 2686 
// 2687       #else // ABL
// 2688 
// 2689         #if ENABLED(AUTO_BED_LEVELING_BILINEAR)
// 2690           // Force bilinear_z_offset to re-calculate next time
// 2691           const float reset[XYZ] = { -9999.999, -9999.999, 0 };
// 2692           (void)bilinear_z_offset(reset);
// 2693         #endif
// 2694 
// 2695         // Enable or disable leveling compensation in the planner
// 2696         planner.leveling_active = enable;
// 2697 
// 2698         if (!enable)
// 2699           // When disabling just get the current position from the steppers.
// 2700           // This will yield the smallest error when first converted back to steps.
// 2701           set_current_from_steppers_for_axis(
// 2702             #if ABL_PLANAR
// 2703               ALL_AXES
// 2704             #else
// 2705               Z_AXIS
// 2706             #endif
// 2707           );
// 2708         else
// 2709           // When enabling, remove compensation from the current position,
// 2710           // so compensation will give the right stepper counts.
// 2711           planner.unapply_leveling(current_position);
// 2712 
// 2713         SYNC_PLAN_POSITION_KINEMATIC();
// 2714 
// 2715       #endif // ABL
// 2716     }
// 2717   }
// 2718 
// 2719   #if ENABLED(ENABLE_LEVELING_FADE_HEIGHT)
// 2720 
// 2721     void set_z_fade_height(const float zfh, const bool do_report/*=true*/) {
// 2722 
// 2723       if (planner.z_fade_height == zfh) return; // do nothing if no change
// 2724 
// 2725       const bool level_active = planner.leveling_active;
// 2726 
// 2727       #if ENABLED(AUTO_BED_LEVELING_UBL)
// 2728         if (level_active) set_bed_leveling_enabled(false);  // turn off before changing fade height for proper apply/unapply leveling to maintain current_position
// 2729       #endif
// 2730 
// 2731       planner.set_z_fade_height(zfh);
// 2732 
// 2733       if (level_active) {
// 2734         const float oldpos[] = { current_position[X_AXIS], current_position[Y_AXIS], current_position[Z_AXIS] };
// 2735         #if ENABLED(AUTO_BED_LEVELING_UBL)
// 2736           set_bed_leveling_enabled(true);  // turn back on after changing fade height
// 2737         #else
// 2738           set_current_from_steppers_for_axis(
// 2739             #if ABL_PLANAR
// 2740               ALL_AXES
// 2741             #else
// 2742               Z_AXIS
// 2743             #endif
// 2744           );
// 2745           SYNC_PLAN_POSITION_KINEMATIC();
// 2746         #endif
// 2747         if (do_report && memcmp(oldpos, current_position, sizeof(oldpos)))
// 2748           report_current_position();
// 2749       }
// 2750     }
// 2751 
// 2752   #endif // LEVELING_FADE_HEIGHT
// 2753 
// 2754   /**
// 2755    * Reset calibration results to zero.
// 2756    */
// 2757   void reset_bed_level() {
// 2758     #if ENABLED(DEBUG_LEVELING_FEATURE)
// 2759       if (DEBUGGING(LEVELING)) SERIAL_ECHOLNPGM("reset_bed_level");
// 2760     #endif
// 2761     set_bed_leveling_enabled(false);
// 2762     #if ENABLED(MESH_BED_LEVELING)
// 2763       if (leveling_is_valid()) {
// 2764         mbl.reset();
// 2765         mbl.has_mesh = false;
// 2766       }
// 2767     #elif ENABLED(AUTO_BED_LEVELING_UBL)
// 2768       ubl.reset();
// 2769     #elif ENABLED(AUTO_BED_LEVELING_BILINEAR)
// 2770       bilinear_start[X_AXIS] = bilinear_start[Y_AXIS] =
// 2771       bilinear_grid_spacing[X_AXIS] = bilinear_grid_spacing[Y_AXIS] = 0;
// 2772       for (uint8_t x = 0; x < GRID_MAX_POINTS_X; x++)
// 2773         for (uint8_t y = 0; y < GRID_MAX_POINTS_Y; y++)
// 2774           z_values[x][y] = NAN;
// 2775     #elif ABL_PLANAR
// 2776       planner.bed_level_matrix.set_to_identity();
// 2777     #endif
// 2778   }
// 2779 
// 2780 #endif // HAS_LEVELING
// 2781 
// 2782 #if ENABLED(AUTO_BED_LEVELING_BILINEAR) || ENABLED(MESH_BED_LEVELING)
// 2783 
// 2784   /**
// 2785    * Enable to produce output in JSON format suitable
// 2786    * for SCAD or JavaScript mesh visualizers.
// 2787    *
// 2788    * Visualize meshes in OpenSCAD using the included script.
// 2789    *
// 2790    *   buildroot/shared/scripts/MarlinMesh.scad
// 2791    */
// 2792   //#define SCAD_MESH_OUTPUT
// 2793 
// 2794   /**
// 2795    * Print calibration results for plotting or manual frame adjustment.
// 2796    */
// 2797   static void print_2d_array(const uint8_t sx, const uint8_t sy, const uint8_t precision, float (*fn)(const uint8_t, const uint8_t)) {
// 2798     #ifndef SCAD_MESH_OUTPUT
// 2799       for (uint8_t x = 0; x < sx; x++) {
// 2800         for (uint8_t i = 0; i < precision + 2 + (x < 10 ? 1 : 0); i++)
// 2801           SERIAL_PROTOCOLCHAR(' ');
// 2802         SERIAL_PROTOCOL((int)x);
// 2803       }
// 2804       SERIAL_EOL();
// 2805     #endif
// 2806     #ifdef SCAD_MESH_OUTPUT
// 2807       SERIAL_PROTOCOLLNPGM("measured_z = ["); // open 2D array
// 2808     #endif
// 2809     for (uint8_t y = 0; y < sy; y++) {
// 2810       #ifdef SCAD_MESH_OUTPUT
// 2811         SERIAL_PROTOCOLPGM(" [");           // open sub-array
// 2812       #else
// 2813         if (y < 10) SERIAL_PROTOCOLCHAR(' ');
// 2814         SERIAL_PROTOCOL((int)y);
// 2815       #endif
// 2816       for (uint8_t x = 0; x < sx; x++) {
// 2817         SERIAL_PROTOCOLCHAR(' ');
// 2818         const float offset = fn(x, y);
// 2819         if (!isnan(offset)) {
// 2820           if (offset >= 0) SERIAL_PROTOCOLCHAR('+');
// 2821           SERIAL_PROTOCOL_F(offset, precision);
// 2822         }
// 2823         else {
// 2824           #ifdef SCAD_MESH_OUTPUT
// 2825             for (uint8_t i = 3; i < precision + 3; i++)
// 2826               SERIAL_PROTOCOLCHAR(' ');
// 2827             SERIAL_PROTOCOLPGM("NAN");
// 2828           #else
// 2829             for (uint8_t i = 0; i < precision + 3; i++)
// 2830               SERIAL_PROTOCOLCHAR(i ? '=' : ' ');
// 2831           #endif
// 2832         }
// 2833         #ifdef SCAD_MESH_OUTPUT
// 2834           if (x < sx - 1) SERIAL_PROTOCOLCHAR(',');
// 2835         #endif
// 2836       }
// 2837       #ifdef SCAD_MESH_OUTPUT
// 2838         SERIAL_PROTOCOLCHAR(' ');
// 2839         SERIAL_PROTOCOLCHAR(']');                     // close sub-array
// 2840         if (y < sy - 1) SERIAL_PROTOCOLCHAR(',');
// 2841       #endif
// 2842       SERIAL_EOL();
// 2843     }
// 2844     #ifdef SCAD_MESH_OUTPUT
// 2845       SERIAL_PROTOCOLPGM("];");                       // close 2D array
// 2846     #endif
// 2847     SERIAL_EOL();
// 2848   }
// 2849 
// 2850 #endif
// 2851 
// 2852 #if ENABLED(AUTO_BED_LEVELING_BILINEAR)
// 2853 
// 2854   /**
// 2855    * Extrapolate a single point from its neighbors
// 2856    */
// 2857   static void extrapolate_one_point(const uint8_t x, const uint8_t y, const int8_t xdir, const int8_t ydir) {
// 2858     #if ENABLED(DEBUG_LEVELING_FEATURE)
// 2859       if (DEBUGGING(LEVELING)) {
// 2860         SERIAL_ECHOPGM("Extrapolate [");
// 2861         if (x < 10) SERIAL_CHAR(' ');
// 2862         SERIAL_ECHO((int)x);
// 2863         SERIAL_CHAR(xdir ? (xdir > 0 ? '+' : '-') : ' ');
// 2864         SERIAL_CHAR(' ');
// 2865         if (y < 10) SERIAL_CHAR(' ');
// 2866         SERIAL_ECHO((int)y);
// 2867         SERIAL_CHAR(ydir ? (ydir > 0 ? '+' : '-') : ' ');
// 2868         SERIAL_CHAR(']');
// 2869       }
// 2870     #endif
// 2871     if (!isnan(z_values[x][y])) {
// 2872       #if ENABLED(DEBUG_LEVELING_FEATURE)
// 2873         if (DEBUGGING(LEVELING)) SERIAL_ECHOLNPGM(" (done)");
// 2874       #endif
// 2875       return;  // Don't overwrite good values.
// 2876     }
// 2877     SERIAL_EOL();
// 2878 
// 2879     // Get X neighbors, Y neighbors, and XY neighbors
// 2880     const uint8_t x1 = x + xdir, y1 = y + ydir, x2 = x1 + xdir, y2 = y1 + ydir;
// 2881     float a1 = z_values[x1][y ], a2 = z_values[x2][y ],
// 2882           b1 = z_values[x ][y1], b2 = z_values[x ][y2],
// 2883           c1 = z_values[x1][y1], c2 = z_values[x2][y2];
// 2884 
// 2885     // Treat far unprobed points as zero, near as equal to far
// 2886     if (isnan(a2)) a2 = 0.0; if (isnan(a1)) a1 = a2;
// 2887     if (isnan(b2)) b2 = 0.0; if (isnan(b1)) b1 = b2;
// 2888     if (isnan(c2)) c2 = 0.0; if (isnan(c1)) c1 = c2;
// 2889 
// 2890     const float a = 2 * a1 - a2, b = 2 * b1 - b2, c = 2 * c1 - c2;
// 2891 
// 2892     // Take the average instead of the median
// 2893     z_values[x][y] = (a + b + c) / 3.0;
// 2894 
// 2895     // Median is robust (ignores outliers).
// 2896     // z_values[x][y] = (a < b) ? ((b < c) ? b : (c < a) ? a : c)
// 2897     //                                : ((c < b) ? b : (a < c) ? a : c);
// 2898   }
// 2899 
// 2900   //Enable this if your SCARA uses 180° of total area
// 2901   //#define EXTRAPOLATE_FROM_EDGE
// 2902 
// 2903   #if ENABLED(EXTRAPOLATE_FROM_EDGE)
// 2904     #if GRID_MAX_POINTS_X < GRID_MAX_POINTS_Y
// 2905       #define HALF_IN_X
// 2906     #elif GRID_MAX_POINTS_Y < GRID_MAX_POINTS_X
// 2907       #define HALF_IN_Y
// 2908     #endif
// 2909   #endif
// 2910 
// 2911   /**
// 2912    * Fill in the unprobed points (corners of circular print surface)
// 2913    * using linear extrapolation, away from the center.
// 2914    */
// 2915   static void extrapolate_unprobed_bed_level() {
// 2916     #ifdef HALF_IN_X
// 2917       constexpr uint8_t ctrx2 = 0, xlen = GRID_MAX_POINTS_X - 1;
// 2918     #else
// 2919       constexpr uint8_t ctrx1 = (GRID_MAX_POINTS_X - 1) / 2, // left-of-center
// 2920                         ctrx2 = (GRID_MAX_POINTS_X) / 2,     // right-of-center
// 2921                         xlen = ctrx1;
// 2922     #endif
// 2923 
// 2924     #ifdef HALF_IN_Y
// 2925       constexpr uint8_t ctry2 = 0, ylen = GRID_MAX_POINTS_Y - 1;
// 2926     #else
// 2927       constexpr uint8_t ctry1 = (GRID_MAX_POINTS_Y - 1) / 2, // top-of-center
// 2928                         ctry2 = (GRID_MAX_POINTS_Y) / 2,     // bottom-of-center
// 2929                         ylen = ctry1;
// 2930     #endif
// 2931 
// 2932     for (uint8_t xo = 0; xo <= xlen; xo++)
// 2933       for (uint8_t yo = 0; yo <= ylen; yo++) {
// 2934         uint8_t x2 = ctrx2 + xo, y2 = ctry2 + yo;
// 2935         #ifndef HALF_IN_X
// 2936           const uint8_t x1 = ctrx1 - xo;
// 2937         #endif
// 2938         #ifndef HALF_IN_Y
// 2939           const uint8_t y1 = ctry1 - yo;
// 2940           #ifndef HALF_IN_X
// 2941             extrapolate_one_point(x1, y1, +1, +1);   //  left-below + +
// 2942           #endif
// 2943           extrapolate_one_point(x2, y1, -1, +1);     // right-below - +
// 2944         #endif
// 2945         #ifndef HALF_IN_X
// 2946           extrapolate_one_point(x1, y2, +1, -1);     //  left-above + -
// 2947         #endif
// 2948         extrapolate_one_point(x2, y2, -1, -1);       // right-above - -
// 2949       }
// 2950 
// 2951   }
// 2952 
// 2953   static void print_bilinear_leveling_grid() {
// 2954     SERIAL_ECHOLNPGM("Bilinear Leveling Grid:");
// 2955     print_2d_array(GRID_MAX_POINTS_X, GRID_MAX_POINTS_Y, 3,
// 2956       [](const uint8_t ix, const uint8_t iy) { return z_values[ix][iy]; }
// 2957     );
// 2958   }
// 2959 
// 2960   #if ENABLED(ABL_BILINEAR_SUBDIVISION)
// 2961 
// 2962     #define ABL_GRID_POINTS_VIRT_X (GRID_MAX_POINTS_X - 1) * (BILINEAR_SUBDIVISIONS) + 1
// 2963     #define ABL_GRID_POINTS_VIRT_Y (GRID_MAX_POINTS_Y - 1) * (BILINEAR_SUBDIVISIONS) + 1
// 2964     #define ABL_TEMP_POINTS_X (GRID_MAX_POINTS_X + 2)
// 2965     #define ABL_TEMP_POINTS_Y (GRID_MAX_POINTS_Y + 2)
// 2966     float z_values_virt[ABL_GRID_POINTS_VIRT_X][ABL_GRID_POINTS_VIRT_Y];
// 2967     int bilinear_grid_spacing_virt[2] = { 0 };
// 2968     float bilinear_grid_factor_virt[2] = { 0 };
// 2969 
// 2970     static void print_bilinear_leveling_grid_virt() {
// 2971       SERIAL_ECHOLNPGM("Subdivided with CATMULL ROM Leveling Grid:");
// 2972       print_2d_array(ABL_GRID_POINTS_VIRT_X, ABL_GRID_POINTS_VIRT_Y, 5,
// 2973         [](const uint8_t ix, const uint8_t iy) { return z_values_virt[ix][iy]; }
// 2974       );
// 2975     }
// 2976 
// 2977     #define LINEAR_EXTRAPOLATION(E, I) ((E) * 2 - (I))
// 2978     float bed_level_virt_coord(const uint8_t x, const uint8_t y) {
// 2979       uint8_t ep = 0, ip = 1;
// 2980       if (!x || x == ABL_TEMP_POINTS_X - 1) {
// 2981         if (x) {
// 2982           ep = GRID_MAX_POINTS_X - 1;
// 2983           ip = GRID_MAX_POINTS_X - 2;
// 2984         }
// 2985         if (WITHIN(y, 1, ABL_TEMP_POINTS_Y - 2))
// 2986           return LINEAR_EXTRAPOLATION(
// 2987             z_values[ep][y - 1],
// 2988             z_values[ip][y - 1]
// 2989           );
// 2990         else
// 2991           return LINEAR_EXTRAPOLATION(
// 2992             bed_level_virt_coord(ep + 1, y),
// 2993             bed_level_virt_coord(ip + 1, y)
// 2994           );
// 2995       }
// 2996       if (!y || y == ABL_TEMP_POINTS_Y - 1) {
// 2997         if (y) {
// 2998           ep = GRID_MAX_POINTS_Y - 1;
// 2999           ip = GRID_MAX_POINTS_Y - 2;
// 3000         }
// 3001         if (WITHIN(x, 1, ABL_TEMP_POINTS_X - 2))
// 3002           return LINEAR_EXTRAPOLATION(
// 3003             z_values[x - 1][ep],
// 3004             z_values[x - 1][ip]
// 3005           );
// 3006         else
// 3007           return LINEAR_EXTRAPOLATION(
// 3008             bed_level_virt_coord(x, ep + 1),
// 3009             bed_level_virt_coord(x, ip + 1)
// 3010           );
// 3011       }
// 3012       return z_values[x - 1][y - 1];
// 3013     }
// 3014 
// 3015     static float bed_level_virt_cmr(const float p[4], const uint8_t i, const float t) {
// 3016       return (
// 3017           p[i-1] * -t * sq(1 - t)
// 3018         + p[i]   * (2 - 5 * sq(t) + 3 * t * sq(t))
// 3019         + p[i+1] * t * (1 + 4 * t - 3 * sq(t))
// 3020         - p[i+2] * sq(t) * (1 - t)
// 3021       ) * 0.5;
// 3022     }
// 3023 
// 3024     static float bed_level_virt_2cmr(const uint8_t x, const uint8_t y, const float &tx, const float &ty) {
// 3025       float row[4], column[4];
// 3026       for (uint8_t i = 0; i < 4; i++) {
// 3027         for (uint8_t j = 0; j < 4; j++) {
// 3028           column[j] = bed_level_virt_coord(i + x - 1, j + y - 1);
// 3029         }
// 3030         row[i] = bed_level_virt_cmr(column, 1, ty);
// 3031       }
// 3032       return bed_level_virt_cmr(row, 1, tx);
// 3033     }
// 3034 
// 3035     void bed_level_virt_interpolate() {
// 3036       bilinear_grid_spacing_virt[X_AXIS] = bilinear_grid_spacing[X_AXIS] / (BILINEAR_SUBDIVISIONS);
// 3037       bilinear_grid_spacing_virt[Y_AXIS] = bilinear_grid_spacing[Y_AXIS] / (BILINEAR_SUBDIVISIONS);
// 3038       bilinear_grid_factor_virt[X_AXIS] = RECIPROCAL(bilinear_grid_spacing_virt[X_AXIS]);
// 3039       bilinear_grid_factor_virt[Y_AXIS] = RECIPROCAL(bilinear_grid_spacing_virt[Y_AXIS]);
// 3040       for (uint8_t y = 0; y < GRID_MAX_POINTS_Y; y++)
// 3041         for (uint8_t x = 0; x < GRID_MAX_POINTS_X; x++)
// 3042           for (uint8_t ty = 0; ty < BILINEAR_SUBDIVISIONS; ty++)
// 3043             for (uint8_t tx = 0; tx < BILINEAR_SUBDIVISIONS; tx++) {
// 3044               if ((ty && y == GRID_MAX_POINTS_Y - 1) || (tx && x == GRID_MAX_POINTS_X - 1))
// 3045                 continue;
// 3046               z_values_virt[x * (BILINEAR_SUBDIVISIONS) + tx][y * (BILINEAR_SUBDIVISIONS) + ty] =
// 3047                 bed_level_virt_2cmr(
// 3048                   x + 1,
// 3049                   y + 1,
// 3050                   (float)tx / (BILINEAR_SUBDIVISIONS),
// 3051                   (float)ty / (BILINEAR_SUBDIVISIONS)
// 3052                 );
// 3053             }
// 3054     }
// 3055   #endif // ABL_BILINEAR_SUBDIVISION
// 3056 
// 3057   // Refresh after other values have been updated
// 3058   void refresh_bed_level() {
// 3059     bilinear_grid_factor[X_AXIS] = RECIPROCAL(bilinear_grid_spacing[X_AXIS]);
// 3060     bilinear_grid_factor[Y_AXIS] = RECIPROCAL(bilinear_grid_spacing[Y_AXIS]);
// 3061     #if ENABLED(ABL_BILINEAR_SUBDIVISION)
// 3062       bed_level_virt_interpolate();
// 3063     #endif
// 3064   }
// 3065 
// 3066 #endif // AUTO_BED_LEVELING_BILINEAR
// 3067 
// 3068 /**
// 3069  * Home an individual linear axis
// 3070  */

        SECTION `.text`:CODE:NOROOT(1)
          CFI Block cfiBlock34 Using cfiCommon0
          CFI Function _Z14do_homing_move8AxisEnumff
        THUMB
// 3071 static void do_homing_move(const AxisEnum axis, const float distance, const float fr_mm_s=0.0) {
_Z14do_homing_move8AxisEnumff:
        PUSH     {R3-R5,LR}
          CFI R14 Frame(CFA, -4)
          CFI R5 Frame(CFA, -8)
          CFI R4 Frame(CFA, -12)
          CFI CFA R13+16
        VPUSH    {D8}
          CFI D8 Frame(CFA, -24)
          CFI CFA R13+24
        SUB      SP,SP,#+8
          CFI CFA R13+32
        VMOV.F32 S16,S0
        VMOV.F32 S17,S1
        LDR.N    R4,??DataTable92_9
        ADD      R5,R4,R0, LSL #+2
        MOVS     R0,#+0
        STR      R0,[R5, #+32]
// 3072 
// 3073   #if ENABLED(DEBUG_LEVELING_FEATURE)
// 3074     if (DEBUGGING(LEVELING)) {
// 3075       SERIAL_ECHOPAIR(">>> do_homing_move(", axis_codes[axis]);
// 3076       SERIAL_ECHOPAIR(", ", distance);
// 3077       SERIAL_ECHOPAIR(", ", fr_mm_s);
// 3078       SERIAL_CHAR(')');
// 3079       SERIAL_EOL();
// 3080     }
// 3081   #endif
// 3082 
// 3083 //  #if HOMING_Z_WITH_PROBE && ENABLED(BLTOUCH)
// 3084 #if 0    
// 3085     const bool deploy_bltouch = (axis == Z_AXIS && distance < 0);
// 3086     if (deploy_bltouch) set_bltouch_deployed(true);
// 3087   #endif
// 3088 
// 3089   #if QUIET_PROBING
// 3090     if (axis == Z_AXIS) probing_pause(true);
// 3091   #endif
// 3092 
// 3093   // Tell the planner the axis is at 0
// 3094   current_position[axis] = 0;
// 3095 
// 3096   #if IS_SCARA
// 3097     SYNC_PLAN_POSITION_KINEMATIC();
// 3098     current_position[axis] = distance;
// 3099     inverse_kinematics(current_position);
// 3100     planner.buffer_line(delta[A_AXIS], delta[B_AXIS], delta[C_AXIS], current_position[E_AXIS], fr_mm_s ? fr_mm_s : homing_feedrate(axis), active_extruder);
// 3101   #else
// 3102     sync_plan_position();
          CFI FunCall _Z18sync_plan_positionv
        BL       _Z18sync_plan_positionv
// 3103     current_position[axis] = distance;
        VSTR     S16,[R5, #+32]
// 3104     //planner.buffer_line(current_position[X_AXIS], current_position[Y_AXIS], current_position[Z_AXIS], current_position[E_AXIS], fr_mm_s ? fr_mm_s : homing_feedrate(axis), active_extruder);
// 3105     planner.buffer_line(current_position[X_AXIS], current_position[Y_AXIS], current_position[Z_AXIS], current_position[E_AXIS], fr_mm_s ? fr_mm_s : homing_feedrate_mm_s[axis], active_extruder);
        VCMP.F32 S17,#0.0
        FMSTAT   
        BEQ.N    ??do_homing_move_0
        VSTR     S17,[SP, #+0]
        B.N      ??do_homing_move_1
??do_homing_move_0:
        LDR      R0,[R5, #+64]
        STR      R0,[SP, #+0]
??do_homing_move_1:
        LDRB     R2,[R4, #+18]
        ADD      R1,SP,#+0
        ADD      R0,R4,#+44
        VLDR     S2,[R4, #+40]
        VLDR     S1,[R4, #+36]
        VLDR     S0,[R4, #+32]
          CFI FunCall _ZN7Planner11buffer_lineEfffRKfS1_h
        BL       _ZN7Planner11buffer_lineEfffRKfS1_h
// 3106 
// 3107   #endif
// 3108 
// 3109   stepper.synchronize();
          CFI FunCall _ZN7Stepper11synchronizeEv
        BL       _ZN7Stepper11synchronizeEv
// 3110 
// 3111   #if QUIET_PROBING
// 3112     if (axis == Z_AXIS) probing_pause(false);
// 3113   #endif
// 3114 
// 3115 //  #if HOMING_Z_WITH_PROBE && ENABLED(BLTOUCH)
// 3116 #if 0    
// 3117     if (deploy_bltouch) set_bltouch_deployed(false);
// 3118   #endif
// 3119 
// 3120   endstops.hit_on_purpose();
          CFI FunCall _ZN8Endstops14hit_on_purposeEv
        BL       _ZN8Endstops14hit_on_purposeEv
// 3121 
// 3122   #if ENABLED(DEBUG_LEVELING_FEATURE)
// 3123     if (DEBUGGING(LEVELING)) {
// 3124       SERIAL_ECHOPAIR("<<< do_homing_move(", axis_codes[axis]);
// 3125       SERIAL_CHAR(')');
// 3126       SERIAL_EOL();
// 3127     }
// 3128   #endif
// 3129 }
        ADD      SP,SP,#+8
          CFI CFA R13+24
        VPOP     {D8}
          CFI D8 SameValue
          CFI CFA R13+16
        POP      {R0,R4,R5,PC}    ;; return
          CFI EndBlock cfiBlock34
// 3130 
// 3131 /**
// 3132  * TMC2130 specific sensorless homing using stallGuard2.
// 3133  * stallGuard2 only works when in spreadCycle mode.
// 3134  * spreadCycle and stealthChop are mutually exclusive.
// 3135  */
// 3136 #if ENABLED(SENSORLESS_HOMING)
// 3137   template<typename TMC>
// 3138   void tmc_sensorless_homing(TMC &st, bool enable=true) {
// 3139     #if ENABLED(STEALTHCHOP)
// 3140       if (enable) {
// 3141         st.coolstep_min_speed(1024UL * 1024UL - 1UL);
// 3142         st.stealthChop(0);
// 3143       }
// 3144       else {
// 3145         st.coolstep_min_speed(0);
// 3146         st.stealthChop(1);
// 3147       }
// 3148     #endif
// 3149 
// 3150     st.diag1_stall(enable ? 1 : 0);
// 3151   }
// 3152 #endif
// 3153 
// 3154 /**
// 3155  * Home an individual "raw axis" to its endstop.
// 3156  * This applies to XYZ on Cartesian and Core robots, and
// 3157  * to the individual ABC steppers on DELTA and SCARA.
// 3158  *
// 3159  * At the end of the procedure the axis is marked as
// 3160  * homed and the current position of that axis is updated.
// 3161  * Kinematic robots should wait till all axes are homed
// 3162  * before updating the current position.
// 3163  */
// 3164 
// 3165 #define HOMEAXIS(LETTER) homeaxis(LETTER##_AXIS)
// 3166 

        SECTION `.text`:CODE:NOROOT(2)
          CFI Block cfiBlock35 Using cfiCommon0
          CFI Function _Z8homeaxis8AxisEnum
        THUMB
// 3167 static void homeaxis(const AxisEnum axis) {
_Z8homeaxis8AxisEnum:
        PUSH     {R3-R9,LR}
          CFI R14 Frame(CFA, -4)
          CFI R9 Frame(CFA, -8)
          CFI R8 Frame(CFA, -12)
          CFI R7 Frame(CFA, -16)
          CFI R6 Frame(CFA, -20)
          CFI R5 Frame(CFA, -24)
          CFI R4 Frame(CFA, -28)
          CFI CFA R13+32
        VPUSH    {D8}
          CFI D8 Frame(CFA, -40)
          CFI CFA R13+40
        MOV      R4,R0
// 3168 
// 3169   #if IS_SCARA
// 3170     // Only Z homing (with probe) is permitted
// 3171     if (axis != Z_AXIS) { BUZZ(100, 880); return; }
// 3172   #else
// 3173     #define CAN_HOME(A) \ 
// 3174       (axis == A##_AXIS && ((A##_MIN_PIN > -1 && A##_HOME_DIR < 0) || (A##_MAX_PIN > -1 && A##_HOME_DIR > 0)))
// 3175     if (!CAN_HOME(X) && !CAN_HOME(Y) && !CAN_HOME(Z)) return;
        MOV      R5,R4
        CMP      R5,#+2
        BNE.N    ??homeaxis_0
        LDR.N    R0,??DataTable92_8
        LDRSB    R0,[R0, #+1]
        CMP      R0,#+0
        BEQ.N    ??homeaxis_0
// 3176   #endif
// 3177 
// 3178   #if ENABLED(DEBUG_LEVELING_FEATURE)
// 3179     if (DEBUGGING(LEVELING)) {
// 3180       SERIAL_ECHOPAIR(">>> homeaxis(", axis_codes[axis]);
// 3181       SERIAL_CHAR(')');
// 3182       SERIAL_EOL();
// 3183     }
// 3184   #endif
// 3185 
// 3186   const int axis_home_dir =
// 3187     #if ENABLED(DUAL_X_CARRIAGE)
// 3188       (axis == X_AXIS) ? x_home_dir(active_extruder) :
// 3189     #endif
// 3190     home_dir(axis);
        MOV      R0,R4
          CFI FunCall _Z8home_dir8AxisEnum
        BL       _Z8home_dir8AxisEnum
        VMOV     S17,R0
// 3191 
// 3192   // Homing Z towards the bed? Deploy the Z probe or endstop.
// 3193   #if HOMING_Z_WITH_PROBE
// 3194     if (axis == Z_AXIS && DEPLOY_PROBE()) return;
// 3195   #endif
// 3196 
// 3197   // Set flags for X, Y, Z motor locking
// 3198   #if ENABLED(X_DUAL_ENDSTOPS)
// 3199     if (axis == X_AXIS) stepper.set_homing_flag_x(true);
// 3200   #endif
// 3201   #if ENABLED(Y_DUAL_ENDSTOPS)
// 3202     if (axis == Y_AXIS) stepper.set_homing_flag_y(true);
// 3203   #endif
// 3204   #if ENABLED(Z_DUAL_ENDSTOPS)
// 3205     if (axis == Z_AXIS) stepper.set_homing_flag_z(true);
// 3206   #endif
// 3207 
// 3208   // Disable stealthChop if used. Enable diag1 pin on driver.
// 3209   #if ENABLED(SENSORLESS_HOMING)
// 3210     #if ENABLED(X_IS_TMC2130)
// 3211       if (axis == X_AXIS) tmc_sensorless_homing(stepperX);
// 3212     #endif
// 3213     #if ENABLED(Y_IS_TMC2130)
// 3214       if (axis == Y_AXIS) tmc_sensorless_homing(stepperY);
// 3215     #endif
// 3216   #endif
// 3217 
// 3218   // Fast move towards endstop until triggered
// 3219   #if ENABLED(DEBUG_LEVELING_FEATURE)
// 3220     if (DEBUGGING(LEVELING)) SERIAL_ECHOLNPGM("Home 1 Fast:");
// 3221   #endif
// 3222   mksdlp.quick_stop_ena = false;
        LDR.N    R6,??DataTable92_6
        MOVS     R0,#+0
        STRB     R0,[R6, #+3245]
// 3223   do_homing_move(axis, 1.5 * max_length(axis) * axis_home_dir);
        MOV      R0,R4
          CFI FunCall _Z10max_length8AxisEnum
        BL       _Z10max_length8AxisEnum
        VLDR.W   S1,??DataTable91_1  ;; 0x0
        VMOV.F32 S16,S1
        VMOV     R0,S0
          CFI FunCall __aeabi_f2d
        BL       __aeabi_f2d
        MOVS     R2,#+0
        LDR.W    R3,??DataTable99_5  ;; 0x3ff80000
          CFI FunCall __aeabi_dmul
        BL       __aeabi_dmul
        MOV      R8,R0
        MOV      R9,R1
        VMOV     R0,S17
          CFI FunCall __aeabi_i2d
        BL       __aeabi_i2d
        MOV      R2,R8
        MOV      R3,R9
          CFI FunCall __aeabi_dmul
        BL       __aeabi_dmul
          CFI FunCall __aeabi_d2f
        BL       __aeabi_d2f
        VMOV     S0,R0
        VMOV.F32 S1,S16
        MOV      R0,R4
          CFI FunCall _Z14do_homing_move8AxisEnumff
        BL       _Z14do_homing_move8AxisEnumff
// 3224   
// 3225   mksdlp.buzzer_tone(500,100,2);
        ADDW     R7,R6,#+2500
        MOVS     R3,#+2
        MOVS     R2,#+100
        MOV      R1,#+500
        MOV      R0,R7
          CFI FunCall _ZN7MKS_DLP11buzzer_toneEtth
        BL       _ZN7MKS_DLP11buzzer_toneEtth
// 3226   // When homing Z with probe respect probe clearance
// 3227   const float bump = axis_home_dir * (
// 3228     //#if HOMING_Z_WITH_PROBE
// 3229 #if 0                                 
// 3230       (axis == Z_AXIS) ? max(Z_CLEARANCE_BETWEEN_PROBES, home_bump_mm(Z_AXIS)) :
// 3231     #endif
// 3232     home_bump_mm(axis)
// 3233   );
        VCVT.F32.S32 S16,S17
        MOV      R0,R4
          CFI FunCall _Z12home_bump_mm8AxisEnum
        BL       _Z12home_bump_mm8AxisEnum
        VMUL.F32 S16,S16,S0
// 3234 
// 3235   // If a second homing move is configured...
// 3236   if (bump) {
        VCMP.F32 S16,#0.0
        FMSTAT   
        BEQ.N    ??homeaxis_1
// 3237     // Move away from the endstop by the axis HOME_BUMP_MM
// 3238     #if ENABLED(DEBUG_LEVELING_FEATURE)
// 3239       if (DEBUGGING(LEVELING)) SERIAL_ECHOLNPGM("Move Away:");
// 3240     #endif
// 3241 	if(!mksdlp.quick_stop_ena)
        LDRB     R0,[R6, #+3245]
        CMP      R0,#+0
        BNE.N    ??homeaxis_2
// 3242 		{
// 3243 	    do_homing_move(axis, -bump);
        VLDR.W   S1,??DataTable91_1  ;; 0x0
        VNEG.F32 S0,S16
        MOV      R0,R4
          CFI FunCall _Z14do_homing_move8AxisEnumff
        BL       _Z14do_homing_move8AxisEnumff
// 3244 		}
// 3245     // Slow move towards endstop until triggered
// 3246     #if ENABLED(DEBUG_LEVELING_FEATURE)
// 3247       if (DEBUGGING(LEVELING)) SERIAL_ECHOLNPGM("Home 2 Slow:");
// 3248     #endif
// 3249 	if(!mksdlp.quick_stop_ena)
??homeaxis_2:
        LDRB     R0,[R6, #+3245]
        CMP      R0,#+0
        BNE.N    ??homeaxis_1
// 3250 		{
// 3251   	  	do_homing_move(axis, 2 * bump, get_homing_bump_feedrate(axis));
        MOV      R0,R4
          CFI FunCall _Z24get_homing_bump_feedrate8AxisEnum
        BL       _Z24get_homing_bump_feedrate8AxisEnum
        VMOV.F32 S1,S0
        VMOV.F32 S0,#2.0
        VMUL.F32 S0,S16,S0
        MOV      R0,R4
          CFI FunCall _Z14do_homing_move8AxisEnumff
        BL       _Z14do_homing_move8AxisEnumff
// 3252 		mksdlp.buzzer_tone(500,100,2);
        MOVS     R3,#+2
        MOVS     R2,#+100
        MOV      R1,#+500
        MOV      R0,R7
          CFI FunCall _ZN7MKS_DLP11buzzer_toneEtth
        BL       _ZN7MKS_DLP11buzzer_toneEtth
// 3253 		}
// 3254   }
// 3255 
// 3256   /**
// 3257    * Home axes that have dual endstops... differently
// 3258    */
// 3259   #if ENABLED(X_DUAL_ENDSTOPS) || ENABLED(Y_DUAL_ENDSTOPS) || ENABLED(Z_DUAL_ENDSTOPS)
// 3260     const bool pos_dir = axis_home_dir > 0;
// 3261     #if ENABLED(X_DUAL_ENDSTOPS)
// 3262       if (axis == X_AXIS) {
// 3263         const bool lock_x1 = pos_dir ? (x_endstop_adj > 0) : (x_endstop_adj < 0);
// 3264         const float adj = FABS(x_endstop_adj);
// 3265         if (lock_x1) stepper.set_x_lock(true); else stepper.set_x2_lock(true);
// 3266         do_homing_move(axis, pos_dir ? -adj : adj);
// 3267         if (lock_x1) stepper.set_x_lock(false); else stepper.set_x2_lock(false);
// 3268         stepper.set_homing_flag_x(false);
// 3269       }
// 3270     #endif
// 3271     #if ENABLED(Y_DUAL_ENDSTOPS)
// 3272       if (axis == Y_AXIS) {
// 3273         const bool lock_y1 = pos_dir ? (y_endstop_adj > 0) : (y_endstop_adj < 0);
// 3274         const float adj = FABS(y_endstop_adj);
// 3275         if (lock_y1) stepper.set_y_lock(true); else stepper.set_y2_lock(true);
// 3276         do_homing_move(axis, pos_dir ? -adj : adj);
// 3277         if (lock_y1) stepper.set_y_lock(false); else stepper.set_y2_lock(false);
// 3278         stepper.set_homing_flag_y(false);
// 3279       }
// 3280     #endif
// 3281     #if ENABLED(Z_DUAL_ENDSTOPS)
// 3282       if (axis == Z_AXIS) {
// 3283         const bool lock_z1 = pos_dir ? (z_endstop_adj > 0) : (z_endstop_adj < 0);
// 3284         const float adj = FABS(z_endstop_adj);
// 3285         if (lock_z1) stepper.set_z_lock(true); else stepper.set_z2_lock(true);
// 3286         do_homing_move(axis, pos_dir ? -adj : adj);
// 3287         if (lock_z1) stepper.set_z_lock(false); else stepper.set_z2_lock(false);
// 3288         stepper.set_homing_flag_z(false);
// 3289       }
// 3290     #endif
// 3291   #endif
// 3292 
// 3293   #if IS_SCARA
// 3294 
// 3295     set_axis_is_at_home(axis);
// 3296     SYNC_PLAN_POSITION_KINEMATIC();
// 3297 
// 3298   #elif ENABLED(DELTA)
// 3299 
// 3300     // Delta has already moved all three towers up in G28
// 3301     // so here it re-homes each tower in turn.
// 3302     // Delta homing treats the axes as normal linear axes.
// 3303 
// 3304     // retrace by the amount specified in delta_endstop_adj + additional 0.1mm in order to have minimum steps
// 3305     if (delta_endstop_adj[axis] * Z_HOME_DIR <= 0) {
// 3306       #if ENABLED(DEBUG_LEVELING_FEATURE)
// 3307         if (DEBUGGING(LEVELING)) SERIAL_ECHOLNPGM("delta_endstop_adj:");
// 3308       #endif
// 3309       do_homing_move(axis, delta_endstop_adj[axis] - 0.1 * Z_HOME_DIR);
// 3310     }
// 3311 
// 3312   #else
// 3313 
// 3314     // For cartesian/core machines,
// 3315     // set the axis to its home position
// 3316     axis_homed[Z_AXIS]=false;
??homeaxis_1:
        LDR.N    R7,??DataTable92_9
        MOVS     R0,#+0
        STRB     R0,[R7, #+6]
// 3317   if(!mksdlp.quick_stop_ena)
        LDRB     R0,[R6, #+3245]
        CMP      R0,#+0
        BNE.N    ??homeaxis_0
// 3318   	{
// 3319     set_axis_is_at_home(axis);
        MOV      R0,R4
          CFI FunCall _Z19set_axis_is_at_home8AxisEnum
        BL       _Z19set_axis_is_at_home8AxisEnum
// 3320     sync_plan_position();
          CFI FunCall _Z18sync_plan_positionv
        BL       _Z18sync_plan_positionv
// 3321     destination[axis] = current_position[axis];
        ADD      R0,R7,R5, LSL #+2
        LDR      R1,[R0, #+32]
        STR      R1,[R0, #+48]
// 3322   	}
// 3323     #if ENABLED(DEBUG_LEVELING_FEATURE)
// 3324       if (DEBUGGING(LEVELING)) DEBUG_POS("> AFTER set_axis_is_at_home", current_position);
// 3325     #endif
// 3326 
// 3327   #endif
// 3328 
// 3329   // Re-enable stealthChop if used. Disable diag1 pin on driver.
// 3330   #if ENABLED(SENSORLESS_HOMING)
// 3331     #if ENABLED(X_IS_TMC2130)
// 3332       if (axis == X_AXIS) tmc_sensorless_homing(stepperX, false);
// 3333     #endif
// 3334     #if ENABLED(Y_IS_TMC2130)
// 3335       if (axis == Y_AXIS) tmc_sensorless_homing(stepperY, false);
// 3336     #endif
// 3337   #endif
// 3338 
// 3339   // Put away the Z probe
// 3340   //#if HOMING_Z_WITH_PROBE
// 3341 #if 0      
// 3342     if (axis == Z_AXIS && STOW_PROBE()) return;
// 3343   #endif
// 3344 
// 3345   #if ENABLED(DEBUG_LEVELING_FEATURE)
// 3346     if (DEBUGGING(LEVELING)) {
// 3347       SERIAL_ECHOPAIR("<<< homeaxis(", axis_codes[axis]);
// 3348       SERIAL_CHAR(')');
// 3349       SERIAL_EOL();
// 3350     }
// 3351   #endif
// 3352 } // homeaxis()
??homeaxis_0:
        VPOP     {D8}
          CFI D8 SameValue
          CFI CFA R13+32
        POP      {R0,R4-R9,PC}    ;; return
          CFI EndBlock cfiBlock35
// 3353 
// 3354 #if ENABLED(FWRETRACT)
// 3355 
// 3356   /**
// 3357    * Retract or recover according to firmware settings
// 3358    *
// 3359    * This function handles retract/recover moves for G10 and G11,
// 3360    * plus auto-retract moves sent from G0/G1 when E-only moves are done.
// 3361    *
// 3362    * To simplify the logic, doubled retract/recover moves are ignored.
// 3363    *
// 3364    * Note: Z lift is done transparently to the planner. Aborting
// 3365    *       a print between G10 and G11 may corrupt the Z position.
// 3366    *
// 3367    * Note: Auto-retract will apply the set Z hop in addition to any Z hop
// 3368    *       included in the G-code. Use M207 Z0 to to prevent double hop.
// 3369    */
// 3370   void retract(const bool retracting
// 3371     #if EXTRUDERS > 1
// 3372       , bool swapping = false
// 3373     #endif
// 3374   ) {
// 3375 
// 3376     static float hop_amount = 0.0;  // Total amount lifted, for use in recover
// 3377 
// 3378     // Prevent two retracts or recovers in a row
// 3379     if (retracted[active_extruder] == retracting) return;
// 3380 
// 3381     // Prevent two swap-retract or recovers in a row
// 3382     #if EXTRUDERS > 1
// 3383       // Allow G10 S1 only after G10
// 3384       if (swapping && retracted_swap[active_extruder] == retracting) return;
// 3385       // G11 priority to recover the long retract if activated
// 3386       if (!retracting) swapping = retracted_swap[active_extruder];
// 3387     #else
// 3388       const bool swapping = false;
// 3389     #endif
// 3390 
// 3391     /* // debugging
// 3392       SERIAL_ECHOLNPAIR("retracting ", retracting);
// 3393       SERIAL_ECHOLNPAIR("swapping ", swapping);
// 3394       SERIAL_ECHOLNPAIR("active extruder ", active_extruder);
// 3395       for (uint8_t i = 0; i < EXTRUDERS; ++i) {
// 3396         SERIAL_ECHOPAIR("retracted[", i);
// 3397         SERIAL_ECHOLNPAIR("] ", retracted[i]);
// 3398         SERIAL_ECHOPAIR("retracted_swap[", i);
// 3399         SERIAL_ECHOLNPAIR("] ", retracted_swap[i]);
// 3400       }
// 3401       SERIAL_ECHOLNPAIR("current_position[z] ", current_position[Z_AXIS]);
// 3402       SERIAL_ECHOLNPAIR("hop_amount ", hop_amount);
// 3403     //*/
// 3404 
// 3405     const bool has_zhop = retract_zlift > 0.01;     // Is there a hop set?
// 3406     const float old_feedrate_mm_s = feedrate_mm_s;
// 3407 
// 3408     // The current position will be the destination for E and Z moves
// 3409     set_destination_from_current();
// 3410     stepper.synchronize();  // Wait for buffered moves to complete
// 3411 
// 3412     const float renormalize = 1.0 / planner.e_factor[active_extruder];
// 3413 
// 3414     if (retracting) {
// 3415       // Retract by moving from a faux E position back to the current E position
// 3416       feedrate_mm_s = retract_feedrate_mm_s;
// 3417       current_position[E_AXIS] += (swapping ? swap_retract_length : retract_length) * renormalize;
// 3418       sync_plan_position_e();
// 3419       prepare_move_to_destination();
// 3420 
// 3421       // Is a Z hop set, and has the hop not yet been done?
// 3422       if (has_zhop && !hop_amount) {
// 3423         hop_amount += retract_zlift;                        // Carriage is raised for retraction hop
// 3424         feedrate_mm_s = planner.max_feedrate_mm_s[Z_AXIS];  // Z feedrate to max
// 3425         current_position[Z_AXIS] -= retract_zlift;          // Pretend current pos is lower. Next move raises Z.
// 3426         SYNC_PLAN_POSITION_KINEMATIC();                     // Set the planner to the new position
// 3427         prepare_move_to_destination();                      // Raise up to the old current pos
// 3428         feedrate_mm_s = retract_feedrate_mm_s;              // Restore feedrate
// 3429       }
// 3430     }
// 3431     else {
// 3432       // If a hop was done and Z hasn't changed, undo the Z hop
// 3433       if (hop_amount) {
// 3434         current_position[Z_AXIS] += retract_zlift;          // Pretend current pos is lower. Next move raises Z.
// 3435         SYNC_PLAN_POSITION_KINEMATIC();                     // Set the planner to the new position
// 3436         feedrate_mm_s = planner.max_feedrate_mm_s[Z_AXIS];  // Z feedrate to max
// 3437         prepare_move_to_destination();                      // Raise up to the old current pos
// 3438         hop_amount = 0.0;                                   // Clear hop
// 3439       }
// 3440 
// 3441       // A retract multiplier has been added here to get faster swap recovery
// 3442       feedrate_mm_s = swapping ? swap_retract_recover_feedrate_mm_s : retract_recover_feedrate_mm_s;
// 3443 
// 3444       const float move_e = swapping ? swap_retract_length + swap_retract_recover_length : retract_length + retract_recover_length;
// 3445       current_position[E_AXIS] -= move_e * renormalize;
// 3446       sync_plan_position_e();
// 3447       prepare_move_to_destination();                        // Recover E
// 3448     }
// 3449 
// 3450     feedrate_mm_s = old_feedrate_mm_s;                      // Restore original feedrate
// 3451 
// 3452     retracted[active_extruder] = retracting;                // Active extruder now retracted / recovered
// 3453 
// 3454     // If swap retract/recover update the retracted_swap flag too
// 3455     #if EXTRUDERS > 1
// 3456       if (swapping) retracted_swap[active_extruder] = retracting;
// 3457     #endif
// 3458 
// 3459     /* // debugging
// 3460       SERIAL_ECHOLNPAIR("retracting ", retracting);
// 3461       SERIAL_ECHOLNPAIR("swapping ", swapping);
// 3462       SERIAL_ECHOLNPAIR("active_extruder ", active_extruder);
// 3463       for (uint8_t i = 0; i < EXTRUDERS; ++i) {
// 3464         SERIAL_ECHOPAIR("retracted[", i);
// 3465         SERIAL_ECHOLNPAIR("] ", retracted[i]);
// 3466         SERIAL_ECHOPAIR("retracted_swap[", i);
// 3467         SERIAL_ECHOLNPAIR("] ", retracted_swap[i]);
// 3468       }
// 3469       SERIAL_ECHOLNPAIR("current_position[z] ", current_position[Z_AXIS]);
// 3470       SERIAL_ECHOLNPAIR("hop_amount ", hop_amount);
// 3471     //*/
// 3472 
// 3473   }
// 3474 
// 3475 #endif // FWRETRACT
// 3476 
// 3477 #if ENABLED(MIXING_EXTRUDER)
// 3478 
// 3479   void normalize_mix() {
// 3480     float mix_total = 0.0;
// 3481     for (uint8_t i = 0; i < MIXING_STEPPERS; i++) mix_total += RECIPROCAL(mixing_factor[i]);
// 3482     // Scale all values if they don't add up to ~1.0
// 3483     if (!NEAR(mix_total, 1.0)) {
// 3484       SERIAL_PROTOCOLLNPGM("Warning: Mix factors must add up to 1.0. Scaling.");
// 3485       for (uint8_t i = 0; i < MIXING_STEPPERS; i++) mixing_factor[i] *= mix_total;
// 3486     }
// 3487   }
// 3488 
// 3489   #if ENABLED(DIRECT_MIXING_IN_G1)
// 3490     // Get mixing parameters from the GCode
// 3491     // The total "must" be 1.0 (but it will be normalized)
// 3492     // If no mix factors are given, the old mix is preserved
// 3493     void gcode_get_mix() {
// 3494       const char* mixing_codes = "ABCDHI";
// 3495       byte mix_bits = 0;
// 3496       for (uint8_t i = 0; i < MIXING_STEPPERS; i++) {
// 3497         if (parser.seenval(mixing_codes[i])) {
// 3498           SBI(mix_bits, i);
// 3499           float v = parser.value_float();
// 3500           NOLESS(v, 0.0);
// 3501           mixing_factor[i] = RECIPROCAL(v);
// 3502         }
// 3503       }
// 3504       // If any mixing factors were included, clear the rest
// 3505       // If none were included, preserve the last mix
// 3506       if (mix_bits) {
// 3507         for (uint8_t i = 0; i < MIXING_STEPPERS; i++)
// 3508           if (!TEST(mix_bits, i)) mixing_factor[i] = 0.0;
// 3509         normalize_mix();
// 3510       }
// 3511     }
// 3512   #endif
// 3513 
// 3514 #endif
// 3515 
// 3516 /**
// 3517  * ***************************************************************************
// 3518  * ***************************** G-CODE HANDLING *****************************
// 3519  * ***************************************************************************
// 3520  */
// 3521 
// 3522 /**
// 3523  * Set XYZE destination and feedrate from the current GCode command
// 3524  *
// 3525  *  - Set destination from included axis codes
// 3526  *  - Set to current for missing axis codes
// 3527  *  - Set the feedrate, if included
// 3528  */

        SECTION `.text`:CODE:NOROOT(2)
          CFI Block cfiBlock36 Using cfiCommon0
          CFI Function _Z21gcode_get_destinationv
        THUMB
// 3529 void gcode_get_destination() {
_Z21gcode_get_destinationv:
        PUSH     {R4-R6,LR}
          CFI R14 Frame(CFA, -4)
          CFI R6 Frame(CFA, -8)
          CFI R5 Frame(CFA, -12)
          CFI R4 Frame(CFA, -16)
          CFI CFA R13+16
// 3530   LOOP_XYZE(i) {
        MOVS     R4,#+0
        LDR.N    R6,??DataTable92_9
        B.N      ??gcode_get_destination_0
// 3531     if (parser.seen(axis_codes[i])) {
// 3532       const float v = parser.value_axis_units((AxisEnum)i) + (axis_relative_modes[i] || relative_mode ? current_position[i] : 0);
// 3533       //destination[i] = i == E_AXIS ? v : LOGICAL_TO_NATIVE(v, i);
// 3534       destination[i] = v;
// 3535     }
// 3536     else
// 3537       destination[i] = current_position[i];
??gcode_get_destination_1:
        LDR      R0,[R5, #+32]
        STR      R0,[R5, #+48]
??gcode_get_destination_2:
        ADDS     R4,R4,#+1
??gcode_get_destination_0:
        CMP      R4,#+4
        BGE.N    ??gcode_get_destination_3
        ADD      R5,R6,R4, LSL #+2
        ADR.W    R0,axis_codes
        LDRSB    R0,[R4, R0]
          CFI FunCall _ZN11GCodeParser4seenEc
        BL       _ZN11GCodeParser4seenEc
        CMP      R0,#+0
        BEQ.N    ??gcode_get_destination_1
        MOV      R0,R4
        SXTB     R0,R0
          CFI FunCall _ZN11GCodeParser16value_axis_unitsE8AxisEnum
        BL       _ZN11GCodeParser16value_axis_unitsE8AxisEnum
        LDRB     R0,[R4, R6]
        LDRB     R1,[R6, #+19]
        ORRS     R0,R1,R0
        BEQ.N    ??gcode_get_destination_4
        VLDR     S1,[R5, #+32]
        B.N      ??gcode_get_destination_5
??gcode_get_destination_4:
        VLDR.W   S1,??DataTable91_1  ;; 0x0
??gcode_get_destination_5:
        VADD.F32 S0,S0,S1
        VSTR     S0,[R5, #+48]
        B.N      ??gcode_get_destination_2
// 3538   }
// 3539 
// 3540   if (parser.linearval('F') > 0.0)
??gcode_get_destination_3:
        VLDR.W   S0,??DataTable91_1  ;; 0x0
        MOVS     R0,#+70
          CFI FunCall _ZN11GCodeParser9linearvalEcf
        BL       _ZN11GCodeParser9linearvalEcf
        VCMP.F32 S0,#0.0
        FMSTAT   
        BLE.N    ??gcode_get_destination_6
// 3541     feedrate_mm_s = MMM_TO_MMS(parser.value_feedrate());
          CFI FunCall _ZN11GCodeParser14value_feedrateEv
        BL       _ZN11GCodeParser14value_feedrateEv
        VLDR.W   S1,??DataTable92  ;; 0x42700000
        VDIV.F32 S0,S0,S1
        MOV      R0,R6
        VSTR     S0,[R0, #+120]
// 3542 
// 3543   #if ENABLED(PRINTCOUNTER)
// 3544     if (!DEBUGGING(DRYRUN))
// 3545       print_job_timer.incFilamentUsed(destination[E_AXIS] - current_position[E_AXIS]);
// 3546   #endif
// 3547 
// 3548   // Get ABCDHI mixing factors
// 3549   #if ENABLED(MIXING_EXTRUDER) && ENABLED(DIRECT_MIXING_IN_G1)
// 3550     gcode_get_mix();
// 3551   #endif
// 3552 }
??gcode_get_destination_6:
        POP      {R4-R6,PC}       ;; return
          CFI EndBlock cfiBlock36

        SECTION `.text`:CODE:NOROOT(2)
        SECTION_TYPE SHT_PROGBITS, 0
        DATA
axis_codes:
        DC8 88, 89, 90, 69
// 3553 
// 3554 #if ENABLED(HOST_KEEPALIVE_FEATURE)
// 3555 
// 3556   /**
// 3557    * Output a "busy" message at regular intervals
// 3558    * while the machine is not accepting commands.
// 3559    */
// 3560   void host_keepalive() {
// 3561     const millis_t ms = millis();
// 3562     if (host_keepalive_interval && busy_state != NOT_BUSY) {
// 3563       if (PENDING(ms, next_busy_signal_ms)) return;
// 3564       switch (busy_state) {
// 3565         case IN_HANDLER:
// 3566         case IN_PROCESS:
// 3567           SERIAL_ECHO_START();
// 3568           SERIAL_ECHOLNPGM(MSG_BUSY_PROCESSING);
// 3569           break;
// 3570         case PAUSED_FOR_USER:
// 3571           SERIAL_ECHO_START();
// 3572           SERIAL_ECHOLNPGM(MSG_BUSY_PAUSED_FOR_USER);
// 3573           break;
// 3574         case PAUSED_FOR_INPUT:
// 3575           SERIAL_ECHO_START();
// 3576           SERIAL_ECHOLNPGM(MSG_BUSY_PAUSED_FOR_INPUT);
// 3577           break;
// 3578         default:
// 3579           break;
// 3580       }
// 3581     }
// 3582     next_busy_signal_ms = ms + host_keepalive_interval * 1000UL;
// 3583   }
// 3584 
// 3585 #endif // HOST_KEEPALIVE_FEATURE
// 3586 
// 3587 
// 3588 /**************************************************
// 3589  ***************** GCode Handlers *****************
// 3590  **************************************************/
// 3591 
// 3592 #if ENABLED(NO_MOTION_BEFORE_HOMING)
// 3593   #define G0_G1_CONDITION !axis_unhomed_error(parser.seen('X'), parser.seen('Y'), parser.seen('Z'))
// 3594 #else
// 3595   #define G0_G1_CONDITION true
// 3596 #endif
// 3597 
// 3598 /**
// 3599  * G0, G1: Coordinated movement of X Y Z E axes
// 3600  */
// 3601 inline void gcode_G0_G1(
// 3602   #if IS_SCARA
// 3603     bool fast_move=false
// 3604   #endif
// 3605 ) {
// 3606   if (IsRunning() && G0_G1_CONDITION) {
// 3607     gcode_get_destination(); // For X Y Z E F
// 3608 
// 3609     #if ENABLED(FWRETRACT)
// 3610       if (MIN_AUTORETRACT <= MAX_AUTORETRACT) {
// 3611         // When M209 Autoretract is enabled, convert E-only moves to firmware retract/recover moves
// 3612         if (autoretract_enabled && parser.seen('E') && !(parser.seen('X') || parser.seen('Y') || parser.seen('Z'))) {
// 3613           const float echange = destination[E_AXIS] - current_position[E_AXIS];
// 3614           // Is this a retract or recover move?
// 3615           if (WITHIN(FABS(echange), MIN_AUTORETRACT, MAX_AUTORETRACT) && retracted[active_extruder] == (echange > 0.0)) {
// 3616             current_position[E_AXIS] = destination[E_AXIS]; // Hide a G1-based retract/recover from calculations
// 3617             sync_plan_position_e();                         // AND from the planner
// 3618             return retract(echange < 0.0);                  // Firmware-based retract/recover (double-retract ignored)
// 3619           }
// 3620         }
// 3621       }
// 3622     #endif // FWRETRACT
// 3623 
// 3624     #if IS_SCARA
// 3625       fast_move ? prepare_uninterpolated_move_to_destination() : prepare_move_to_destination();
// 3626     #else
// 3627       prepare_move_to_destination();
// 3628     #endif
// 3629 
// 3630     #if ENABLED(NANODLP_Z_SYNC)
// 3631       #if ENABLED(NANODLP_ALL_AXIS)
// 3632         #define _MOVE_SYNC true                 // For any move wait and output sync message
// 3633       #else
// 3634         #define _MOVE_SYNC parser.seenval('Z')  // Only for Z move
// 3635       #endif
// 3636       if (_MOVE_SYNC) {
// 3637         stepper.synchronize();
// 3638         SERIAL_ECHOLNPGM(MSG_Z_MOVE_COMP);
// 3639       }
// 3640     #endif
// 3641   }
// 3642 }
// 3643 
// 3644 /**
// 3645  * G2: Clockwise Arc
// 3646  * G3: Counterclockwise Arc
// 3647  *
// 3648  * This command has two forms: IJ-form and R-form.
// 3649  *
// 3650  *  - I specifies an X offset. J specifies a Y offset.
// 3651  *    At least one of the IJ parameters is required.
// 3652  *    X and Y can be omitted to do a complete circle.
// 3653  *    The given XY is not error-checked. The arc ends
// 3654  *     based on the angle of the destination.
// 3655  *    Mixing I or J with R will throw an error.
// 3656  *
// 3657  *  - R specifies the radius. X or Y is required.
// 3658  *    Omitting both X and Y will throw an error.
// 3659  *    X or Y must differ from the current XY.
// 3660  *    Mixing R with I or J will throw an error.
// 3661  *
// 3662  *  - P specifies the number of full circles to do
// 3663  *    before the specified arc move.
// 3664  *
// 3665  *  Examples:
// 3666  *
// 3667  *    G2 I10           ; CW circle centered at X+10
// 3668  *    G3 X20 Y12 R14   ; CCW circle with r=14 ending at X20 Y12
// 3669  */
// 3670 #if ENABLED(ARC_SUPPORT)
// 3671 
// 3672   inline void gcode_G2_G3(const bool clockwise) {
// 3673     #if ENABLED(NO_MOTION_BEFORE_HOMING)
// 3674       if (axis_unhomed_error()) return;
// 3675     #endif
// 3676 
// 3677     if (IsRunning()) {
// 3678 
// 3679       #if ENABLED(SF_ARC_FIX)
// 3680         const bool relative_mode_backup = relative_mode;
// 3681         relative_mode = true;
// 3682       #endif
// 3683 
// 3684       gcode_get_destination();
// 3685 
// 3686       #if ENABLED(SF_ARC_FIX)
// 3687         relative_mode = relative_mode_backup;
// 3688       #endif
// 3689 
// 3690       float arc_offset[2] = { 0.0, 0.0 };
// 3691       if (parser.seenval('R')) {
// 3692         const float r = parser.value_linear_units(),
// 3693                     p1 = current_position[X_AXIS], q1 = current_position[Y_AXIS],
// 3694                     p2 = destination[X_AXIS], q2 = destination[Y_AXIS];
// 3695         if (r && (p2 != p1 || q2 != q1)) {
// 3696           const float e = clockwise ^ (r < 0) ? -1 : 1,           // clockwise -1/1, counterclockwise 1/-1
// 3697                       dx = p2 - p1, dy = q2 - q1,                 // X and Y differences
// 3698                       d = HYPOT(dx, dy),                          // Linear distance between the points
// 3699                       h = SQRT(sq(r) - sq(d * 0.5)),              // Distance to the arc pivot-point
// 3700                       mx = (p1 + p2) * 0.5, my = (q1 + q2) * 0.5, // Point between the two points
// 3701                       sx = -dy / d, sy = dx / d,                  // Slope of the perpendicular bisector
// 3702                       cx = mx + e * h * sx, cy = my + e * h * sy; // Pivot-point of the arc
// 3703           arc_offset[0] = cx - p1;
// 3704           arc_offset[1] = cy - q1;
// 3705         }
// 3706       }
// 3707       else {
// 3708         if (parser.seenval('I')) arc_offset[0] = parser.value_linear_units();
// 3709         if (parser.seenval('J')) arc_offset[1] = parser.value_linear_units();
// 3710       }
// 3711 
// 3712       if (arc_offset[0] || arc_offset[1]) {
// 3713 
// 3714         #if ENABLED(ARC_P_CIRCLES)
// 3715           // P indicates number of circles to do
// 3716           int8_t circles_to_do = parser.byteval('P');
// 3717           if (!WITHIN(circles_to_do, 0, 100)) {
// 3718             SERIAL_ERROR_START();
// 3719             SERIAL_ERRORLNPGM(MSG_ERR_ARC_ARGS);
// 3720           }
// 3721           while (circles_to_do--)
// 3722             plan_arc(current_position, arc_offset, clockwise);
// 3723         #endif
// 3724 
// 3725         // Send the arc to the planner
// 3726         plan_arc(destination, arc_offset, clockwise);
// 3727         refresh_cmd_timeout();
// 3728       }
// 3729       else {
// 3730         // Bad arguments
// 3731         SERIAL_ERROR_START();
// 3732         SERIAL_ERRORLNPGM(MSG_ERR_ARC_ARGS);
// 3733       }
// 3734     }
// 3735   }
// 3736 
// 3737 #endif // ARC_SUPPORT
// 3738 

        SECTION `.text`:CODE:NOROOT(1)
          CFI Block cfiBlock37 Using cfiCommon0
          CFI Function _Z5dwellm
        THUMB
// 3739 void dwell(millis_t time) {
_Z5dwellm:
        PUSH     {R4,LR}
          CFI R14 Frame(CFA, -4)
          CFI R4 Frame(CFA, -8)
          CFI CFA R13+8
        MOV      R4,R0
// 3740   refresh_cmd_timeout();
          CFI FunCall _Z19refresh_cmd_timeoutv
        BL       _Z19refresh_cmd_timeoutv
// 3741   time += previous_cmd_ms;
        LDR.W    R0,??DataTable106
        LDR      R0,[R0, #+0]
        ADDS     R4,R0,R4
        B.N      ??dwell_0
// 3742   while (PENDING(millis(), time)) idle();
??dwell_1:
          CFI FunCall _Z4idlev
        BL       _Z4idlev
??dwell_0:
          CFI FunCall HAL_GetTick
        BL       HAL_GetTick
        SUBS     R0,R0,R4
        BMI.N    ??dwell_1
// 3743 }
        POP      {R4,PC}          ;; return
          CFI EndBlock cfiBlock37
// 3744 
// 3745 /**
// 3746  * G4: Dwell S<seconds> or P<milliseconds>
// 3747  */
// 3748 inline void gcode_G4() {
// 3749   millis_t dwell_ms = 0;
// 3750 
// 3751   if (parser.seenval('P')) dwell_ms = parser.value_millis(); // milliseconds to wait
// 3752   if (parser.seenval('S')) dwell_ms = parser.value_millis_from_seconds(); // seconds to wait
// 3753 
// 3754   stepper.synchronize();
// 3755   #if ENABLED(NANODLP_Z_SYNC)
// 3756     SERIAL_ECHOLNPGM(MSG_Z_MOVE_COMP);
// 3757   #endif
// 3758 
// 3759   if (!lcd_hasstatus()) LCD_MESSAGEPGM(MSG_DWELL);
// 3760 
// 3761   dwell(dwell_ms);
// 3762 }
// 3763 
// 3764 #if ENABLED(BEZIER_CURVE_SUPPORT)
// 3765 
// 3766   /**
// 3767    * Parameters interpreted according to:
// 3768    * http://linuxcnc.org/docs/2.6/html/gcode/gcode.html#sec:G5-Cubic-Spline
// 3769    * However I, J omission is not supported at this point; all
// 3770    * parameters can be omitted and default to zero.
// 3771    */
// 3772 
// 3773   /**
// 3774    * G5: Cubic B-spline
// 3775    */
// 3776   inline void gcode_G5() {
// 3777     #if ENABLED(NO_MOTION_BEFORE_HOMING)
// 3778       if (axis_unhomed_error()) return;
// 3779     #endif
// 3780 
// 3781     if (IsRunning()) {
// 3782 
// 3783       #if ENABLED(CNC_WORKSPACE_PLANES)
// 3784         if (workspace_plane != PLANE_XY) {
// 3785           SERIAL_ERROR_START();
// 3786           SERIAL_ERRORLNPGM(MSG_ERR_BAD_PLANE_MODE);
// 3787           return;
// 3788         }
// 3789       #endif
// 3790 
// 3791       gcode_get_destination();
// 3792 
// 3793       const float offset[] = {
// 3794         parser.linearval('I'),
// 3795         parser.linearval('J'),
// 3796         parser.linearval('P'),
// 3797         parser.linearval('Q')
// 3798       };
// 3799 
// 3800       plan_cubic_move(offset);
// 3801     }
// 3802   }
// 3803 
// 3804 #endif // BEZIER_CURVE_SUPPORT
// 3805 
// 3806 #if ENABLED(FWRETRACT)
// 3807 
// 3808   /**
// 3809    * G10 - Retract filament according to settings of M207
// 3810    */
// 3811   inline void gcode_G10() {
// 3812     #if EXTRUDERS > 1
// 3813       const bool rs = parser.boolval('S');
// 3814       retracted_swap[active_extruder] = rs; // Use 'S' for swap, default to false
// 3815     #endif
// 3816     retract(true
// 3817       #if EXTRUDERS > 1
// 3818         , rs
// 3819       #endif
// 3820     );
// 3821   }
// 3822 
// 3823   /**
// 3824    * G11 - Recover filament according to settings of M208
// 3825    */
// 3826   inline void gcode_G11() { retract(false); }
// 3827 
// 3828 #endif // FWRETRACT
// 3829 
// 3830 #if ENABLED(NOZZLE_CLEAN_FEATURE)
// 3831   /**
// 3832    * G12: Clean the nozzle
// 3833    */
// 3834   inline void gcode_G12() {
// 3835     // Don't allow nozzle cleaning without homing first
// 3836     if (axis_unhomed_error()) return;
// 3837 
// 3838     const uint8_t pattern = parser.ushortval('P', 0),
// 3839                   strokes = parser.ushortval('S', NOZZLE_CLEAN_STROKES),
// 3840                   objects = parser.ushortval('T', NOZZLE_CLEAN_TRIANGLES);
// 3841     const float radius = parser.floatval('R', NOZZLE_CLEAN_CIRCLE_RADIUS);
// 3842 
// 3843     Nozzle::clean(pattern, strokes, radius, objects);
// 3844   }
// 3845 #endif
// 3846 
// 3847 #if ENABLED(CNC_WORKSPACE_PLANES)
// 3848 
// 3849   inline void report_workspace_plane() {
// 3850     SERIAL_ECHO_START();
// 3851     SERIAL_ECHOPGM("Workspace Plane ");
// 3852     serialprintPGM(
// 3853       workspace_plane == PLANE_YZ ? PSTR("YZ\n") :
// 3854       workspace_plane == PLANE_ZX ? PSTR("ZX\n") :
// 3855                                     PSTR("XY\n")
// 3856     );
// 3857   }
// 3858 
// 3859   inline void set_workspace_plane(const WorkspacePlane plane) {
// 3860     workspace_plane = plane;
// 3861     if (DEBUGGING(INFO)) report_workspace_plane();
// 3862   }
// 3863 
// 3864   /**
// 3865    * G17: Select Plane XY
// 3866    * G18: Select Plane ZX
// 3867    * G19: Select Plane YZ
// 3868    */
// 3869   inline void gcode_G17() { set_workspace_plane(PLANE_XY); }
// 3870   inline void gcode_G18() { set_workspace_plane(PLANE_ZX); }
// 3871   inline void gcode_G19() { set_workspace_plane(PLANE_YZ); }
// 3872 
// 3873 #endif // CNC_WORKSPACE_PLANES
// 3874 
// 3875 #if ENABLED(CNC_COORDINATE_SYSTEMS)
// 3876 
// 3877   /**
// 3878    * Select a coordinate system and update the workspace offset.
// 3879    * System index -1 is used to specify machine-native.
// 3880    */
// 3881   bool select_coordinate_system(const int8_t _new) {
// 3882     if (active_coordinate_system == _new) return false;
// 3883     float old_offset[XYZ] = { 0 }, new_offset[XYZ] = { 0 };
// 3884     if (WITHIN(active_coordinate_system, 0, MAX_COORDINATE_SYSTEMS - 1))
// 3885       COPY(old_offset, coordinate_system[active_coordinate_system]);
// 3886     if (WITHIN(_new, 0, MAX_COORDINATE_SYSTEMS - 1))
// 3887       COPY(new_offset, coordinate_system[_new]);
// 3888     active_coordinate_system = _new;
// 3889     LOOP_XYZ(i) {
// 3890       const float diff = new_offset[i] - old_offset[i];
// 3891       if (diff) {
// 3892         position_shift[i] += diff;
// 3893         update_software_endstops((AxisEnum)i);
// 3894       }
// 3895     }
// 3896     return true;
// 3897   }
// 3898 
// 3899   /**
// 3900    * In CNC G-code G53 is like a modifier
// 3901    * It precedes a movement command (or other modifiers) on the same line.
// 3902    * This is the first command to use parser.chain() to make this possible.
// 3903    */
// 3904   inline void gcode_G53() {
// 3905     // If this command has more following...
// 3906     if (parser.chain()) {
// 3907       const int8_t _system = active_coordinate_system;
// 3908       active_coordinate_system = -1;
// 3909       process_parsed_command();
// 3910       active_coordinate_system = _system;
// 3911     }
// 3912   }
// 3913 
// 3914   /**
// 3915    * G54-G59.3: Select a new workspace
// 3916    *
// 3917    * A workspace is an XYZ offset to the machine native space.
// 3918    * All workspaces default to 0,0,0 at start, or with EEPROM
// 3919    * support they may be restored from a previous session.
// 3920    *
// 3921    * G92 is used to set the current workspace's offset.
// 3922    */
// 3923   inline void gcode_G54_59(uint8_t subcode=0) {
// 3924     const int8_t _space = parser.codenum - 54 + subcode;
// 3925     if (select_coordinate_system(_space)) {
// 3926       SERIAL_PROTOCOLLNPAIR("Select workspace ", _space);
// 3927       report_current_position();
// 3928     }
// 3929   }
// 3930   FORCE_INLINE void gcode_G54() { gcode_G54_59(); }
// 3931   FORCE_INLINE void gcode_G55() { gcode_G54_59(); }
// 3932   FORCE_INLINE void gcode_G56() { gcode_G54_59(); }
// 3933   FORCE_INLINE void gcode_G57() { gcode_G54_59(); }
// 3934   FORCE_INLINE void gcode_G58() { gcode_G54_59(); }
// 3935   FORCE_INLINE void gcode_G59() { gcode_G54_59(parser.subcode); }
// 3936 
// 3937 #endif
// 3938 
// 3939 #if ENABLED(INCH_MODE_SUPPORT)
// 3940   /**
// 3941    * G20: Set input mode to inches
// 3942    */
// 3943   inline void gcode_G20() { parser.set_input_linear_units(LINEARUNIT_INCH); }
// 3944 
// 3945   /**
// 3946    * G21: Set input mode to millimeters
// 3947    */
// 3948   inline void gcode_G21() { parser.set_input_linear_units(LINEARUNIT_MM); }
// 3949 #endif
// 3950 
// 3951 #if ENABLED(NOZZLE_PARK_FEATURE)
// 3952   /**
// 3953    * G27: Park the nozzle
// 3954    */
// 3955   inline void gcode_G27() {
// 3956     // Don't allow nozzle parking without homing first
// 3957     if (axis_unhomed_error()) return;
// 3958     Nozzle::park(parser.ushortval('P'));
// 3959   }
// 3960 #endif // NOZZLE_PARK_FEATURE
// 3961 
// 3962 #if ENABLED(QUICK_HOME)
// 3963 
// 3964   static void quick_home_xy() {
// 3965 
// 3966     // Pretend the current position is 0,0
// 3967     current_position[X_AXIS] = current_position[Y_AXIS] = 0.0;
// 3968     sync_plan_position();
// 3969 
// 3970     const int x_axis_home_dir =
// 3971       #if ENABLED(DUAL_X_CARRIAGE)
// 3972         x_home_dir(active_extruder)
// 3973       #else
// 3974         home_dir(X_AXIS)
// 3975       #endif
// 3976     ;
// 3977 
// 3978     const float mlx = max_length(X_AXIS),
// 3979                 mly = max_length(Y_AXIS),
// 3980                 mlratio = mlx > mly ? mly / mlx : mlx / mly,
// 3981                 fr_mm_s = min(homing_feedrate_mm_s[X_AXIS], homing_feedrate_mm_s[Y_AXIS]) * SQRT(sq(mlratio) + 1.0);
// 3982 
// 3983     do_blocking_move_to_xy(1.5 * mlx * x_axis_home_dir, 1.5 * mly * home_dir(Y_AXIS), fr_mm_s);
// 3984     endstops.hit_on_purpose(); // clear endstop hit flags
// 3985     current_position[X_AXIS] = current_position[Y_AXIS] = 0.0;
// 3986   }
// 3987 
// 3988 #endif // QUICK_HOME
// 3989 
// 3990 #if ENABLED(DEBUG_LEVELING_FEATURE)
// 3991 
// 3992   void log_machine_info() {
// 3993     SERIAL_ECHOPGM("Machine Type: ");
// 3994     #if ENABLED(DELTA)
// 3995       SERIAL_ECHOLNPGM("Delta");
// 3996     #elif IS_SCARA
// 3997       SERIAL_ECHOLNPGM("SCARA");
// 3998     #elif IS_CORE
// 3999       SERIAL_ECHOLNPGM("Core");
// 4000     #else
// 4001       SERIAL_ECHOLNPGM("Cartesian");
// 4002     #endif
// 4003 
// 4004     SERIAL_ECHOPGM("Probe: ");
// 4005     #if ENABLED(PROBE_MANUALLY)
// 4006       SERIAL_ECHOLNPGM("PROBE_MANUALLY");
// 4007     #elif ENABLED(FIX_MOUNTED_PROBE)
// 4008       SERIAL_ECHOLNPGM("FIX_MOUNTED_PROBE");
// 4009     #elif ENABLED(BLTOUCH)
// 4010       SERIAL_ECHOLNPGM("BLTOUCH");
// 4011     #elif HAS_Z_SERVO_ENDSTOP
// 4012       SERIAL_ECHOLNPGM("SERVO PROBE");
// 4013     #elif ENABLED(Z_PROBE_SLED)
// 4014       SERIAL_ECHOLNPGM("Z_PROBE_SLED");
// 4015     #elif ENABLED(Z_PROBE_ALLEN_KEY)
// 4016       SERIAL_ECHOLNPGM("Z_PROBE_ALLEN_KEY");
// 4017     #else
// 4018       SERIAL_ECHOLNPGM("NONE");
// 4019     #endif
// 4020 
// 4021     #if HAS_BED_PROBE
// 4022       SERIAL_ECHOPAIR("Probe Offset X:", X_PROBE_OFFSET_FROM_EXTRUDER);
// 4023       SERIAL_ECHOPAIR(" Y:", Y_PROBE_OFFSET_FROM_EXTRUDER);
// 4024       SERIAL_ECHOPAIR(" Z:", zprobe_zoffset);
// 4025       #if X_PROBE_OFFSET_FROM_EXTRUDER > 0
// 4026         SERIAL_ECHOPGM(" (Right");
// 4027       #elif X_PROBE_OFFSET_FROM_EXTRUDER < 0
// 4028         SERIAL_ECHOPGM(" (Left");
// 4029       #elif Y_PROBE_OFFSET_FROM_EXTRUDER != 0
// 4030         SERIAL_ECHOPGM(" (Middle");
// 4031       #else
// 4032         SERIAL_ECHOPGM(" (Aligned With");
// 4033       #endif
// 4034       #if Y_PROBE_OFFSET_FROM_EXTRUDER > 0
// 4035         SERIAL_ECHOPGM("-Back");
// 4036       #elif Y_PROBE_OFFSET_FROM_EXTRUDER < 0
// 4037         SERIAL_ECHOPGM("-Front");
// 4038       #elif X_PROBE_OFFSET_FROM_EXTRUDER != 0
// 4039         SERIAL_ECHOPGM("-Center");
// 4040       #endif
// 4041       if (zprobe_zoffset < 0)
// 4042         SERIAL_ECHOPGM(" & Below");
// 4043       else if (zprobe_zoffset > 0)
// 4044         SERIAL_ECHOPGM(" & Above");
// 4045       else
// 4046         SERIAL_ECHOPGM(" & Same Z as");
// 4047       SERIAL_ECHOLNPGM(" Nozzle)");
// 4048     #endif
// 4049 
// 4050     #if HAS_ABL
// 4051       SERIAL_ECHOPGM("Auto Bed Leveling: ");
// 4052       #if ENABLED(AUTO_BED_LEVELING_LINEAR)
// 4053         SERIAL_ECHOPGM("LINEAR");
// 4054       #elif ENABLED(AUTO_BED_LEVELING_BILINEAR)
// 4055         SERIAL_ECHOPGM("BILINEAR");
// 4056       #elif ENABLED(AUTO_BED_LEVELING_3POINT)
// 4057         SERIAL_ECHOPGM("3POINT");
// 4058       #elif ENABLED(AUTO_BED_LEVELING_UBL)
// 4059         SERIAL_ECHOPGM("UBL");
// 4060       #endif
// 4061       if (planner.leveling_active) {
// 4062         SERIAL_ECHOLNPGM(" (enabled)");
// 4063         #if ABL_PLANAR
// 4064           const float diff[XYZ] = {
// 4065             stepper.get_axis_position_mm(X_AXIS) - current_position[X_AXIS],
// 4066             stepper.get_axis_position_mm(Y_AXIS) - current_position[Y_AXIS],
// 4067             stepper.get_axis_position_mm(Z_AXIS) - current_position[Z_AXIS]
// 4068           };
// 4069           SERIAL_ECHOPGM("ABL Adjustment X");
// 4070           if (diff[X_AXIS] > 0) SERIAL_CHAR('+');
// 4071           SERIAL_ECHO(diff[X_AXIS]);
// 4072           SERIAL_ECHOPGM(" Y");
// 4073           if (diff[Y_AXIS] > 0) SERIAL_CHAR('+');
// 4074           SERIAL_ECHO(diff[Y_AXIS]);
// 4075           SERIAL_ECHOPGM(" Z");
// 4076           if (diff[Z_AXIS] > 0) SERIAL_CHAR('+');
// 4077           SERIAL_ECHO(diff[Z_AXIS]);
// 4078         #elif ENABLED(AUTO_BED_LEVELING_UBL)
// 4079           SERIAL_ECHOPAIR("UBL Adjustment Z", stepper.get_axis_position_mm(Z_AXIS) - current_position[Z_AXIS]);
// 4080         #elif ENABLED(AUTO_BED_LEVELING_BILINEAR)
// 4081           SERIAL_ECHOPAIR("ABL Adjustment Z", bilinear_z_offset(current_position));
// 4082         #endif
// 4083       }
// 4084       else
// 4085         SERIAL_ECHOLNPGM(" (disabled)");
// 4086 
// 4087       SERIAL_EOL();
// 4088 
// 4089     #elif ENABLED(MESH_BED_LEVELING)
// 4090 
// 4091       SERIAL_ECHOPGM("Mesh Bed Leveling");
// 4092       if (planner.leveling_active) {
// 4093         float rz = current_position[Z_AXIS];
// 4094         planner.apply_leveling(current_position[X_AXIS], current_position[Y_AXIS], rz);
// 4095         SERIAL_ECHOLNPGM(" (enabled)");
// 4096         SERIAL_ECHOPAIR("MBL Adjustment Z", rz);
// 4097       }
// 4098       else
// 4099         SERIAL_ECHOPGM(" (disabled)");
// 4100 
// 4101       SERIAL_EOL();
// 4102 
// 4103     #endif // MESH_BED_LEVELING
// 4104   }
// 4105 
// 4106 #endif // DEBUG_LEVELING_FEATURE
// 4107 
// 4108 #if ENABLED(DELTA)
// 4109 
// 4110   /**
// 4111    * A delta can only safely home all axes at the same time
// 4112    * This is like quick_home_xy() but for 3 towers.
// 4113    */
// 4114   inline bool home_delta() {
// 4115     #if ENABLED(DEBUG_LEVELING_FEATURE)
// 4116       if (DEBUGGING(LEVELING)) DEBUG_POS(">>> home_delta", current_position);
// 4117     #endif
// 4118     // Init the current position of all carriages to 0,0,0
// 4119     ZERO(current_position);
// 4120     sync_plan_position();
// 4121 
// 4122     // Move all carriages together linearly until an endstop is hit.
// 4123     current_position[X_AXIS] = current_position[Y_AXIS] = current_position[Z_AXIS] = (delta_height + 10);
// 4124     feedrate_mm_s = homing_feedrate_mm_s[X_AXIS];
// 4125     buffer_line_to_current_position();
// 4126     stepper.synchronize();
// 4127 
// 4128     // If an endstop was not hit, then damage can occur if homing is continued.
// 4129     // This can occur if the delta height not set correctly.
// 4130     if (!(Endstops::endstop_hit_bits & (_BV(X_MAX) | _BV(Y_MAX) | _BV(Z_MAX)))) {
// 4131       LCD_MESSAGEPGM(MSG_ERR_HOMING_FAILED);
// 4132       SERIAL_ERROR_START();
// 4133       SERIAL_ERRORLNPGM(MSG_ERR_HOMING_FAILED);
// 4134       return false;
// 4135     }
// 4136 
// 4137     endstops.hit_on_purpose(); // clear endstop hit flags
// 4138 
// 4139     // At least one carriage has reached the top.
// 4140     // Now re-home each carriage separately.
// 4141     HOMEAXIS(A);
// 4142     HOMEAXIS(B);
// 4143     HOMEAXIS(C);
// 4144 
// 4145     // Set all carriages to their home positions
// 4146     // Do this here all at once for Delta, because
// 4147     // XYZ isn't ABC. Applying this per-tower would
// 4148     // give the impression that they are the same.
// 4149     LOOP_XYZ(i) set_axis_is_at_home((AxisEnum)i);
// 4150 
// 4151     SYNC_PLAN_POSITION_KINEMATIC();
// 4152 
// 4153     #if ENABLED(DEBUG_LEVELING_FEATURE)
// 4154       if (DEBUGGING(LEVELING)) DEBUG_POS("<<< home_delta", current_position);
// 4155     #endif
// 4156 
// 4157     return true;
// 4158   }
// 4159 
// 4160 #endif // DELTA
// 4161 
// 4162 #if ENABLED(Z_SAFE_HOMING)
// 4163 
// 4164   inline void home_z_safely() {
// 4165 
// 4166     // Disallow Z homing if X or Y are unknown
// 4167     if (!axis_known_position[X_AXIS] || !axis_known_position[Y_AXIS]) {
// 4168       LCD_MESSAGEPGM(MSG_ERR_Z_HOMING);
// 4169       SERIAL_ECHO_START();
// 4170       SERIAL_ECHOLNPGM(MSG_ERR_Z_HOMING);
// 4171       return;
// 4172     }
// 4173 
// 4174     #if ENABLED(DEBUG_LEVELING_FEATURE)
// 4175       if (DEBUGGING(LEVELING)) SERIAL_ECHOLNPGM("Z_SAFE_HOMING >>>");
// 4176     #endif
// 4177 
// 4178     SYNC_PLAN_POSITION_KINEMATIC();
// 4179 
// 4180     /**
// 4181      * Move the Z probe (or just the nozzle) to the safe homing point
// 4182      */
// 4183     destination[X_AXIS] = Z_SAFE_HOMING_X_POINT;
// 4184     destination[Y_AXIS] = Z_SAFE_HOMING_Y_POINT;
// 4185     destination[Z_AXIS] = current_position[Z_AXIS]; // Z is already at the right height
// 4186 
// 4187     #if HOMING_Z_WITH_PROBE
// 4188       destination[X_AXIS] -= X_PROBE_OFFSET_FROM_EXTRUDER;
// 4189       destination[Y_AXIS] -= Y_PROBE_OFFSET_FROM_EXTRUDER;
// 4190     #endif
// 4191 
// 4192     if (position_is_reachable(destination[X_AXIS], destination[Y_AXIS])) {
// 4193 
// 4194       #if ENABLED(DEBUG_LEVELING_FEATURE)
// 4195         if (DEBUGGING(LEVELING)) DEBUG_POS("Z_SAFE_HOMING", destination);
// 4196       #endif
// 4197 
// 4198       // This causes the carriage on Dual X to unpark
// 4199       #if ENABLED(DUAL_X_CARRIAGE)
// 4200         active_extruder_parked = false;
// 4201       #endif
// 4202 
// 4203       do_blocking_move_to_xy(destination[X_AXIS], destination[Y_AXIS]);
// 4204       HOMEAXIS(Z);
// 4205     }
// 4206     else {
// 4207       LCD_MESSAGEPGM(MSG_ZPROBE_OUT);
// 4208       SERIAL_ECHO_START();
// 4209       SERIAL_ECHOLNPGM(MSG_ZPROBE_OUT);
// 4210     }
// 4211 
// 4212     #if ENABLED(DEBUG_LEVELING_FEATURE)
// 4213       if (DEBUGGING(LEVELING)) SERIAL_ECHOLNPGM("<<< Z_SAFE_HOMING");
// 4214     #endif
// 4215   }
// 4216 
// 4217 #endif // Z_SAFE_HOMING
// 4218 
// 4219 #if ENABLED(PROBE_MANUALLY)
// 4220   bool g29_in_progress = false;
// 4221 #else
// 4222   constexpr bool g29_in_progress = false;
// 4223 #endif
// 4224 
// 4225 /**
// 4226  * G28: Home all axes according to settings
// 4227  *
// 4228  * Parameters
// 4229  *
// 4230  *  None  Home to all axes with no parameters.
