###############################################################################
#
# IAR ELF Linker V7.10.1.6676/W32 for ARM                 18/Jul/2019  15:14:19
# Copyright 2007-2014 IAR Systems AB.
#
#    Output file  =  
#        E:\DLP_Proj\DLP_source\branches\DLP_opensource\EWARM\mksDLP\Exe\mksDLP.out
#    Map file     =  
#        E:\DLP_Proj\DLP_source\branches\DLP_opensource\EWARM\mksDLP/List\mksDLP.map
#    Command line =  
#        E:\DLP_Proj\DLP_source\branches\DLP_opensource\EWARM\mksDLP\Obj\at24cxx.o
#        E:\DLP_Proj\DLP_source\branches\DLP_opensource\EWARM\mksDLP\Obj\blinkm.o
#        E:\DLP_Proj\DLP_source\branches\DLP_opensource\EWARM\mksDLP\Obj\bsp_driver_sd.o
#        E:\DLP_Proj\DLP_source\branches\DLP_opensource\EWARM\mksDLP\Obj\cardreader.o
#        E:\DLP_Proj\DLP_source\branches\DLP_opensource\EWARM\mksDLP\Obj\configuration_store.o
#        E:\DLP_Proj\DLP_source\branches\DLP_opensource\EWARM\mksDLP\Obj\dac_mcp4728.o
#        E:\DLP_Proj\DLP_source\branches\DLP_opensource\EWARM\mksDLP\Obj\digipot_mcp4451.o
#        E:\DLP_Proj\DLP_source\branches\DLP_opensource\EWARM\mksDLP\Obj\diskio.o
#        E:\DLP_Proj\DLP_source\branches\DLP_opensource\EWARM\mksDLP\Obj\dma.o
#        E:\DLP_Proj\DLP_source\branches\DLP_opensource\EWARM\mksDLP\Obj\draw_about.o
#        E:\DLP_Proj\DLP_source\branches\DLP_opensource\EWARM\mksDLP\Obj\draw_detection.o
#        E:\DLP_Proj\DLP_source\branches\DLP_opensource\EWARM\mksDLP\Obj\draw_dialog.o
#        E:\DLP_Proj\DLP_source\branches\DLP_opensource\EWARM\mksDLP\Obj\draw_ExposureTest.o
#        E:\DLP_Proj\DLP_source\branches\DLP_opensource\EWARM\mksDLP\Obj\draw_info.o
#        E:\DLP_Proj\DLP_source\branches\DLP_opensource\EWARM\mksDLP\Obj\draw_keyboard.o
#        E:\DLP_Proj\DLP_source\branches\DLP_opensource\EWARM\mksDLP\Obj\draw_language.o
#        E:\DLP_Proj\DLP_source\branches\DLP_opensource\EWARM\mksDLP\Obj\draw_move_motor.o
#        E:\DLP_Proj\DLP_source\branches\DLP_opensource\EWARM\mksDLP\Obj\draw_operate.o
#        E:\DLP_Proj\DLP_source\branches\DLP_opensource\EWARM\mksDLP\Obj\draw_preview.o
#        E:\DLP_Proj\DLP_source\branches\DLP_opensource\EWARM\mksDLP\Obj\draw_print_file.o
#        E:\DLP_Proj\DLP_source\branches\DLP_opensource\EWARM\mksDLP\Obj\draw_printing.o
#        E:\DLP_Proj\DLP_source\branches\DLP_opensource\EWARM\mksDLP\Obj\draw_ready_print.o
#        E:\DLP_Proj\DLP_source\branches\DLP_opensource\EWARM\mksDLP\Obj\draw_service.o
#        E:\DLP_Proj\DLP_source\branches\DLP_opensource\EWARM\mksDLP\Obj\draw_set.o
#        E:\DLP_Proj\DLP_source\branches\DLP_opensource\EWARM\mksDLP\Obj\draw_tool.o
#        E:\DLP_Proj\DLP_source\branches\DLP_opensource\EWARM\mksDLP\Obj\draw_ui.o
#        E:\DLP_Proj\DLP_source\branches\DLP_opensource\EWARM\mksDLP\Obj\endstops.o
#        E:\DLP_Proj\DLP_source\branches\DLP_opensource\EWARM\mksDLP\Obj\fatfs.o
#        E:\DLP_Proj\DLP_source\branches\DLP_opensource\EWARM\mksDLP\Obj\ff.o
#        E:\DLP_Proj\DLP_source\branches\DLP_opensource\EWARM\mksDLP\Obj\ff_gen_drv.o
#        E:\DLP_Proj\DLP_source\branches\DLP_opensource\EWARM\mksDLP\Obj\Font24_MS.o
#        E:\DLP_Proj\DLP_source\branches\DLP_opensource\EWARM\mksDLP\Obj\fsmc.o
#        E:\DLP_Proj\DLP_source\branches\DLP_opensource\EWARM\mksDLP\Obj\G26_Mesh_Validation_Tool.o
#        E:\DLP_Proj\DLP_source\branches\DLP_opensource\EWARM\mksDLP\Obj\gcode.o
#        E:\DLP_Proj\DLP_source\branches\DLP_opensource\EWARM\mksDLP\Obj\gpio.o
#        E:\DLP_Proj\DLP_source\branches\DLP_opensource\EWARM\mksDLP\Obj\hex_print_routines.o
#        E:\DLP_Proj\DLP_source\branches\DLP_opensource\EWARM\mksDLP\Obj\i2c.o
#        E:\DLP_Proj\DLP_source\branches\DLP_opensource\EWARM\mksDLP\Obj\id_manage.o
#        E:\DLP_Proj\DLP_source\branches\DLP_opensource\EWARM\mksDLP\Obj\ili9488.o
#        E:\DLP_Proj\DLP_source\branches\DLP_opensource\EWARM\mksDLP\Obj\iwdg.o
#        E:\DLP_Proj\DLP_source\branches\DLP_opensource\EWARM\mksDLP\Obj\least_squares_fit.o
#        E:\DLP_Proj\DLP_source\branches\DLP_opensource\EWARM\mksDLP\Obj\M100_Free_Mem_Chk.o
#        E:\DLP_Proj\DLP_source\branches\DLP_opensource\EWARM\mksDLP\Obj\main.o
#        E:\DLP_Proj\DLP_source\branches\DLP_opensource\EWARM\mksDLP\Obj\Marlin_main.o
#        E:\DLP_Proj\DLP_source\branches\DLP_opensource\EWARM\mksDLP\Obj\MarlinSerial.o
#        E:\DLP_Proj\DLP_source\branches\DLP_opensource\EWARM\mksDLP\Obj\mesh_bed_leveling.o
#        E:\DLP_Proj\DLP_source\branches\DLP_opensource\EWARM\mksDLP\Obj\misc.o
#        E:\DLP_Proj\DLP_source\branches\DLP_opensource\EWARM\mksDLP\Obj\mks_cfg.o
#        E:\DLP_Proj\DLP_source\branches\DLP_opensource\EWARM\mksDLP\Obj\mks_fontHz14.o
#        E:\DLP_Proj\DLP_source\branches\DLP_opensource\EWARM\mksDLP\Obj\mks_touch_screen.o
#        E:\DLP_Proj\DLP_source\branches\DLP_opensource\EWARM\mksDLP\Obj\mks_variant.o
#        E:\DLP_Proj\DLP_source\branches\DLP_opensource\Middlewares\mksDLP.a
#        E:\DLP_Proj\DLP_source\branches\DLP_opensource\EWARM\mksDLP\Obj\multi_language.o
#        E:\DLP_Proj\DLP_source\branches\DLP_opensource\EWARM\mksDLP\Obj\mycc936.o
#        E:\DLP_Proj\DLP_source\branches\DLP_opensource\EWARM\mksDLP\Obj\pic.o
#        E:\DLP_Proj\DLP_source\branches\DLP_opensource\EWARM\mksDLP\Obj\pic_manager.o
#        E:\DLP_Proj\DLP_source\branches\DLP_opensource\EWARM\mksDLP\Obj\planner.o
#        E:\DLP_Proj\DLP_source\branches\DLP_opensource\EWARM\mksDLP\Obj\planner_bezier.o
#        E:\DLP_Proj\DLP_source\branches\DLP_opensource\EWARM\mksDLP\Obj\Print.o
#        E:\DLP_Proj\DLP_source\branches\DLP_opensource\EWARM\mksDLP\Obj\printcounter.o
#        E:\DLP_Proj\DLP_source\branches\DLP_opensource\EWARM\mksDLP\Obj\RingBuffer.o
#        E:\DLP_Proj\DLP_source\branches\DLP_opensource\EWARM\mksDLP\Obj\rtc.o
#        E:\DLP_Proj\DLP_source\branches\DLP_opensource\EWARM\mksDLP\Obj\sd_diskio.o
#        E:\DLP_Proj\DLP_source\branches\DLP_opensource\EWARM\mksDLP\Obj\sdio.o
#        E:\DLP_Proj\DLP_source\branches\DLP_opensource\EWARM\mksDLP\Obj\serial.o
#        E:\DLP_Proj\DLP_source\branches\DLP_opensource\EWARM\mksDLP\Obj\servo.o
#        E:\DLP_Proj\DLP_source\branches\DLP_opensource\EWARM\mksDLP\Obj\spi.o
#        E:\DLP_Proj\DLP_source\branches\DLP_opensource\EWARM\mksDLP\Obj\spi_flash.o
#        E:\DLP_Proj\DLP_source\branches\DLP_opensource\EWARM\mksDLP\Obj\ssd2828.o
#        E:\DLP_Proj\DLP_source\branches\DLP_opensource\EWARM\mksDLP\Obj\startup_stm32f407xx.o
#        E:\DLP_Proj\DLP_source\branches\DLP_opensource\EWARM\mksDLP\Obj\stepper.o
#        E:\DLP_Proj\DLP_source\branches\DLP_opensource\EWARM\mksDLP\Obj\stepper_dac.o
#        E:\DLP_Proj\DLP_source\branches\DLP_opensource\EWARM\mksDLP\Obj\stepper_indirection.o
#        E:\DLP_Proj\DLP_source\branches\DLP_opensource\EWARM\mksDLP\Obj\stm32f4xx_fsmc.o
#        E:\DLP_Proj\DLP_source\branches\DLP_opensource\EWARM\mksDLP\Obj\stm32f4xx_gpio.o
#        E:\DLP_Proj\DLP_source\branches\DLP_opensource\EWARM\mksDLP\Obj\stm32f4xx_hal.o
#        E:\DLP_Proj\DLP_source\branches\DLP_opensource\EWARM\mksDLP\Obj\stm32f4xx_hal_adc.o
#        E:\DLP_Proj\DLP_source\branches\DLP_opensource\EWARM\mksDLP\Obj\stm32f4xx_hal_adc_ex.o
#        E:\DLP_Proj\DLP_source\branches\DLP_opensource\EWARM\mksDLP\Obj\stm32f4xx_hal_cortex.o
#        E:\DLP_Proj\DLP_source\branches\DLP_opensource\EWARM\mksDLP\Obj\stm32f4xx_hal_dac.o
#        E:\DLP_Proj\DLP_source\branches\DLP_opensource\EWARM\mksDLP\Obj\stm32f4xx_hal_dac_ex.o
#        E:\DLP_Proj\DLP_source\branches\DLP_opensource\EWARM\mksDLP\Obj\stm32f4xx_hal_dma.o
#        E:\DLP_Proj\DLP_source\branches\DLP_opensource\EWARM\mksDLP\Obj\stm32f4xx_hal_dma_ex.o
#        E:\DLP_Proj\DLP_source\branches\DLP_opensource\EWARM\mksDLP\Obj\stm32f4xx_hal_flash.o
#        E:\DLP_Proj\DLP_source\branches\DLP_opensource\EWARM\mksDLP\Obj\stm32f4xx_hal_flash_ex.o
#        E:\DLP_Proj\DLP_source\branches\DLP_opensource\EWARM\mksDLP\Obj\stm32f4xx_hal_flash_ramfunc.o
#        E:\DLP_Proj\DLP_source\branches\DLP_opensource\EWARM\mksDLP\Obj\stm32f4xx_hal_gpio.o
#        E:\DLP_Proj\DLP_source\branches\DLP_opensource\EWARM\mksDLP\Obj\stm32f4xx_hal_hcd.o
#        E:\DLP_Proj\DLP_source\branches\DLP_opensource\EWARM\mksDLP\Obj\stm32f4xx_hal_i2c.o
#        E:\DLP_Proj\DLP_source\branches\DLP_opensource\EWARM\mksDLP\Obj\stm32f4xx_hal_i2c_ex.o
#        E:\DLP_Proj\DLP_source\branches\DLP_opensource\EWARM\mksDLP\Obj\stm32f4xx_hal_iwdg.o
#        E:\DLP_Proj\DLP_source\branches\DLP_opensource\EWARM\mksDLP\Obj\stm32f4xx_hal_msp.o
#        E:\DLP_Proj\DLP_source\branches\DLP_opensource\EWARM\mksDLP\Obj\stm32f4xx_hal_pwr.o
#        E:\DLP_Proj\DLP_source\branches\DLP_opensource\EWARM\mksDLP\Obj\stm32f4xx_hal_pwr_ex.o
#        E:\DLP_Proj\DLP_source\branches\DLP_opensource\EWARM\mksDLP\Obj\stm32f4xx_hal_rcc.o
#        E:\DLP_Proj\DLP_source\branches\DLP_opensource\EWARM\mksDLP\Obj\stm32f4xx_hal_rcc_ex.o
#        E:\DLP_Proj\DLP_source\branches\DLP_opensource\EWARM\mksDLP\Obj\stm32f4xx_hal_rtc.o
#        E:\DLP_Proj\DLP_source\branches\DLP_opensource\EWARM\mksDLP\Obj\stm32f4xx_hal_rtc_ex.o
#        E:\DLP_Proj\DLP_source\branches\DLP_opensource\EWARM\mksDLP\Obj\stm32f4xx_hal_sd.o
#        E:\DLP_Proj\DLP_source\branches\DLP_opensource\EWARM\mksDLP\Obj\stm32f4xx_hal_spi.o
#        E:\DLP_Proj\DLP_source\branches\DLP_opensource\EWARM\mksDLP\Obj\stm32f4xx_hal_sram.o
#        E:\DLP_Proj\DLP_source\branches\DLP_opensource\EWARM\mksDLP\Obj\stm32f4xx_hal_tim.o
#        E:\DLP_Proj\DLP_source\branches\DLP_opensource\EWARM\mksDLP\Obj\stm32f4xx_hal_tim_ex.o
#        E:\DLP_Proj\DLP_source\branches\DLP_opensource\EWARM\mksDLP\Obj\stm32f4xx_hal_uart.o
#        E:\DLP_Proj\DLP_source\branches\DLP_opensource\EWARM\mksDLP\Obj\stm32f4xx_it.o
#        E:\DLP_Proj\DLP_source\branches\DLP_opensource\EWARM\mksDLP\Obj\stm32f4xx_ll_fsmc.o
#        E:\DLP_Proj\DLP_source\branches\DLP_opensource\EWARM\mksDLP\Obj\stm32f4xx_ll_sdmmc.o
#        E:\DLP_Proj\DLP_source\branches\DLP_opensource\EWARM\mksDLP\Obj\stm32f4xx_ll_usb.o
#        E:\DLP_Proj\DLP_source\branches\DLP_opensource\EWARM\mksDLP\Obj\stm32f4xx_spi.o
#        E:\DLP_Proj\DLP_source\branches\DLP_opensource\EWARM\mksDLP\Obj\stm32f4xx_usart.o
#        E:\DLP_Proj\DLP_source\branches\DLP_opensource\EWARM\mksDLP\Obj\stopwatch.o
#        E:\DLP_Proj\DLP_source\branches\DLP_opensource\EWARM\mksDLP\Obj\Stream.o
#        E:\DLP_Proj\DLP_source\branches\DLP_opensource\EWARM\mksDLP\Obj\string_deal.o
#        E:\DLP_Proj\DLP_source\branches\DLP_opensource\EWARM\mksDLP\Obj\syscall.o
#        E:\DLP_Proj\DLP_source\branches\DLP_opensource\EWARM\mksDLP\Obj\system_stm32f4xx.o
#        E:\DLP_Proj\DLP_source\branches\DLP_opensource\EWARM\mksDLP\Obj\temperature.o
#        E:\DLP_Proj\DLP_source\branches\DLP_opensource\EWARM\mksDLP\Obj\tim.o
#        E:\DLP_Proj\DLP_source\branches\DLP_opensource\EWARM\mksDLP\Obj\twibus.o
#        E:\DLP_Proj\DLP_source\branches\DLP_opensource\EWARM\mksDLP\Obj\ubl.o
#        E:\DLP_Proj\DLP_source\branches\DLP_opensource\EWARM\mksDLP\Obj\ubl_G29.o
#        E:\DLP_Proj\DLP_source\branches\DLP_opensource\EWARM\mksDLP\Obj\ubl_motion.o
#        E:\DLP_Proj\DLP_source\branches\DLP_opensource\EWARM\mksDLP\Obj\usart.o
#        E:\DLP_Proj\DLP_source\branches\DLP_opensource\EWARM\mksDLP\Obj\USARTClass.o
#        E:\DLP_Proj\DLP_source\branches\DLP_opensource\EWARM\mksDLP\Obj\usb_host.o
#        E:\DLP_Proj\DLP_source\branches\DLP_opensource\EWARM\mksDLP\Obj\usbh_conf.o
#        E:\DLP_Proj\DLP_source\branches\DLP_opensource\EWARM\mksDLP\Obj\usbh_core.o
#        E:\DLP_Proj\DLP_source\branches\DLP_opensource\EWARM\mksDLP\Obj\usbh_ctlreq.o
#        E:\DLP_Proj\DLP_source\branches\DLP_opensource\EWARM\mksDLP\Obj\usbh_diskio.o
#        E:\DLP_Proj\DLP_source\branches\DLP_opensource\EWARM\mksDLP\Obj\usbh_ioreq.o
#        E:\DLP_Proj\DLP_source\branches\DLP_opensource\EWARM\mksDLP\Obj\usbh_msc.o
#        E:\DLP_Proj\DLP_source\branches\DLP_opensource\EWARM\mksDLP\Obj\usbh_msc_bot.o
#        E:\DLP_Proj\DLP_source\branches\DLP_opensource\EWARM\mksDLP\Obj\usbh_msc_scsi.o
#        E:\DLP_Proj\DLP_source\branches\DLP_opensource\EWARM\mksDLP\Obj\usbh_pipes.o
#        E:\DLP_Proj\DLP_source\branches\DLP_opensource\EWARM\mksDLP\Obj\utility.o
#        E:\DLP_Proj\DLP_source\branches\DLP_opensource\EWARM\mksDLP\Obj\vector_3.o
#        E:\DLP_Proj\DLP_source\branches\DLP_opensource\EWARM\mksDLP\Obj\watchdog.o
#        E:\DLP_Proj\DLP_source\branches\DLP_opensource\EWARM\mksDLP\Obj\WMath.o
#        E:\DLP_Proj\DLP_source\branches\DLP_opensource\EWARM\mksDLP\Obj\WString.o
#        --redirect _Printf=_PrintfFull --redirect _Scanf=_ScanfFull -o
#        E:\DLP_Proj\DLP_source\branches\DLP_opensource\EWARM\mksDLP\Exe\mksDLP.out
#        --map
#        E:\DLP_Proj\DLP_source\branches\DLP_opensource\EWARM\mksDLP/List\mksDLP.map
#        --log
#        libraries,initialization,modules,redirects,sections,veneers,unused_fragments
#        --log_file
#        E:\DLP_Proj\DLP_source\branches\DLP_opensource\EWARM\mksDLP/List\mksDLP.log
#        --config
#        E:\DLP_Proj\DLP_source\branches\DLP_opensource\EWARM/stm32f407xx_flash.icf
#        --semihosting --entry __iar_program_start --vfe
#
###############################################################################

*******************************************************************************
*** RUNTIME MODEL ATTRIBUTES
***

CppFlavor                     = *
__CPP_Language                = EC++
__Heap_Handler                = DLMalloc
__SystemLibrary               = DLib
__dlib_dynamic_initialization = normal


*******************************************************************************
*** PLACEMENT SUMMARY
***

"A1":  place at 0x08010000 { ro section .intvec };
"P1":  place in [from 0x08010000 to 0x080fffff] { ro };
"P2":  place in [from 0x20000000 to 0x2001ffff] { rw, block CSTACK, block HEAP };

  Section             Kind        Address     Size  Object
  -------             ----        -------     ----  ------
"A1":                                        0x188
  .intvec             ro code  0x08010000    0x188  startup_stm32f407xx.o [1]
                             - 0x08010188    0x188

"P1":                                      0x41a0a
  .rodata             const    0x08010188   0xff14  Font24_MS.o [1]
  .text               ro code  0x0802009c   0x5200  Marlin_main.o [1]
  .text               ro code  0x0802529c    0x87c  cardreader.o [1]
  .text               ro code  0x08025b18     0xda  stopwatch.o [1]
  .text               ro code  0x08025bf2     0x14  Marlin_main.o [1]
  .text               ro code  0x08025c06     0x22  zero_init3.o [6]
  .text               ro code  0x08025c28     0x6c  strncpy_unaligned.o [6]
  .text               ro code  0x08025c94     0x38  Marlin_main.o [1]
  .text               ro code  0x08025ccc     0x1c  temperature.o [1]
  .text               ro code  0x08025ce8    0x110  serial.o [1]
  .text               ro code  0x08025df8    0x150  USARTClass.o [1]
  .text               ro code  0x08025f48    0x248  Print.o [1]
  .text               ro code  0x08026190    0x228  Marlin_main.o [1]
  .text               ro code  0x080263b8     0x16  Marlin_main.o [1]
  .text               ro code  0x080263ce     0x22  Marlin_main.o [1]
  .text               ro code  0x080263f0     0x20  Marlin_main.o [1]
  .text               ro code  0x08026410    0x598  stepper.o [1]
  .text               ro code  0x080269a8     0x10  Marlin_main.o [1]
  .text               ro code  0x080269b8     0x1e  Marlin_main.o [1]
  .text               ro code  0x080269d6      0xa  xsprout.o [3]
  .text               ro code  0x080269e0      0xc  Marlin_main.o [1]
  .text               ro code  0x080269ec     0x4e  FltToDbl.o [4]
  .rodata             const    0x08026a3a      0x2  Marlin_main.o [1]
  .text               ro code  0x08026a3c    0x1a2  DblMul.o [4]
  .text               ro code  0x08026be0     0x30  I32ToDbl.o [4]
  .text               ro code  0x08026c10     0x90  DblToFlt.o [4]
  .text               ro code  0x08026ca0     0x50  Marlin_main.o [1]
  .text               ro code  0x08026cf0     0x4c  planner.o [1]
  .text               ro code  0x08026d3c      0x4  Marlin_main.o [1]
  .text               ro code  0x08026d40     0x24  Marlin_main.o [1]
  .text               ro code  0x08026d64      0x4  Marlin_main.o [1]
  .text               ro code  0x08026d68     0x88  stm32f4xx_hal.o [1]
  .text               ro code  0x08026df0     0x48  Marlin_main.o [1]
  .text               ro code  0x08026e38     0x18  Marlin_main.o [1]
  .text               ro code  0x08026e50    0x210  Marlin_main.o [1]
  .text               ro code  0x08027060     0x48  Marlin_main.o [1]
  .text               ro code  0x080270a8     0xe8  Marlin_main.o [1]
  .text               ro code  0x08027190     0xa0  Marlin_main.o [1]
  .text               ro code  0x08027230     0x18  Marlin_main.o [1]
  .text               ro code  0x08027248     0x24  Marlin_main.o [1]
  .text               ro code  0x0802726c      0xc  Marlin_main.o [1]
  .text               ro code  0x08027278     0x44  Marlin_main.o [1]
  .text               ro code  0x080272bc     0x2c  Marlin_main.o [1]
  .text               ro code  0x080272e8    0x5b0  draw_ui.o [1]
  .text               ro code  0x08027898    0xac4  draw_printing.o [1]
  .text               ro code  0x0802835c     0x20  Marlin_main.o [1]
  .text               ro code  0x0802837c     0x74  Marlin_main.o [1]
  .text               ro code  0x080283f0     0x2c  Marlin_main.o [1]
  .text               ro code  0x0802841c      0xc  Marlin_main.o [1]
  .text               ro code  0x08028428     0x18  Marlin_main.o [1]
  .text               ro code  0x08028440      0x2  Marlin_main.o [1]
  .text               ro code  0x08028444     0x2c  Marlin_main.o [1]
  .text               ro code  0x08028470     0x68  Marlin_main.o [1]
  .text               ro code  0x080284d8     0x14  Marlin_main.o [1]
  .text               ro code  0x080284ec     0x4c  Marlin_main.o [1]
  .text               ro code  0x08028538     0x7c  Marlin_main.o [1]
  .text               ro code  0x080285b4      0xc  Marlin_main.o [1]
  .text               ro code  0x080285c0      0xc  Marlin_main.o [1]
  .text               ro code  0x080285cc      0xc  Marlin_main.o [1]
  .text               ro code  0x080285d8     0xec  Marlin_main.o [1]
  .text               ro code  0x080286c4     0x1c  Marlin_main.o [1]
  .text               ro code  0x080286e0     0x88  Marlin_main.o [1]
  .text               ro code  0x08028768      0xc  Marlin_main.o [1]
  .text               ro code  0x08028774      0xc  Marlin_main.o [1]
  .text               ro code  0x08028780      0x4  Marlin_main.o [1]
  .text               ro code  0x08028784     0x28  Marlin_main.o [1]
  .text               ro code  0x080287ac     0x34  Marlin_main.o [1]
  .text               ro code  0x080287e0    0x240  Marlin_main.o [1]
  .text               ro code  0x08028a20     0x3c  Marlin_main.o [1]
  .text               ro code  0x08028a5c     0x24  Marlin_main.o [1]
  .text               ro code  0x08028a80     0x2c  Marlin_main.o [1]
  .text               ro code  0x08028aac      0xc  Marlin_main.o [1]
  .text               ro code  0x08028ab8      0xc  Marlin_main.o [1]
  .text               ro code  0x08028ac4     0x94  Marlin_main.o [1]
  .text               ro code  0x08028b58     0x1c  Marlin_main.o [1]
  .text               ro code  0x08028b74     0xa0  Marlin_main.o [1]
  .text               ro code  0x08028c14      0xe  Marlin_main.o [1]
  .text               ro code  0x08028c24     0xb8  Marlin_main.o [1]
  .text               ro code  0x08028cdc     0x10  Marlin_main.o [1]
  .text               ro code  0x08028cec     0x4c  Marlin_main.o [1]
  .text               ro code  0x08028d38      0x4  Marlin_main.o [1]
  .text               ro code  0x08028d3c      0x6  Marlin_main.o [1]
  .text               ro code  0x08028d42      0x6  Marlin_main.o [1]
  .text               ro code  0x08028d48     0x58  Marlin_main.o [1]
  .text               ro code  0x08028da0     0x40  Marlin_main.o [1]
  .text               ro code  0x08028de0     0x38  Marlin_main.o [1]
  .text               ro code  0x08028e18     0xb8  Marlin_main.o [1]
  .text               ro code  0x08028ed0     0xa0  Marlin_main.o [1]
  .text               ro code  0x08028f70     0x30  Marlin_main.o [1]
  .text               ro code  0x08028fa0     0xf0  Marlin_main.o [1]
  .text               ro code  0x08029090     0x1c  Marlin_main.o [1]
  .text               ro code  0x080290ac     0x38  Marlin_main.o [1]
  .text               ro code  0x080290e4     0x94  Marlin_main.o [1]
  .text               ro code  0x08029178    0x110  Marlin_main.o [1]
  .text               ro code  0x08029288     0x70  Marlin_main.o [1]
  .text               ro code  0x080292f8      0x4  Marlin_main.o [1]
  .text               ro code  0x080292fc    0x10c  Marlin_main.o [1]
  .text               ro code  0x08029408      0x4  Marlin_main.o [1]
  .text               ro code  0x0802940c      0x4  Marlin_main.o [1]
  .text               ro code  0x08029410      0x4  Marlin_main.o [1]
  .text               ro code  0x08029414     0x24  Marlin_main.o [1]
  .text               ro code  0x08029438      0x2  Marlin_main.o [1]
  .text               ro code  0x0802943c     0x1c  Marlin_main.o [1]
  .text               ro code  0x08029458     0x24  Marlin_main.o [1]
  .text               ro code  0x0802947c     0x10  Marlin_main.o [1]
  .text               ro code  0x0802948c    0x224  gcode.o [1]
  .text               ro code  0x080296b0      0xc  memcpy.o [3]
  .text               ro code  0x080296bc     0x44  Marlin_main.o [1]
  .text               ro code  0x08029700     0x14  Marlin_main.o [1]
  .text               ro code  0x08029714     0x1c  sqrtf.o [4]
  .text               ro code  0x08029730     0x6e  atan2f.o [4]
  .text               ro code  0x080297a0     0xe8  DblAdd.o [4]
  .text               ro code  0x08029888     0x4a  floorf.o [4]
  .text               ro code  0x080298d4    0x180  DblSub.o [4]
  .text               ro code  0x08029a54      0x6  cosf.o [4]
  .text               ro code  0x08029a5a      0x6  sinf.o [4]
  .text               ro code  0x08029a60     0x18  Marlin_main.o [1]
  .text               ro code  0x08029a78    0xb88  temperature.o [1]
  .text               ro code  0x0802a600    0x326  stm32f4xx_hal_gpio.o [1]
  .text               ro code  0x0802a928     0x18  planner.o [1]
  .text               ro code  0x0802a940   0x10dc  planner.o [1]
  .text               ro code  0x0802ba1c     0xf4  GUI_TOUCH_DriverAnalog.o [5]
  .text               ro code  0x0802bb10     0x3c  GUI_Exec.o [5]
  .text               ro code  0x0802bb4c   0x13e4  configuration_store.o [1]
  .text               ro code  0x0802cf30      0x2  Marlin_main.o [1]
  .text               ro code  0x0802cf32      0x4  WString.o [1]
  .text               ro code  0x0802cf38    0x244  endstops.o [1]
  .text               ro code  0x0802d17c    0x440  main.o [1]
  .text               ro code  0x0802d5bc    0xe88  mks_cfg.o [1]
  .text               ro code  0x0802e444     0x76  ABImemcpy_unaligned.o [6]
  .text               ro code  0x0802e4ba     0x14  memset.o [3]
  .text               ro code  0x0802e4ce      0x2  Marlin_main.o [1]
  .text               ro code  0x0802e4d0     0x34  sprintf.o [3]
  .text               ro code  0x0802e504     0x1c  strcat.o [3]
  .text               ro code  0x0802e520     0x44  strcpy_unaligned.o [6]
  .text               ro code  0x0802e564     0x10  Marlin_main.o [1]
  .text               ro code  0x0802e574    0x6d8  draw_dialog.o [1]
  .text               ro code  0x0802ec4c    0x240  tim.o [1]
  .text               ro code  0x0802ee8c    0x166  at24cxx.o [1]
  .text               ro code  0x0802eff4    0x314  draw_ready_print.o [1]
  .text               ro code  0x0802f308     0x10  atof.o [4]
  .text               ro code  0x0802f318     0x12  Marlin_main.o [1]
  .text               ro code  0x0802f32a     0x2c  Marlin_main.o [1]
  .text               ro code  0x0802f358    0x53c  ssd2828.o [1]
  .text               ro code  0x0802f894     0x14  Marlin_main.o [1]
  .text               ro code  0x0802f8a8      0x8  Marlin_main.o [1]
  .text               ro code  0x0802f8b0    0x30a  spi.o [1]
  .text               ro code  0x0802fbbc    0x652  stm32f4xx_hal_spi.o [1]
  .text               ro code  0x0803020e     0x42  Marlin_main.o [1]
  .text               ro code  0x08030250    0x254  draw_ExposureTest.o [1]
  .text               ro code  0x080304a4     0x58  DblToI32.o [4]
  .text               ro code  0x080304fc      0x8  cardreader.o [1]
  .text               ro code  0x08030504     0x84  ff_gen_drv.o [1]
  .text               ro code  0x08030588     0x74  usb_host.o [1]
  .text               ro code  0x080305fc   0x22be  ff.o [1]
  .text               ro code  0x080328bc      0x6  ABImemclr4.o [6]
  .text               ro code  0x080328c2      0x4  cardreader.o [1]
  .text               ro code  0x080328c8     0x36  strlen.o [6]
  .text               ro code  0x080328fe      0x4  WString.o [1]
  .text               ro code  0x08032904     0x66  ABImemset.o [6]
  .text               ro code  0x0803296c     0x24  Marlin_main.o [1]
  .text               ro code  0x08032990     0x38  RingBuffer.o [1]
  .text               ro code  0x080329c8      0x4  USARTClass.o [1]
  .text               ro code  0x080329cc     0xd0  stm32f4xx_usart.o [1]
  .text               ro code  0x08032a9c     0x24  Print.o [1]
  .text               ro code  0x08032ac0     0x48  xdtest.o [4]
  .text               ro code  0x08032b08     0x2e  DblCmpGe.o [4]
  .text               ro code  0x08032b38     0x2e  DblCmpLe.o [4]
  .text               ro code  0x08032b68    0x246  DblDiv.o [4]
  .text               ro code  0x08032dae      0x6  strtol.o [3]
  .text               ro code  0x08032db4      0x4  WString.o [1]
  .text               ro code  0x08032db8     0x10  Marlin_main.o [1]
  .text               ro code  0x08032dc8      0x2  Marlin_main.o [1]
  .text               ro code  0x08032dcc     0x42  strcmp_unaligned.o [6]
  .text               ro code  0x08032e10     0x14  Marlin_main.o [1]
  .text               ro code  0x08032e24     0x18  Marlin_main.o [1]
  .text               ro code  0x08032e3c    0x730  stm32f4xx_hal_tim.o [1]
  .text               ro code  0x0803356c     0x1c  stepper.o [1]
  .text               ro code  0x08033588     0x1c  stepper.o [1]
  .text               ro code  0x080335a4     0x38  stepper.o [1]
  .text               ro code  0x080335dc     0x2c  stepper.o [1]
  .text               ro code  0x08033608     0x70  stepper.o [1]
  .text               ro code  0x08033678     0x50  stepper.o [1]
  .text               ro code  0x080336c8      0xc  stepper.o [1]
  .text               ro code  0x080336d4     0x10  stepper.o [1]
  .text               ro code  0x080336e4     0x64  planner.o [1]
  .text               ro code  0x08033748      0x4  Marlin_main.o [1]
  .text               ro code  0x0803374c    0x10e  stm32f4xx_hal_cortex.o [1]
  .text               ro code  0x0803385a     0x60  stm32f4xx_hal_msp.o [1]
  .text               ro code  0x080338bc      0xc  temperature.o [1]
  .text               ro code  0x080338c8    0x100  sqrt.o [4]
  .text               ro code  0x080339c8      0x4  Marlin_main.o [1]
  .text               ro code  0x080339cc     0x1c  Marlin_main.o [1]
  .text               ro code  0x080339e8      0x4  Marlin_main.o [1]
  .text               ro code  0x080339ec     0x14  Marlin_main.o [1]
  .text               ro code  0x08033a00     0x14  Marlin_main.o [1]
  .text               ro code  0x08033a14      0x2  Marlin_main.o [1]
  .text               ro code  0x08033a18      0xc  Marlin_main.o [1]
  .text               ro code  0x08033a24     0xec  GUICore.o [5]
  .text               ro code  0x08033b10    0x8a8  draw_print_file.o [1]
  .text               ro code  0x080343b8    0x79c  draw_move_motor.o [1]
  .text               ro code  0x08034b54    0x6a0  draw_operate.o [1]
  .text               ro code  0x080351f4    0x3d4  draw_set.o [1]
  .text               ro code  0x080355c8   0x1158  draw_language.o [1]
  .text               ro code  0x08036720    0x26c  draw_about.o [1]
  .text               ro code  0x0803698c    0x4c8  draw_tool.o [1]
  .text               ro code  0x08036e54    0xebc  draw_keyboard.o [1]
  .text               ro code  0x08037d10    0x56c  draw_detection.o [1]
  .text               ro code  0x0803827c    0x2b4  draw_service.o [1]
  .text               ro code  0x08038530    0x42c  draw_info.o [1]
  .text               ro code  0x0803895c    0x358  draw_preview.o [1]
  .text               ro code  0x08038cb4     0x14  GUI_SetFont.o [5]
  .text               ro code  0x08038cc8     0x2c  BUTTON_Default.o [5]
  .text               ro code  0x08038cf4    0x11c  TEXT.o [5]
  .text               ro code  0x08038e10      0x8  GUI_SetColor.o [5]
  .text               ro code  0x08038e18    0x260  WIDGET.o [5]
  .text               ro code  0x08039078    0x7e0  ili9488.o [1]
  .text               ro code  0x08039858     0xdc  pic_manager.o [1]
  .text               ro code  0x08039934    0x3b6  BUTTON.o [5]
  .text               ro code  0x08039cea     0x1e  BUTTON_Bitmap.o [5]
  .text               ro code  0x08039d08    0xe00  WM.o [5]
  .text               ro code  0x0803ab08     0x30  GUI_UC_EncodeNone.o [5]
  .text               ro code  0x0803ab38     0x10  GUI_DispStringAt.o [5]
  .text               ro code  0x0803ab48    0x10c  GUI_UC_EncodeUTF8.o [5]
  .text               ro code  0x0803ac54     0x2e  TEXT_SetBkColor.o [5]
  .text               ro code  0x0803ac84    0x3d0  PROGBAR.o [5]
  .text               ro code  0x0803b054     0x1c  TEXT_SetTextColor.o [5]
  .text               ro code  0x0803b070     0x26  TEXT_SetText.o [5]
  .text               ro code  0x0803b096      0x4  WM_IsWindow.o [5]
  .text               ro code  0x0803b09a     0x1e  Marlin_main.o [1]
  .text               ro code  0x0803b0b8      0x6  printcounter.o [1]
  .text               ro code  0x0803b0c0     0xe8  printcounter.o [1]
  .text               ro code  0x0803b1a8     0x16  Marlin_main.o [1]
  .text               ro code  0x0803b1be      0x4  planner.o [1]
  .text               ro code  0x0803b1c4     0x14  temperature.o [1]
  .text               ro code  0x0803b1d8      0xc  temperature.o [1]
  .text               ro code  0x0803b1e4     0x16  Marlin_main.o [1]
  .text               ro code  0x0803b1fa      0x2  temperature.o [1]
  .text               ro code  0x0803b1fc     0x10  temperature.o [1]
  .text               ro code  0x0803b20c     0x2c  Marlin_main.o [1]
  .text               ro code  0x0803b238     0x16  Marlin_main.o [1]
  .text               ro code  0x0803b24e     0x5e  utility.o [1]
  .text               ro code  0x0803b2ac      0x4  Marlin_main.o [1]
  .text               ro code  0x0803b2b0      0xc  endstops.o [1]
  .text               ro code  0x0803b2bc     0x30  Marlin_main.o [1]
  .text               ro code  0x0803b2ec     0x18  Marlin_main.o [1]
  .text               ro code  0x0803b304     0x1c  Marlin_main.o [1]
  .text               ro code  0x0803b320      0xa  Marlin_main.o [1]
  .text               ro code  0x0803b32c     0x4c  planner.o [1]
  .text               ro code  0x0803b378      0x2  temperature.o [1]
  .text               ro code  0x0803b37a     0x24  Marlin_main.o [1]
  .text               ro code  0x0803b39e      0x2  Marlin_main.o [1]
  .text               ro code  0x0803b3a0      0x2  Marlin_main.o [1]
  .text               ro code  0x0803b3a4     0x38  gcode.o [1]
  .text               ro code  0x0803b3dc     0x28  Marlin_main.o [1]
  .text               ro code  0x0803b404      0xc  iarEdom.o [6]
  .text               ro code  0x0803b410     0xa4  xatanf.o [4]
  .text               ro code  0x0803b4b4    0x16c  xfsin.o [4]
  .text               ro code  0x0803b620      0x2  temperature.o [1]
  .text               ro code  0x0803b624     0x46  ceilf.o [4]
  .text               ro code  0x0803b66c     0x68  planner.o [1]
  .text               ro code  0x0803b6d4     0x80  planner.o [1]
  .text               ro code  0x0803b754     0x34  planner.o [1]
  .text               ro code  0x0803b788     0x14  planner.o [1]
  .text               ro code  0x0803b79c      0x8  planner.o [1]
  .text               ro code  0x0803b7a4      0x8  planner.o [1]
  .text               ro code  0x0803b7ac     0xa8  planner.o [1]
  .text               ro code  0x0803b854      0x8  labs.o [3]
  .text               ro code  0x0803b85c     0x58  lroundf.o [4]
  .text               ro code  0x0803b8b4      0x4  planner.o [1]
  .text               ro code  0x0803b8b8     0x38  GUI_TOUCH_StoreUnstable.o [5]
  .text               ro code  0x0803b8f0     0x2c  GUI_X_Touch.o [5]
  .text               ro code  0x0803b91c     0x62  memcmp_unaligned.o [6]
  .text               ro code  0x0803b97e     0x2a  strncmp.o [3]
  .text               ro code  0x0803b9a8   0x14c0  dlmalloc.o [3]
  .text               ro code  0x0803ce68     0x2c  strstr.o [3]
  .text               ro code  0x0803ce94      0xe  endstops.o [1]
  .text               ro code  0x0803cea4     0x28  endstops.o [1]
  .text               ro code  0x0803cecc     0x14  misc.o [1]
  .text               ro code  0x0803cee0    0x2c0  gpio.o [1]
  .text               ro code  0x0803d1a0     0xc8  dma.o [1]
  .text               ro code  0x0803d268     0x2c  fatfs.o [1]
  .text               ro code  0x0803d294     0x94  rtc.o [1]
  .text               ro code  0x0803d328     0xac  i2c.o [1]
  .text               ro code  0x0803d3d4    0x15c  sdio.o [1]
  .text               ro code  0x0803d530    0x1e0  usart.o [1]
  .text               ro code  0x0803d710     0x30  stm32f4xx_spi.o [1]
  .text               ro code  0x0803d740   0x2bc0  multi_language.o [1]
  .text               ro code  0x08040300    0x478  stm32f4xx_hal_rcc.o [1]
  .text               ro code  0x08040778    0x128  stm32f4xx_hal_rcc_ex.o [1]
  .text               ro code  0x080408a0    0x108  spi_flash.o [1]
  .text               ro code  0x080409a8     0x2c  mks_cfg.o [1]
  .text               ro code  0x080409d4      0x8  atoi.o [3]
  .text               ro code  0x080409dc   0x1106  xprintffull.o [3]
  .text               ro code  0x08041ae4     0x24  id_manage.o [1]
  .text               ro code  0x08041b08     0x1e  BUTTON_SetTextAlign.o [5]
  .text               ro code  0x08041b28     0x58  stm32f4xx_hal_tim_ex.o [1]
  .text               ro code  0x08041b80    0x9a2  stm32f4xx_hal_i2c.o [1]
  .text               ro code  0x08042524    0x168  xstod.o [4]
  .text               ro code  0x0804268c    0x49c  stm32f4xx_hal_dma.o [1]
  .text               ro code  0x08042b28     0x90  GUI2DLib.o [5]
  .text               ro code  0x08042bb8    0x502  usbh_core.o [1]
  .text               ro code  0x080430bc     0x7c  diskio.o [1]
  .text               ro code  0x08043138    0x46c  mycc936.o [1]
  .text               ro code  0x080435a4     0x32  ABImemset48.o [6]
  .text               ro code  0x080435d8     0x16  strchr.o [6]
  .text               ro code  0x080435ee      0xc  USARTClass.o [1]
  .text               ro code  0x080435fa     0x88  xstol.o [3]
  .text               ro code  0x08043682     0x18  strrchr.o [3]
  .text               ro code  0x0804369a      0xe  strtod.o [4]
  .text               ro code  0x080436a8      0x8  Marlin_main.o [1]
  .text               ro code  0x080436b0     0x20  LCD_L0_Generic.o [5]
  .text               ro code  0x080436d0      0xc  WM_GetDesktopWindow.o [5]
  .text               ro code  0x080436dc    0x314  LCD.o [5]
  .text               ro code  0x080439f0     0x28  GUI_Goto.o [5]
  .text               ro code  0x08043a18      0x4  draw_print_file.o [1]
  .text               ro code  0x08043a1c     0xbc  string_deal.o [1]
  .text               ro code  0x08043ad8     0xac  pic.o [1]
  .text               ro code  0x08043b84     0x1c  TEXT_SetTextAlign.o [5]
  .text               ro code  0x08043ba0     0x50  GUI_FillRect.o [5]
  .text               ro code  0x08043bf0    0x27a  GUIAlloc.o [5]
  .text               ro code  0x08043e6c     0x76  WM_SetTrans.o [5]
  .text               ro code  0x08043ee4     0x10  GUI_SetTextMode.o [5]
  .text               ro code  0x08043ef4     0x3c  WM_GetClientRect.o [5]
  .text               ro code  0x08043f30    0x1d2  GUI_DispStringInRect.o [5]
  .text               ro code  0x08044102     0x1c  GUI_ALLOC_AllocZero.o [5]
  .text               ro code  0x0804411e    0x112  WM__UpdateChildPositions.o [5]
  .text               ro code  0x08044230     0x1a  GUI__ReduceRect.o [5]
  .text               ro code  0x0804424c     0xa0  WM_SetFocus.o [5]
  .text               ro code  0x080442ec     0x62  WM_BringToTop.o [5]
  .text               ro code  0x0804434e     0x10  WM_NotifyParent.o [5]
  .text               ro code  0x08044360     0x26  stm32f4xx_gpio.o [1]
  .text               ro code  0x08044388     0xe8  stm32f4xx_fsmc.o [1]
  .text               ro code  0x08044470     0x14  WM__IsEnabled.o [5]
  .text               ro code  0x08044484      0xa  GUI_GetClientRect.o [5]
  .text               ro code  0x08044490     0x14  WM_SetUserClipRect.o [5]
  .text               ro code  0x080444a4     0x20  GUI_DRAW.o [5]
  .text               ro code  0x080444c4     0x1e  GUI_MoveRect.o [5]
  .text               ro code  0x080444e4     0x40  GUI_OnKey.o [5]
  .text               ro code  0x08044524     0x3e  GUI__SetText.o [5]
  .text               ro code  0x08044564     0x50  GUI_DRAW_BITMAP.o [5]
  .text               ro code  0x080445b4     0x30  BUTTON__SetBitmapObj.o [5]
  .text               ro code  0x080445e4     0x68  GUI__IntersectRects.o [5]
  .text               ro code  0x0804464c     0x64  GUI_MergeRect.o [5]
  .text               ro code  0x080446b0     0x1c  LCD_SetClipRectEx.o [5]
  .text               ro code  0x080446cc     0x40  GUI__IntersectRect.o [5]
  .text               ro code  0x0804470c     0x38  GUI_RectsIntersect.o [5]
  .text               ro code  0x08044744     0x3e  WM_BringToBottom.o [5]
  .text               ro code  0x08044784     0x3c  GUI_SetDefault.o [5]
  .text               ro code  0x080447c0     0x18  GUI_SaveContext.o [5]
  .text               ro code  0x080447d8     0x1e  WM_SendToParent.o [5]
  .text               ro code  0x080447f8     0x44  WM_CriticalHandle.o [5]
  .text               ro code  0x0804483c    0x100  GUI_DispString.o [5]
  .text               ro code  0x0804493c     0x1e  GUI_AddDecMin.o [5]
  .text               ro code  0x0804495a     0x14  GUI_GetStringDistX.o [5]
  .text               ro code  0x0804496e      0x4  GUI_GetFontSizeY.o [5]
  .text               ro code  0x08044972     0x18  WIDGET_SetEffect.o [5]
  .text               ro code  0x0804498a     0x12  printcounter.o [1]
  .text               ro code  0x0804499c     0x10  printcounter.o [1]
  .text               ro code  0x080449ac      0xe  printcounter.o [1]
  .text               ro code  0x080449ba      0xe  printcounter.o [1]
  .text               ro code  0x080449c8      0x4  printcounter.o [1]
  .text               ro code  0x080449cc      0xa  Marlin_main.o [1]
  .text               ro code  0x080449d6      0x4  strtoul.o [3]
  .text               ro code  0x080449dc      0xc  errno.o [3]
  .text               ro code  0x080449e8     0xec  xfquad.o [4]
  .text               ro code  0x08044ad4     0x3e  roundf.o [4]
  .text               ro code  0x08044b12      0x8  abs.o [3]
  .text               ro code  0x08044b1c     0x24  GUI_TOUCH_StoreState.o [5]
  .text               ro code  0x08044b40    0x170  mks_touch_screen.o [1]
  .text               ro code  0x08044cb0      0x6  abort.o [3]
  .text               ro code  0x08044cb8     0x2c  xgetmemchunk.o [3]
  .text               ro code  0x08044ce4    0x2f0  stm32f4xx_hal_rtc.o [1]
  .text               ro code  0x08044fd4    0x2f4  stm32f4xx_hal_uart.o [1]
  .text               ro code  0x080452c8    0x198  xstoul.o [3]
  .text               ro code  0x08045460     0x20  xmbtowc.o [3]
  .text               ro code  0x08045480     0x58  memchr.o [6]
  .text               ro code  0x080454d8      0xa  xmbcurmax.o [3]
  .text               ro code  0x080454e2     0x1a  xwctomb.o [3]
  .text               ro code  0x080454fc     0xee  I64DivMod.o [6]
  .text               ro code  0x080455ea     0x42  xdnorm.o [4]
  .text               ro code  0x0804562c    0x114  xdscale.o [4]
  .text               ro code  0x08045740     0x6c  localeconv.o [3]
  .text               ro code  0x080457ac      0xe  div.o [3]
  .text               ro code  0x080457ba    0x134  xstopfx.o [3]
  .text               ro code  0x080458f0    0x1b8  xstoflt.o [3]
  .text               ro code  0x08045aa8    0x200  xdtento.o [4]
  .text               ro code  0x08045ca8    0x218  xstoxflt.o [3]
  .text               ro code  0x08045ec0     0x3c  LCD_DrawVLine.o [5]
  .text               ro code  0x08045efc    0x1d0  usbh_conf.o [1]
  .text               ro code  0x080460cc     0x82  usbh_pipes.o [1]
  .text               ro code  0x08046150    0x4c2  usbh_ctlreq.o [1]
  .text               ro code  0x08046612      0x4  USARTClass.o [1]
  .text               ro code  0x08046616     0x28  isxxx.o [3]
  .text               ro code  0x0804663e     0x1c  LCDPM565.o [5]
  .text               ro code  0x0804665a     0x34  LCDPM565_Index2Color.o [5]
  .text               ro code  0x08046690    0x61a  LCDDummy.o [5]
  .text               ro code  0x08046cac     0x3c  LCDColor.o [5]
  .text               ro code  0x08046ce8      0x4  string_deal.o [1]
  .text               ro code  0x08046cec      0xc  memmove.o [6]
  .text               ro code  0x08046cf8    0x15c  GUICharLine.o [5]
  .text               ro code  0x08046e54     0x4c  GUI_UC.o [5]
  .text               ro code  0x08046ea0     0x18  GUI__HandleEOLine.o [5]
  .text               ro code  0x08046eb8     0x8c  GUIChar.o [5]
  .text               ro code  0x08046f44     0x54  GUI__memset.o [5]
  .text               ro code  0x08046f98     0xa2  WM_Move.o [5]
  .text               ro code  0x0804703a     0xd8  WM_ResizeWindow.o [5]
  .text               ro code  0x08047112     0x12  WM_GetParent.o [5]
  .text               ro code  0x08047124      0x4  WM_ForEachDesc.o [5]
  .text               ro code  0x08047128     0x34  WM_OnKey.o [5]
  .text               ro code  0x0804715c     0x56  GUI__strcmp.o [5]
  .text               ro code  0x080471b2     0x16  GUI__strlen.o [5]
  .text               ro code  0x080471c8     0xf8  GUI_DrawBitmap.o [5]
  .text               ro code  0x080472c0     0x2c  WM__GetPrevSibling.o [5]
  .text               ro code  0x080472ec     0x10  GUI_Pen.o [5]
  .text               ro code  0x080472fc     0x10  GUI_SetTextAlign.o [5]
  .text               ro code  0x0804730c      0x4  GUI_SetDrawMode.o [5]
  .text               ro code  0x08047310     0x10  GUI_SetLineStyle.o [5]
  .text               ro code  0x08047320     0xe0  GUI_AddDecShift.o [5]
  .text               ro code  0x08047400     0x14  GUI__GetFontSizeY.o [5]
  .text               ro code  0x08047414      0x2  xtls.o [3]
  .text               ro code  0x08047416     0x50  xfdint.o [4]
  .text               ro code  0x08047468    0x13c  fmodf.o [4]
  .text               ro code  0x080475a4     0x28  GUI_TOUCH.o [5]
  .text               ro code  0x080475cc     0x14  exit.o [7]
  .text               ro code  0x080475e0     0x14  tolower.o [3]
  .text               ro code  0x080475f4     0x24  setlocale.o [3]
  .text               ro code  0x08047618     0x60  xencoding_sb.o [3]
  .text               ro code  0x08047678      0x2  I64DivZer.o [6]
  .text               ro code  0x0804767c     0x20  DblCmpEq.o [4]
  .text               ro code  0x0804769c     0x56  xdunscal.o [4]
  .text               ro code  0x080476f4    0x88c  stm32f4xx_hal_hcd.o [1]
  .text               ro code  0x08047f80     0xb8  usbh_ioreq.o [1]
  .text               ro code  0x08048038     0x12  USARTClass.o [1]
  .text               ro code  0x0804804a     0x16  xlocale_c.o [3]
  .text               ro code  0x08048060     0x14  xlocale_c.o [3]
  .text               ro code  0x08048074     0x78  ABImemmove_unaligned.o [6]
  .text               ro code  0x080480ec     0x32  WM__ForEachDesc.o [5]
  .text               ro code  0x0804811e     0x22  WM__SendMessage.o [5]
  .text               ro code  0x08048140     0x18  WM__GetFirstSibling.o [5]
  .text               ro code  0x08048158     0x4c  GUI_PID.o [5]
  .text               ro code  0x080481a4      0xc  xlocale_c.o [3]
  .text               ro code  0x080481b0    0x6b8  stm32f4xx_ll_usb.o [1]
  .text               ro code  0x08048868      0x4  USARTClass.o [1]
  .text               ro code  0x0804886c      0x6  USARTClass.o [1]
  .rodata             const    0x08048874   0x24b8  multi_language.o [1]
  .rodata             const    0x0804ad2c   0x1290  mks_fontHz14.o [1]
  .text               ro code  0x0804bfbc    0xf68  stm32f4xx_hal_sd.o [1]
  .text               ro code  0x0804cf24     0xa8  stm32f4xx_ll_sdmmc.o [1]
  .rodata             const    0x0804cfcc    0x980  F13_1.o [5]
  .rodata             const    0x0804d94c    0x918  F13_ASCII.o [5]
  .rodata             const    0x0804e264    0x714  F6x8.o [5]
  .rodata             const    0x0804e978    0x62c  mks_hzk16.o [5]
  .text               ro code  0x0804efa4    0x5d8  usbh_msc.o [1]
  .text               ro code  0x0804f57c    0x320  usbh_msc_bot.o [1]
  .text               ro code  0x0804f89c    0x31a  usbh_msc_scsi.o [1]
  .text               ro code  0x0804fbb8    0x2d0  GUICurs.o [5]
  .text               ro code  0x0804fe88     0x96  GUI_GetBitmapPixelIndex.o [5]
  .text               ro code  0x0804ff20    0x242  GUICharP.o [5]
  .text               ro code  0x08050162     0x1c  GUI_GetColor.o [5]
  .text               ro code  0x08050180     0x10  LCD_GetColorIndex.o [5]
  .text               ro code  0x08050190    0x204  WMTouch.o [5]
  .text               ro code  0x08050394     0x24  WM__IsAncestor.o [5]
  .text               ro code  0x080503b8     0x1c  WM__SendMessageIfEnabled.o [5]
  .text               ro code  0x080503d4     0x98  WM_Screen2Win.o [5]
  .text               ro code  0x0805046c     0x26  WM_SetCapture.o [5]
  .text               ro code  0x08050494    0x1d4  LCD_DrawBitmap_M565.o [5]
  .text               ro code  0x08050668     0x1a  LCD_GetEx.o [5]
  .text               ro code  0x08050684     0x10  GUI_SetColorIndex.o [5]
  .text               ro code  0x08050694    0x196  GUICharM.o [5]
  .text               ro code  0x0805082c    0x168  WIDGET_Effect_3D.o [5]
  .text               ro code  0x08050994     0x4c  GUI_DrawHLine.o [5]
  .text               ro code  0x080509e0     0x4c  GUI_DrawVLine.o [5]
  .text               ro code  0x08050a2c    0x14c  stm32f4xx_it.o [1]
  .text               ro code  0x08050b78    0x11c  usbh_diskio.o [1]
  .text               ro code  0x08050c94     0xd4  sd_diskio.o [1]
  .text               ro code  0x08050d68     0xc8  bsp_driver_sd.o [1]
  .text               ro code  0x08050e30     0xd4  packbits_init.o [6]
  .rodata             const    0x08050f04     0xc8  Marlin_main.o [1]
  .text               ro code  0x08050fcc     0xb4  WIDGET_Effect_Simple.o [5]
  .text               ro code  0x08051080     0x8c  GUIEncJS.o [5]
  .rodata             const    0x0805110c     0x78  Marlin_main.o [1]
  .text               ro code  0x08051184     0x50  system_stm32f4xx.o [1]
  .rodata             const    0x080511d4     0x34  Marlin_main.o [1]
  .rodata             const    0x08051208     0x30  LCD_API.o [5]
  .rodata             const    0x08051238     0x2c  Marlin_main.o [1]
  .rodata             const    0x08051264     0x28  Marlin_main.o [1]
  .text               ro code  0x0805128c     0x28  data_init.o [6]
  .rodata             const    0x080512b4     0x24  Marlin_main.o [1]
  .rodata             const    0x080512d8     0x24  Marlin_main.o [1]
  .rodata             const    0x080512fc     0x24  USARTClass.o [1]
  .text               ro code  0x08051320     0x24  WIDGET_Effect_None.o [5]
  .iar.init_table     const    0x08051344     0x30  - Linker created -
  .rodata             const    0x08051374     0x20  Marlin_main.o [1]
  .rodata             const    0x08051394     0x20  Marlin_main.o [1]
  .rodata             const    0x080513b4     0x20  Marlin_main.o [1]
  .rodata             const    0x080513d4     0x20  Marlin_main.o [1]
  .rodata             const    0x080513f4     0x20  Marlin_main.o [1]
  .text               ro code  0x08051414     0x20  cmain_call_ctors.o [6]
  .text               ro code  0x08051434     0x18  cppinit.o [3]
  .text               ro code  0x0805144c     0x1a  fpinit_M.o [4]
  .text               ro code  0x08051468     0x1a  cmain.o [6]
  .text               ro code  0x08051482      0x4  low_level_init.o [3]
  .text               ro code  0x08051486      0x4  exit.o [3]
  .text               ro code  0x0805148c      0xa  cexit.o [6]
  .rodata             const    0x08051498     0x18  Marlin_main.o [1]
  .rodata             const    0x080514b0     0x18  Marlin_main.o [1]
  .rodata             const    0x080514c8     0x18  mks_cfg.o [1]
  .rodata             const    0x080514e0     0x14  Marlin_main.o [1]
  .rodata             const    0x080514f4     0x14  Marlin_main.o [1]
  .rodata             const    0x08051508     0x14  Marlin_main.o [1]
  .rodata             const    0x0805151c     0x14  Marlin_main.o [1]
  .rodata             const    0x08051530     0x14  Marlin_main.o [1]
  .rodata             const    0x08051544     0x14  Marlin_main.o [1]
  .rodata             const    0x08051558     0x14  Marlin_main.o [1]
  .rodata             const    0x0805156c     0x14  printcounter.o [1]
  .rodata             const    0x08051580     0x14  sd_diskio.o [1]
  .rodata             const    0x08051594     0x14  usbh_diskio.o [1]
  .rodata             const    0x080515a8     0x10  Marlin_main.o [1]
  .rodata             const    0x080515b8     0x10  Marlin_main.o [1]
  .rodata             const    0x080515c8     0x10  Marlin_main.o [1]
  .rodata             const    0x080515d8     0x10  Marlin_main.o [1]
  .rodata             const    0x080515e8     0x10  Marlin_main.o [1]
  .rodata             const    0x080515f8     0x10  Marlin_main.o [1]
  .rodata             const    0x08051608     0x10  Marlin_main.o [1]
  .rodata             const    0x08051618     0x10  Marlin_main.o [1]
  .rodata             const    0x08051628     0x10  Marlin_main.o [1]
  .rodata             const    0x08051638     0x10  Marlin_main.o [1]
  .rodata             const    0x08051648     0x10  Marlin_main.o [1]
  .rodata             const    0x08051658     0x10  Marlin_main.o [1]
  .rodata             const    0x08051668     0x10  Marlin_main.o [1]
  .rodata             const    0x08051678     0x10  Marlin_main.o [1]
  .rodata             const    0x08051688     0x10  Marlin_main.o [1]
  .rodata             const    0x08051698     0x10  Marlin_main.o [1]
  .rodata             const    0x080516a8     0x10  Marlin_main.o [1]
  .rodata             const    0x080516b8     0x10  Marlin_main.o [1]
  .rodata             const    0x080516c8     0x10  Marlin_main.o [1]
  .rodata             const    0x080516d8     0x10  Marlin_main.o [1]
  .rodata             const    0x080516e8     0x10  Marlin_main.o [1]
  .rodata             const    0x080516f8     0x10  Marlin_main.o [1]
  .rodata             const    0x08051708     0x10  Marlin_main.o [1]
  .rodata             const    0x08051718     0x10  Marlin_main.o [1]
  .rodata             const    0x08051728     0x10  Marlin_main.o [1]
  .rodata             const    0x08051738     0x10  printcounter.o [1]
  .rodata             const    0x08051748     0x10  serial.o [1]
  .text               ro code  0x08051758     0x10  startup_stm32f407xx.o [1]
  SHT$$PREINIT_ARRAY           0x08051768      0x0  <Block>
  SHT$$INIT_ARRAY              0x08051768     0x10  <Block>
    .init_array       const    0x08051768      0x4  endstops.o [1]
    .init_array       const    0x0805176c      0x4  Marlin_main.o [1]
    .init_array       const    0x08051770      0x4  planner.o [1]
    .init_array       const    0x08051774      0x4  serial.o [1]
  .rodata             const    0x08051778      0xc  Marlin_main.o [1]
  .rodata             const    0x08051784      0xc  Marlin_main.o [1]
  .rodata             const    0x08051790      0xc  Marlin_main.o [1]
  .rodata             const    0x0805179c      0xc  Marlin_main.o [1]
  .rodata             const    0x080517a8      0xc  Marlin_main.o [1]
  .rodata             const    0x080517b4      0xc  Marlin_main.o [1]
  .rodata             const    0x080517c0      0xc  Marlin_main.o [1]
  .rodata             const    0x080517cc      0xc  Marlin_main.o [1]
  .rodata             const    0x080517d8      0xc  Marlin_main.o [1]
  .rodata             const    0x080517e4      0xc  printcounter.o [1]
  .rodata             const    0x080517f0      0xc  GUIEncJS.o [5]
  .text               ro code  0x080517fc      0xc  cstartup_M.o [6]
  .rodata             const    0x08051808      0x8  Marlin_main.o [1]
  .rodata             const    0x08051810      0x8  Marlin_main.o [1]
  .rodata             const    0x08051818      0x8  Marlin_main.o [1]
  .rodata             const    0x08051820      0x8  Marlin_main.o [1]
  .rodata             const    0x08051828      0x8  Marlin_main.o [1]
  .rodata             const    0x08051830      0x8  Marlin_main.o [1]
  .rodata             const    0x08051838      0x8  Marlin_main.o [1]
  .rodata             const    0x08051840      0x8  Marlin_main.o [1]
  .rodata             const    0x08051848      0x8  Marlin_main.o [1]
  .rodata             const    0x08051850      0x8  Marlin_main.o [1]
  .rodata             const    0x08051858      0x8  Marlin_main.o [1]
  .rodata             const    0x08051860      0x8  Marlin_main.o [1]
  .rodata             const    0x08051868      0x8  Marlin_main.o [1]
  .rodata             const    0x08051870      0x8  printcounter.o [1]
  .rodata             const    0x08051878      0x8  LCD_DrawBitmap_M565.o [5]
  .rodata             const    0x08051880      0x4  Marlin_main.o [1]
  .rodata             const    0x08051884      0x4  Marlin_main.o [1]
  .rodata             const    0x08051888      0x4  Marlin_main.o [1]
  .rodata             const    0x0805188c      0x4  Marlin_main.o [1]
  .rodata             const    0x08051890      0x4  Marlin_main.o [1]
  .rodata             const    0x08051894      0x4  Marlin_main.o [1]
  .rodata             const    0x08051898      0x4  Marlin_main.o [1]
  .rodata             const    0x0805189c      0x4  Marlin_main.o [1]
  .rodata             const    0x080518a0      0x4  Marlin_main.o [1]
  .rodata             const    0x080518a4      0x4  Marlin_main.o [1]
  .rodata             const    0x080518a8      0x4  printcounter.o [1]
  .rodata             const    0x080518ac      0x4  usbh_msc.o [1]
  .text               ro code  0x080518b0      0x4  startup_stm32f407xx.o [1]
  .text               ro code  0x080518b4      0x4  startup_stm32f407xx.o [1]
  .text               ro code  0x080518b8      0x4  startup_stm32f407xx.o [1]
  .text               ro code  0x080518bc      0x4  startup_stm32f407xx.o [1]
  .text               ro code  0x080518c0      0x4  startup_stm32f407xx.o [1]
  .text               ro code  0x080518c4      0x4  startup_stm32f407xx.o [1]
  .text               ro code  0x080518c8      0x4  startup_stm32f407xx.o [1]
  .text               ro code  0x080518cc      0x4  startup_stm32f407xx.o [1]
  .text               ro code  0x080518d0      0x4  startup_stm32f407xx.o [1]
  .text               ro code  0x080518d4      0x4  startup_stm32f407xx.o [1]
  .text               ro code  0x080518d8      0x4  startup_stm32f407xx.o [1]
  .text               ro code  0x080518dc      0x4  startup_stm32f407xx.o [1]
  .text               ro code  0x080518e0      0x4  startup_stm32f407xx.o [1]
  .text               ro code  0x080518e4      0x4  startup_stm32f407xx.o [1]
  .text               ro code  0x080518e8      0x4  startup_stm32f407xx.o [1]
  .text               ro code  0x080518ec      0x4  startup_stm32f407xx.o [1]
  .text               ro code  0x080518f0      0x4  startup_stm32f407xx.o [1]
  .text               ro code  0x080518f4      0x4  startup_stm32f407xx.o [1]
  .text               ro code  0x080518f8      0x4  startup_stm32f407xx.o [1]
  .text               ro code  0x080518fc      0x4  startup_stm32f407xx.o [1]
  .text               ro code  0x08051900      0x4  startup_stm32f407xx.o [1]
  .text               ro code  0x08051904      0x4  startup_stm32f407xx.o [1]
  .text               ro code  0x08051908      0x4  startup_stm32f407xx.o [1]
  .text               ro code  0x0805190c      0x4  startup_stm32f407xx.o [1]
  .text               ro code  0x08051910      0x4  startup_stm32f407xx.o [1]
  .text               ro code  0x08051914      0x4  startup_stm32f407xx.o [1]
  .text               ro code  0x08051918      0x4  startup_stm32f407xx.o [1]
  .text               ro code  0x0805191c      0x4  startup_stm32f407xx.o [1]
  .text               ro code  0x08051920      0x4  startup_stm32f407xx.o [1]
  .text               ro code  0x08051924      0x4  startup_stm32f407xx.o [1]
  .text               ro code  0x08051928      0x4  startup_stm32f407xx.o [1]
  .text               ro code  0x0805192c      0x4  startup_stm32f407xx.o [1]
  .text               ro code  0x08051930      0x4  startup_stm32f407xx.o [1]
  .text               ro code  0x08051934      0x4  startup_stm32f407xx.o [1]
  .text               ro code  0x08051938      0x4  startup_stm32f407xx.o [1]
  .text               ro code  0x0805193c      0x4  startup_stm32f407xx.o [1]
  .text               ro code  0x08051940      0x4  startup_stm32f407xx.o [1]
  .text               ro code  0x08051944      0x4  startup_stm32f407xx.o [1]
  .text               ro code  0x08051948      0x4  startup_stm32f407xx.o [1]
  .text               ro code  0x0805194c      0x4  startup_stm32f407xx.o [1]
  .text               ro code  0x08051950      0x4  startup_stm32f407xx.o [1]
  .text               ro code  0x08051954      0x4  startup_stm32f407xx.o [1]
  .text               ro code  0x08051958      0x4  startup_stm32f407xx.o [1]
  .text               ro code  0x0805195c      0x4  startup_stm32f407xx.o [1]
  .text               ro code  0x08051960      0x4  startup_stm32f407xx.o [1]
  .text               ro code  0x08051964      0x4  startup_stm32f407xx.o [1]
  .text               ro code  0x08051968      0x4  startup_stm32f407xx.o [1]
  .text               ro code  0x0805196c      0x4  startup_stm32f407xx.o [1]
  .text               ro code  0x08051970      0x4  startup_stm32f407xx.o [1]
  .text               ro code  0x08051974      0x4  startup_stm32f407xx.o [1]
  .text               ro code  0x08051978      0x4  startup_stm32f407xx.o [1]
  .text               ro code  0x0805197c      0x4  startup_stm32f407xx.o [1]
  .text               ro code  0x08051980      0x4  startup_stm32f407xx.o [1]
  .text               ro code  0x08051984      0x4  startup_stm32f407xx.o [1]
  .text               ro code  0x08051988      0x4  startup_stm32f407xx.o [1]
  .text               ro code  0x0805198c      0x4  startup_stm32f407xx.o [1]
  .text               ro code  0x08051990      0x4  startup_stm32f407xx.o [1]
  .text               ro code  0x08051994      0x4  startup_stm32f407xx.o [1]
  .text               ro code  0x08051998      0x4  startup_stm32f407xx.o [1]
  .text               ro code  0x0805199c      0x4  startup_stm32f407xx.o [1]
  .rodata             const    0x080519a0      0x0  zero_init3.o [6]
  .rodata             const    0x080519a0      0x0  packbits_init.o [6]
  Initializer bytes   ro data  0x080519a0    0x1f2  <for P2 s0>
                             - 0x08051b92  0x41a0a

"P2", part 1 of 3:                          0x113c
  P2 s0                        0x20000000   0x113a  <Init block>
    .data             inited   0x20000000    0x4f0  mks_cfg.o [1]
    .data             inited   0x200004f0    0x390  draw_print_file.o [1]
    .data             inited   0x20000880    0x23c  draw_ui.o [1]
    .data             inited   0x20000abc    0x20c  Marlin_main.o [1]
    __DLIB_PERTHREAD  inited   0x20000cc8     0x88  localeconv.o [3]
    .data             inited   0x20000d50     0x80  planner.o [1]
    __DLIB_PERTHREAD  inited   0x20000dd0     0x74  setlocale.o [3]
    .data             inited   0x20000e44     0x5c  temperature.o [1]
    .data             inited   0x20000ea0     0x50  stepper.o [1]
    .data             inited   0x20000ef0     0x48  draw_keyboard.o [1]
    .data             inited   0x20000f38     0x34  draw_language.o [1]
    .data             inited   0x20000f6c     0x34  Marlin_main.o [1]
    .data             inited   0x20000fa0     0x28  mks_variant.o [1]
    .data             inited   0x20000fc8     0x28  GUI_TOUCH_DriverAnalog.o [5]
    .data             inited   0x20000ff0     0x20  usbh_msc.o [1]
    .data             inited   0x20001010     0x20  BUTTON.o [5]
    .data             inited   0x20001030     0x14  mks_variant.o [1]
    .data             inited   0x20001044     0x14  pic.o [1]
    .data             inited   0x20001058     0x14  pic.o [1]
    .data             inited   0x2000106c     0x14  pic.o [1]
    .data             inited   0x20001080     0x14  pic.o [1]
    .data             inited   0x20001094     0x14  pic.o [1]
    .data             inited   0x200010a8     0x14  pic.o [1]
    .data             inited   0x200010bc     0x14  pic.o [1]
    .data             inited   0x200010d0     0x10  draw_ui.o [1]
    .data             inited   0x200010e0     0x10  Marlin_main.o [1]
    .data             inited   0x200010f0     0x10  Marlin_main.o [1]
    .data             inited   0x20001100      0xc  Marlin_main.o [1]
    .data             inited   0x2000110c      0xc  planner.o [1]
    .data             inited   0x20001118      0x8  TEXT.o [5]
    .data             inited   0x20001120      0x8  GUI_TOUCH_DriverAnalog.o [5]
    .data             inited   0x20001128      0x4  system_stm32f4xx.o [1]
    .data             inited   0x2000112c      0x4  WIDGET.o [5]
    .data             inited   0x20001130      0x4  LCD_API.o [5]
    __DLIB_PERTHREAD  inited   0x20001134      0x4  errno.o [3]
    .data             inited   0x20001138      0x1  sd_diskio.o [1]
    .data             inited   0x20001139      0x1  stepper.o [1]
                             - 0x2000113a   0x113a

"P2", part 2 of 3:                         0x10594
  .bss                zero     0x2000113c   0x822c  pic.o [1]
  .bss                zero     0x20009368   0x2000  pic.o [1]
  .bss                zero     0x2000b368   0x1c8c  GUIAlloc.o [5]
  .bss                zero     0x2000cff4   0x1398  Marlin_main.o [1]
  .bss                zero     0x2000e38c    0x540  planner.o [1]
  .bss                zero     0x2000e8cc    0x490  multi_language.o [1]
  .bss                zero     0x2000ed5c    0x3c8  usb_host.o [1]
  .bss                zero     0x2000f124    0x320  id_manage.o [1]
  .bss                zero     0x2000f444    0x298  usbh_conf.o [1]
  .bss                zero     0x2000f6dc    0x240  mks_cfg.o [1]
  .bss                zero     0x2000f91c    0x200  LCDColor.o [5]
  .bss                zero     0x2000fb1c    0x1d8  dlmalloc.o [3]
  .bss                zero     0x2000fcf4    0x1b4  mks_cfg.o [1]
  .bss                zero     0x2000fea8    0x180  spi.o [1]
  .bss                zero     0x20010028    0x130  serial.o [1]
  .bss                zero     0x20010158    0x120  usart.o [1]
  .bss                zero     0x20010278    0x100  cardreader.o [1]
  .bss                zero     0x20010378    0x100  cardreader.o [1]
  .bss                zero     0x20010478     0xc0  sdio.o [1]
  .bss                zero     0x20010538     0xa8  draw_language.o [1]
  .bss                zero     0x200105e0     0xa8  draw_language.o [1]
  .bss                zero     0x20010688     0x90  draw_detection.o [1]
  .bss                zero     0x20010718     0x90  draw_print_file.o [1]
  .bss                zero     0x200107a8     0x68  draw_ui.o [1]
  .bss                zero     0x20010810     0x64  draw_printing.o [1]
  .bss                zero     0x20010874     0x60  draw_operate.o [1]
  .bss                zero     0x200108d4     0x60  Marlin_main.o [1]
  .bss                zero     0x20010934     0x60  sdio.o [1]
  .bss                zero     0x20010994     0x60  usart.o [1]
  .bss                zero     0x200109f4     0x5c  draw_operate.o [1]
  .bss                zero     0x20010a50     0x54  i2c.o [1]
  .bss                zero     0x20010aa8     0x58  sdio.o [1]
  .bss                zero     0x20010b00     0x58  spi.o [1]
  .bss                zero     0x20010b58     0x58  spi.o [1]
  .bss                zero     0x20010bb0     0x48  GUICore.o [5]
  .bss                zero     0x20010bf8     0x41  usart.o [1]
  .bss                zero     0x20010c39      0x3  endstops.o [1]
  .bss                zero     0x20010c3c     0x40  usart.o [1]
  .bss                zero     0x20010c7c     0x3c  draw_info.o [1]
  .bss                zero     0x20010cb8     0x3c  planner.o [1]
  .bss                zero     0x20010cf4     0x3c  tim.o [1]
  .bss                zero     0x20010d30     0x3c  tim.o [1]
  .bss                zero     0x20010d6c     0x3c  tim.o [1]
  .bss                zero     0x20010da8     0x3c  tim.o [1]
  .bss                zero     0x20010de4     0x3c  WM.o [5]
  .bss                zero     0x20010e20     0x38  draw_dialog.o [1]
  .bss                zero     0x20010e58     0x34  draw_detection.o [1]
  .bss                zero     0x20010e8c     0x34  draw_ExposureTest.o [1]
  .bss                zero     0x20010ec0     0x34  draw_move_motor.o [1]
  .bss                zero     0x20010ef4     0x34  draw_preview.o [1]
  .bss                zero     0x20010f28     0x34  draw_printing.o [1]
  .bss                zero     0x20010f5c     0x34  draw_printing.o [1]
  .bss                zero     0x20010f90     0x34  draw_ready_print.o [1]
  .bss                zero     0x20010fc4     0x34  draw_set.o [1]
  .bss                zero     0x20010ff8     0x34  draw_tool.o [1]
  .bss                zero     0x2001102c     0x34  mks_cfg.o [1]
  .bss                zero     0x20011060     0x30  draw_detection.o [1]
  .bss                zero     0x20011090     0x30  draw_keyboard.o [1]
  .bss                zero     0x200110c0     0x30  draw_keyboard.o [1]
  .bss                zero     0x200110f0     0x30  draw_keyboard.o [1]
  .bss                zero     0x20011120     0x30  draw_keyboard.o [1]
  .bss                zero     0x20011150     0x30  draw_keyboard.o [1]
  .bss                zero     0x20011180     0x30  draw_keyboard.o [1]
  .bss                zero     0x200111b0     0x30  draw_keyboard.o [1]
  .bss                zero     0x200111e0     0x30  draw_language.o [1]
  .bss                zero     0x20011210     0x30  draw_language.o [1]
  .bss                zero     0x20011240     0x30  draw_language.o [1]
  .bss                zero     0x20011270     0x30  draw_move_motor.o [1]
  .bss                zero     0x200112a0     0x30  draw_move_motor.o [1]
  .bss                zero     0x200112d0     0x30  draw_move_motor.o [1]
  .bss                zero     0x20011300     0x30  draw_operate.o [1]
  .bss                zero     0x20011330     0x30  draw_set.o [1]
  .bss                zero     0x20011360     0x30  draw_tool.o [1]
  .bss                zero     0x20011390     0x30  gcode.o [1]
  .bss                zero     0x200113c0     0x30  GUICurs.o [5]
  .bss                zero     0x200113f0     0x2c  draw_ui.o [1]
  .bss                zero     0x2001141c     0x24  draw_service.o [1]
  .bss                zero     0x20011440     0x20  draw_about.o [1]
  .bss                zero     0x20011460     0x20  rtc.o [1]
  .bss                zero     0x20011480     0x20  GUICharP.o [5]
  .bss                zero     0x200114a0     0x1c  mks_cfg.o [1]
  .bss                zero     0x200114bc     0x18  draw_preview.o [1]
  .bss                zero     0x200114d4     0x18  draw_ready_print.o [1]
  .bss                zero     0x200114ec     0x18  draw_tool.o [1]
  .bss                zero     0x20011504     0x18  ff.o [1]
  .bss                zero     0x2001151c     0x18  GUIAlloc.o [5]
  .bss                zero     0x20011534     0x18  dlmalloc.o [3]
  .bss                zero     0x2001154c     0x14  draw_ui.o [1]
  .bss                zero     0x20011560     0x10  ff_gen_drv.o [1]
  .bss                zero     0x20011570     0x10  Marlin_main.o [1]
  .bss                zero     0x20011580      0xc  fatfs.o [1]
  .bss                zero     0x2001158c      0xc  ff.o [1]
  .bss                zero     0x20011598      0xc  main.o [1]
  .bss                zero     0x200115a4      0xc  Marlin_main.o [1]
  .bss                zero     0x200115b0      0xc  Marlin_main.o [1]
  .bss                zero     0x200115bc      0xc  Marlin_main.o [1]
  .bss                zero     0x200115c8      0xc  WM.o [5]
  .bss                zero     0x200115d4      0xc  GUI_OnKey.o [5]
  .bss                zero     0x200115e0      0xc  GUI_X_Touch.o [5]
  .bss                zero     0x200115ec      0xc  GUI_PID.o [5]
  .bss                zero     0x200115f8      0xc  GUI_TOUCH_StoreState.o [5]
  .bss                zero     0x20011604      0xc  GUI_TOUCH.o [5]
  .bss                zero     0x20011610      0x8  mks_touch_screen.o [1]
  .bss                zero     0x20011618      0x8  planner.o [1]
  .bss                zero     0x20011620      0x8  ssd2828.o [1]
  .bss                zero     0x20011628      0x8  temperature.o [1]
  .bss                zero     0x20011630      0x8  temperature.o [1]
  .bss                zero     0x20011638      0x8  WMTouch.o [5]
  .bss                zero     0x20011640      0x8  WMTouch.o [5]
  .bss                zero     0x20011648      0x8  GUI_TOUCH_StoreUnstable.o [5]
  .bss                zero     0x20011650      0x4  cardreader.o [1]
  .bss                zero     0x20011654      0x4  draw_ui.o [1]
  .bss                zero     0x20011658      0x4  endstops.o [1]
  .bss                zero     0x2001165c      0x4  gcode.o [1]
  .bss                zero     0x20011660      0x4  gcode.o [1]
  .bss                zero     0x20011664      0x4  main.o [1]
  .bss                zero     0x20011668      0x4  main.o [1]
  .bss                zero     0x2001166c      0x4  Marlin_main.o [1]
  .bss                zero     0x20011670      0x4  Marlin_main.o [1]
  .bss                zero     0x20011674      0x4  Marlin_main.o [1]
  .bss                zero     0x20011678      0x4  mks_cfg.o [1]
  .bss                zero     0x2001167c      0x4  pic_manager.o [1]
  .bss                zero     0x20011680      0x4  planner.o [1]
  .bss                zero     0x20011684      0x4  stm32f4xx_hal.o [1]
  .bss                zero     0x20011688      0x4  temperature.o [1]
  .bss                zero     0x2001168c      0x4  tim.o [1]
  .bss                zero     0x20011690      0x4  GUICore.o [5]
  .bss                zero     0x20011694      0x4  GUICore.o [5]
  .bss                zero     0x20011698      0x4  GUICore.o [5]
  .bss                zero     0x2001169c      0x4  GUICore.o [5]
  .bss                zero     0x200116a0      0x4  GUICore.o [5]
  .bss                zero     0x200116a4      0x4  GUICore.o [5]
  .bss                zero     0x200116a8      0x4  WM.o [5]
  .bss                zero     0x200116ac      0x4  GUI_OnKey.o [5]
  .bss                zero     0x200116b0      0x4  xgetmemchunk.o [3]
  .bss                zero     0x200116b4      0x2  endstops.o [1]
  .bss                zero     0x200116b6      0x2  ili9488.o [1]
  .bss                zero     0x200116b8      0x2  Marlin_main.o [1]
  .bss                zero     0x200116ba      0x1  configuration_store.o [1]
  .bss                zero     0x200116bb      0x1  draw_dialog.o [1]
  .bss                zero     0x200116bc      0x1  draw_ui.o [1]
  .bss                zero     0x200116bd      0x1  draw_ui.o [1]
  .bss                zero     0x200116be      0x1  draw_ui.o [1]
  .bss                zero     0x200116bf      0x1  draw_ui.o [1]
  .bss                zero     0x200116c0      0x1  gcode.o [1]
  .bss                zero     0x200116c1      0x1  Marlin_main.o [1]
  .bss                zero     0x200116c2      0x1  Marlin_main.o [1]
  .bss                zero     0x200116c3      0x1  Marlin_main.o [1]
  .bss                zero     0x200116c4      0x1  spi_flash.o [1]
  .bss                zero     0x200116c5      0x1  temperature.o [1]
  .bss                zero     0x200116c6      0x1  usb_host.o [1]
  .bss                zero     0x200116c7      0x1  GUICore.o [5]
  .bss                zero     0x200116c8      0x1  WM.o [5]
                             - 0x200116c9  0x1058d

"P2", part 3 of 3:                          0x3000
  CSTACK                       0x200116d0   0x2000  <Block>
    CSTACK            uninit   0x200116d0   0x2000  <Block tail>
  HEAP                         0x200136d0   0x1000  <Block>
    HEAP              uninit   0x200136d0   0x1000  <Block tail>
                             - 0x200146d0   0x3000


*******************************************************************************
*** INIT TABLE
***

          Address     Size
          -------     ----
Zero (__iar_zero_init3)
    1 destination range, total size 0x1058d:
          0x2000113c  0x1058d

Copy/packbits (__iar_packbits_init3)
    1 source range, total size 0x1f2 (11% of destination):
          0x080519a0    0x1f2
    1 destination range, total size 0x113a:
          0x20000000   0x113a

Extra (__iar_cstart_call_ctors)



*******************************************************************************
*** MODULE SUMMARY
***

    Module                      ro code  ro data  rw data
    ------                      -------  -------  -------
E:\DLP_Proj\DLP_source\branches\DLP_opensource\EWARM\mksDLP\Obj: [1]
    Font24_MS.o                           65 300
    Marlin_main.o                28 388    1 604    5 801
    Print.o                         620
    RingBuffer.o                     56
    USARTClass.o                    384       36
    WString.o                        12
    at24cxx.o                       358
    bsp_driver_sd.o                 200
    cardreader.o                  2 184               516
    configuration_store.o         5 092                 1
    diskio.o                        124
    dma.o                           200
    draw_ExposureTest.o             596                52
    draw_about.o                    620                32
    draw_detection.o              1 388               244
    draw_dialog.o                 1 752                57
    draw_info.o                   1 068                60
    draw_keyboard.o               3 772        8      408
    draw_language.o               4 440        6      532
    draw_move_motor.o             1 948               196
    draw_operate.o                1 696               236
    draw_preview.o                  856                76
    draw_print_file.o             2 220      103    1 056
    draw_printing.o               2 756               204
    draw_ready_print.o              788                76
    draw_service.o                  692                36
    draw_set.o                      980               100
    draw_tool.o                   1 224               124
    draw_ui.o                     1 456       66      764
    endstops.o                      646        4        9
    fatfs.o                          44                12
    ff.o                          8 894                36
    ff_gen_drv.o                    132                16
    gcode.o                         604                57
    gpio.o                          704
    i2c.o                           172                84
    id_manage.o                      36               800
    ili9488.o                     2 016                 2
    main.o                        1 088                20
    misc.o                           20
    mks_cfg.o                     3 764      166    2 360
    mks_fontHz14.o                         4 752
    mks_touch_screen.o              368                 8
    mks_variant.o                              8       60
    multi_language.o             11 200    9 400    1 168
    mycc936.o                     1 132
    pic.o                           172       16   41 656
    pic_manager.o                   220                 4
    planner.o                     5 088       21    1 556
    printcounter.o                  304       60
    rtc.o                           148                32
    sd_diskio.o                     212       20        1
    sdio.o                          348               376
    serial.o                        272       20      304
    spi.o                           778               560
    spi_flash.o                     264                 1
    ssd2828.o                     1 340                 8
    startup_stm32f407xx.o           648
    stepper.o                     1 808       10       81
    stm32f4xx_fsmc.o                232
    stm32f4xx_gpio.o                 38
    stm32f4xx_hal.o                 136                 4
    stm32f4xx_hal_cortex.o          270
    stm32f4xx_hal_dma.o           1 180
    stm32f4xx_hal_gpio.o            806
    stm32f4xx_hal_hcd.o           2 188
    stm32f4xx_hal_i2c.o           2 466
    stm32f4xx_hal_msp.o              96
    stm32f4xx_hal_rcc.o           1 144
    stm32f4xx_hal_rcc_ex.o          296
    stm32f4xx_hal_rtc.o             752
    stm32f4xx_hal_sd.o            3 944
    stm32f4xx_hal_spi.o           1 618
    stm32f4xx_hal_tim.o           1 840
    stm32f4xx_hal_tim_ex.o           88
    stm32f4xx_hal_uart.o            756
    stm32f4xx_it.o                  332
    stm32f4xx_ll_sdmmc.o            168
    stm32f4xx_ll_usb.o            1 720
    stm32f4xx_spi.o                  48
    stm32f4xx_usart.o               208
    stopwatch.o                     218
    string_deal.o                   192
    system_stm32f4xx.o               80        1        4
    temperature.o                 3 046       10      113
    tim.o                           576               244
    usart.o                         480               513
    usb_host.o                      116               969
    usbh_conf.o                     464               664
    usbh_core.o                   1 282
    usbh_ctlreq.o                 1 218
    usbh_diskio.o                   284       20
    usbh_ioreq.o                    184
    usbh_msc.o                    1 496        8       32
    usbh_msc_bot.o                  800
    usbh_msc_scsi.o                 794
    usbh_pipes.o                    130
    utility.o                        94
    -----------------------------------------------------
    Total:                      140 072   81 639   62 325

command line: [2]
    -----------------------------------------------------
    Total:

dl7M_tlf.a: [3]
    abort.o                           6
    abs.o                             8
    atoi.o                            8
    cppinit.o                        24
    div.o                            14
    dlmalloc.o                    5 312               496
    errno.o                          12                 4
    exit.o                            4
    isxxx.o                          40
    labs.o                            8
    localeconv.o                    108       15      136
    low_level_init.o                  4
    memcpy.o                         12
    memset.o                         20
    setlocale.o                      36       13      116
    sprintf.o                        52
    strcat.o                         28
    strncmp.o                        42
    strrchr.o                        24
    strstr.o                         44
    strtol.o                          6
    strtoul.o                         4
    tolower.o                        20
    xencoding_sb.o                   96
    xgetmemchunk.o                   44                 4
    xlocale_c.o                      54
    xmbcurmax.o                      10
    xmbtowc.o                        32
    xprintffull.o                 4 358
    xsprout.o                        10
    xstoflt.o                       440
    xstol.o                         136
    xstopfx.o                       308
    xstoul.o                        408
    xstoxflt.o                      536
    xtls.o                            2
    xwctomb.o                        26
    -----------------------------------------------------
    Total:                       12 296       28      756

m7M_tlv.a: [4]
    DblAdd.o                        232
    DblCmpEq.o                       32
    DblCmpGe.o                       46
    DblCmpLe.o                       46
    DblDiv.o                        582
    DblMul.o                        418
    DblSub.o                        384
    DblToFlt.o                      144
    DblToI32.o                       88
    FltToDbl.o                       78
    I32ToDbl.o                       48
    atan2f.o                        110
    atof.o                           16
    ceilf.o                          70
    cosf.o                            6
    floorf.o                         74
    fmodf.o                         316
    fpinit_M.o                       26
    lroundf.o                        88
    roundf.o                         62
    sinf.o                            6
    sqrt.o                          256
    sqrtf.o                          28
    strtod.o                         14
    xatanf.o                        164
    xdnorm.o                         66
    xdscale.o                       276
    xdtento.o                       512
    xdtest.o                         72
    xdunscal.o                       86
    xfdint.o                         80
    xfquad.o                        236
    xfsin.o                         364
    xstod.o                         360
    -----------------------------------------------------
    Total:                        5 386

mksDLP.a: [5]
    BUTTON.o                        950        3       32
    BUTTON_Bitmap.o                  30
    BUTTON_Default.o                 44
    BUTTON_SetTextAlign.o            30
    BUTTON__SetBitmapObj.o           48
    F13_1.o                                2 432
    F13_ASCII.o                            2 328
    F6x8.o                                 1 812
    GUI2DLib.o                      144
    GUIAlloc.o                      634             7 332
    GUIChar.o                       140
    GUICharLine.o                   348
    GUICharM.o                      406
    GUICharP.o                      578                32
    GUICore.o                       236                97
    GUICurs.o                       720                48
    GUIEncJS.o                      140       12
    GUI_ALLOC_AllocZero.o            28
    GUI_AddDecMin.o                  30
    GUI_AddDecShift.o               224
    GUI_DRAW.o                       32
    GUI_DRAW_BITMAP.o                80
    GUI_DispString.o                256
    GUI_DispStringAt.o               16
    GUI_DispStringInRect.o          466
    GUI_DrawBitmap.o                248
    GUI_DrawHLine.o                  76
    GUI_DrawVLine.o                  76
    GUI_Exec.o                       60
    GUI_FillRect.o                   80
    GUI_GetBitmapPixelIndex.o       150
    GUI_GetClientRect.o              10
    GUI_GetColor.o                   28
    GUI_GetFontSizeY.o                4
    GUI_GetStringDistX.o             20
    GUI_Goto.o                       40
    GUI_MergeRect.o                 100
    GUI_MoveRect.o                   30
    GUI_OnKey.o                      64                16
    GUI_PID.o                        76                12
    GUI_Pen.o                        16
    GUI_RectsIntersect.o             56
    GUI_SaveContext.o                24
    GUI_SetColor.o                    8
    GUI_SetColorIndex.o              16
    GUI_SetDefault.o                 60
    GUI_SetDrawMode.o                 4
    GUI_SetFont.o                    20
    GUI_SetLineStyle.o               16
    GUI_SetTextAlign.o               16
    GUI_SetTextMode.o                16
    GUI_TOUCH.o                      40                12
    GUI_TOUCH_DriverAnalog.o        244        4       48
    GUI_TOUCH_StoreState.o           36                12
    GUI_TOUCH_StoreUnstable.o        56                 8
    GUI_UC.o                         76
    GUI_UC_EncodeNone.o              48
    GUI_UC_EncodeUTF8.o             268
    GUI_X_Touch.o                    44                12
    GUI__GetFontSizeY.o              20
    GUI__HandleEOLine.o              24
    GUI__IntersectRect.o             64
    GUI__IntersectRects.o           104
    GUI__ReduceRect.o                26
    GUI__SetText.o                   62
    GUI__memset.o                    84
    GUI__strcmp.o                    86
    GUI__strlen.o                    22
    LCD.o                           788
    LCDColor.o                       60               512
    LCDDummy.o                    1 562
    LCDPM565.o                       28
    LCDPM565_Index2Color.o           52
    LCD_API.o                                 49        4
    LCD_DrawBitmap_M565.o           468        8
    LCD_DrawVLine.o                  60
    LCD_GetColorIndex.o              16
    LCD_GetEx.o                      26
    LCD_L0_Generic.o                 32
    LCD_SetClipRectEx.o              28
    PROGBAR.o                       976
    TEXT.o                          284        1        8
    TEXT_SetBkColor.o                46
    TEXT_SetText.o                   38
    TEXT_SetTextAlign.o              28
    TEXT_SetTextColor.o              28
    WIDGET.o                        608                 4
    WIDGET_Effect_3D.o              360
    WIDGET_Effect_None.o             36
    WIDGET_Effect_Simple.o          180
    WIDGET_SetEffect.o               24
    WM.o                          3 584                77
    WMTouch.o                       516                16
    WM_BringToBottom.o               62
    WM_BringToTop.o                  98
    WM_CriticalHandle.o              68
    WM_ForEachDesc.o                  4
    WM_GetClientRect.o               60
    WM_GetDesktopWindow.o            12
    WM_GetParent.o                   18
    WM_IsWindow.o                     4
    WM_Move.o                       162
    WM_NotifyParent.o                16
    WM_OnKey.o                       52
    WM_ResizeWindow.o               216
    WM_Screen2Win.o                 152
    WM_SendToParent.o                30
    WM_SetCapture.o                  38
    WM_SetFocus.o                   160
    WM_SetTrans.o                   118
    WM_SetUserClipRect.o             20
    WM__ForEachDesc.o                50
    WM__GetFirstSibling.o            24
    WM__GetPrevSibling.o             44
    WM__IsAncestor.o                 36
    WM__IsEnabled.o                  20
    WM__SendMessage.o                34
    WM__SendMessageIfEnabled.o       28
    WM__UpdateChildPositions.o      274
    mks_hzk16.o                            1 580
    -----------------------------------------------------
    Total:                       19 826    8 229    8 282

rt7M_tl.a: [6]
    ABImemclr4.o                      6
    ABImemcpy_unaligned.o           118
    ABImemmove_unaligned.o          120
    ABImemset.o                     102
    ABImemset48.o                    50
    I64DivMod.o                     238
    I64DivZer.o                       2
    cexit.o                          10
    cmain.o                          26
    cmain_call_ctors.o               32
    cstartup_M.o                     12
    data_init.o                      40
    iarEdom.o                        12
    memchr.o                         88
    memcmp_unaligned.o               98
    memmove.o                        12
    packbits_init.o                 212
    strchr.o                         22
    strcmp_unaligned.o               66
    strcpy_unaligned.o               68
    strlen.o                         54
    strncpy_unaligned.o             108
    zero_init3.o                     34
    -----------------------------------------------------
    Total:                        1 530

shb_l.a: [7]
    exit.o                           20
    -----------------------------------------------------
    Total:                           20

    Gaps                            124        4        4
    Linker created                            48   12 288
---------------------------------------------------------
    Grand Total:                179 254   89 948   83 655


*******************************************************************************
*** ENTRY LIST
***

Entry                      Address    Size  Type      Object
-----                      -------    ----  ----      ------
?main                   0x08051469          Code  Gb  cmain.o [6]
ADS7843_Rd_Addata       0x08044b41    0xd0  Code  Lc  mks_touch_screen.o [1]
APBAHBPrescTable        0x08040768    0x10  Data  Gb  stm32f4xx_hal_rcc.o [1]
AT24CXX_PageWrite       0x0802eef1    0x26  Code  Gb  at24cxx.o [1]
AT24CXX_Read            0x0802efd9    0x1a  Code  Gb  at24cxx.o [1]
AT24CXX_Write           0x0802ef17    0xc2  Code  Gb  at24cxx.o [1]
Appli_state             0x200116c6     0x1  Data  Gb  usb_host.o [1]
BMP_PIC_X               0x200116bd     0x1  Data  Gb  draw_ui.o [1]
BMP_PIC_Y               0x200116be     0x1  Data  Gb  draw_ui.o [1]
BSP_SD_GetCardInfo      0x08050e0b     0x8  Code  Gb  bsp_driver_sd.o [1]
BSP_SD_GetStatus        0x08050e05     0x6  Code  Gb  bsp_driver_sd.o [1]
BSP_SD_Init             0x08050d69    0x34  Code  Gb  bsp_driver_sd.o [1]
BSP_SD_IsDetected       0x08050e21    0x10  Code  Gb  bsp_driver_sd.o [1]
BSP_SD_ReadBlocks_DMA   0x08050d9d    0x34  Code  Gb  bsp_driver_sd.o [1]
BSP_SD_WriteBlocks_DMA  0x08050dd1    0x34  Code  Gb  bsp_driver_sd.o [1]
BUTTON_Callback         0x08039b5f    0x54  Code  Gb  BUTTON.o [5]
BUTTON_CreateEx         0x08039bb3    0x40  Code  Gb  BUTTON.o [5]
BUTTON_SetBitmapEx      0x08039ceb    0x1e  Code  Gb  BUTTON_Bitmap.o [5]
BUTTON_SetBkColor       0x08039c57    0x26  Code  Gb  BUTTON.o [5]
BUTTON_SetBmpFileName   0x08039ca3    0x22  Code  Gb  BUTTON.o [5]
BUTTON_SetBmpFileNamePath
                        0x08039cc5    0x26  Code  Gb  BUTTON.o [5]
BUTTON_SetDefaultBkColor
                        0x08038cdd     0xc  Code  Gb  BUTTON_Default.o [5]
BUTTON_SetDefaultFont   0x08038cc9     0x6  Code  Gb  BUTTON_Default.o [5]
BUTTON_SetDefaultTextAlign
                        0x08038ce9     0x6  Code  Gb  BUTTON_Default.o [5]
BUTTON_SetDefaultTextColor
                        0x08038ccf     0xe  Code  Gb  BUTTON_Default.o [5]
BUTTON_SetFont          0x08039c3b    0x1c  Code  Gb  BUTTON.o [5]
BUTTON_SetText          0x08039c15    0x26  Code  Gb  BUTTON.o [5]
BUTTON_SetTextAlign     0x08041b09    0x1e  Code  Gb  BUTTON_SetTextAlign.o [5]
BUTTON_SetTextColor     0x08039c7d    0x26  Code  Gb  BUTTON.o [5]
BUTTON__DefaultProps    0x20001010    0x20  Data  Gb  BUTTON.o [5]
BUTTON__SetDrawObj      0x080445b5    0x30  Code  Gb  BUTTON__SetBitmapObj.o [5]
BeeperCnt               0x20011598     0x1  Data  Gb  main.o [1]
BusFault_Handler        0x08050a33     0x2  Code  Gb  stm32f4xx_it.o [1]
CRC16_XMODEM(unsigned char *, unsigned int)
                        0x0803020f    0x42  Code  Gb  Marlin_main.o [1]
CSTACK$$Base            0x200116d0           --   Gb  - Linker created -
CSTACK$$Limit           0x200136d0           --   Gb  - Linker created -
CardReader::CardReader()
                        0x0802529d    0x2a  Code  Gb  cardreader.o [1]
CardReader::Explore_Disk(char *, unsigned char)
                        0x0802566d   0x112  Code  Gb  cardreader.o [1]
CardReader::ShowSDFiles()
                        0x08025785   0x13e  Code  Gb  cardreader.o [1]
CardReader::checkFilesys(unsigned char)
                        0x0802533b    0xa8  Code  Gb  cardreader.o [1]
CardReader::closefile(bool)
                        0x0802590d    0x14  Code  Gb  cardreader.o [1]
CardReader::eof()       0x0802f319    0x12  Code  Gb  Marlin_main.o [1]
CardReader::get()       0x080409a9    0x2c  Code  Gb  mks_cfg.o [1]
CardReader::getStatus()
                        0x0802559d    0x56  Code  Gb  cardreader.o [1]
CardReader::get_file_list(char *)
                        0x08025663     0xa  Code  Gb  cardreader.o [1]
CardReader::gets(unsigned char *, unsigned int)
                        0x0802f32b    0x2c  Code  Gb  Marlin_main.o [1]
CardReader::getsdpos()  0x080258c9     0x6  Code  Gb  cardreader.o [1]
CardReader::initusb()   0x080253e3    0x46  Code  Gb  cardreader.o [1]
CardReader::isFileOpen()
                        0x0802e565    0x10  Code  Gb  Marlin_main.o [1]
CardReader::ls()        0x080254bb     0x6  Code  Gb  cardreader.o [1]
CardReader::mksConfiguration()
                        0x0802d5fd   0x186  Code  Gb  mks_cfg.o [1]
CardReader::mksEepromRefresh()
                        0x0802d967   0x2fc  Code  Gb  mks_cfg.o [1]
CardReader::mksLoad()   0x0802ddcd   0x160  Code  Gb  mks_cfg.o [1]
CardReader::mksReset()  0x0802dd19    0xb4  Code  Gb  mks_cfg.o [1]
CardReader::openFile(char *, bool, bool)
                        0x080254c1    0xdc  Code  Gb  cardreader.o [1]
CardReader::openLogFile(char *)
                        0x08025921     0xc  Code  Gb  cardreader.o [1]
CardReader::pauseSDPrint()
                        0x08025485    0x16  Code  Gb  cardreader.o [1]
CardReader::printingHasFinished()
                        0x080258cf    0x3e  Code  Gb  cardreader.o [1]
CardReader::release()   0x08025429    0x14  Code  Gb  cardreader.o [1]
CardReader::removeFile(char *)
                        0x080255f3    0x70  Code  Gb  cardreader.o [1]
CardReader::setIndex(long)
                        0x0802f8a9     0x8  Code  Gb  Marlin_main.o [1]
CardReader::startFileprint()
                        0x0802543d    0x48  Code  Gb  cardreader.o [1]
CardReader::stopSDPrint()
                        0x0802549b    0x20  Code  Gb  cardreader.o [1]
CardReader::udiskReset()
                        0x080252c9    0x56  Code  Gb  cardreader.o [1]
CardReader::udiskState_Polling()
                        0x08025321    0x1a  Code  Gb  cardreader.o [1]
CardReader::write_command(char *)
                        0x0802592d    0x76  Code  Gb  cardreader.o [1]
Chk_close_machine_flg   0x20010e20     0x1  Data  Gb  draw_dialog.o [1]
Clear_About             0x08036909    0x26  Code  Gb  draw_about.o [1]
Clear_ExposureTest      0x08030443    0x26  Code  Gb  draw_ExposureTest.o [1]
Clear_Info              0x080388c5    0x26  Code  Gb  draw_info.o [1]
Clear_Language          0x0803663b    0x26  Code  Gb  draw_language.o [1]
Clear_Preview           0x08038c09    0x26  Code  Gb  draw_preview.o [1]
Clear_Service           0x080384c7    0x26  Code  Gb  draw_service.o [1]
Clear_Set               0x0803552d    0x26  Code  Gb  draw_set.o [1]
Clear_Tool()            0x08036d9b    0x2a  Code  Gb  draw_tool.o [1]
Clear_detection         0x080381bd    0x26  Code  Gb  draw_detection.o [1]
Clear_dialog            0x0802ebbd    0x26  Code  Gb  draw_dialog.o [1]
Clear_keyboard          0x08037b81    0x26  Code  Gb  draw_keyboard.o [1]
Clear_move_motor        0x080349ed    0x26  Code  Gb  draw_move_motor.o [1]
Clear_operate           0x08035179    0x26  Code  Gb  draw_operate.o [1]
Clear_print_file        0x080342fd    0x28  Code  Gb  draw_print_file.o [1]
Clear_printing          0x080281fd    0x26  Code  Gb  draw_printing.o [1]
Clear_ready_print       0x0802f27d    0x26  Code  Gb  draw_ready_print.o [1]
DB2SJIS                 0x08051081     0x6  Code  Lc  GUIEncJS.o [5]
DMA1_Stream3_IRQHandler
                        0x08050a95     0x6  Code  Gb  stm32f4xx_it.o [1]
DMA1_Stream4_IRQHandler
                        0x08050a9b     0x6  Code  Gb  stm32f4xx_it.o [1]
DMA2_Stream0_IRQHandler
                        0x08050ae1     0x6  Code  Gb  stm32f4xx_it.o [1]
DMA2_Stream1_IRQHandler
                        0x08050ae7     0x2  Code  Gb  stm32f4xx_it.o [1]
DMA2_Stream3_IRQHandler
                        0x08050ae9     0x6  Code  Gb  stm32f4xx_it.o [1]
DMA2_Stream5_IRQHandler
                        0x08050af5     0xc  Code  Gb  stm32f4xx_it.o [1]
DMA2_Stream6_IRQHandler
                        0x08050b01     0x6  Code  Gb  stm32f4xx_it.o [1]
DMA2_Stream7_IRQHandler
                        0x08050b07     0x6  Code  Gb  stm32f4xx_it.o [1]
DMA_CalcBaseAndBitshift
                        0x08042a73    0x28  Code  Lc  stm32f4xx_hal_dma.o [1]
DMA_CheckFifoParam      0x08042a9b    0x84  Code  Lc  stm32f4xx_hal_dma.o [1]
DMA_ERRO_FLAG           0x200116c4     0x1  Data  Gb  spi_flash.o [1]
DMA_SetConfig           0x08042a49    0x2a  Code  Lc  stm32f4xx_hal_dma.o [1]
DRAW_LOGO               0x0802769d    0xa6  Code  Gb  draw_ui.o [1]
DeInitStateMachine      0x08042c0f    0x50  Code  Lc  usbh_core.o [1]
DebugMon_Handler        0x08050a39     0x2  Code  Gb  stm32f4xx_it.o [1]
DeviceCode              0x200116b6     0x2  Data  Gb  ili9488.o [1]
DialogType              0x20010e21     0x1  Data  Lc  draw_dialog.o [1]
DrawBitLine16BPP_H      0x08046a0b    0x68  Code  Lc  LCDDummy.o [5]
EXTI0_IRQHandler        0x08050a81     0xa  Code  Gb  stm32f4xx_it.o [1]
EXTI3_IRQHandler        0x08050a8d     0x8  Code  Gb  stm32f4xx_it.o [1]
EXTI4_IRQHandler        0x08050b13     0xe  Code  Gb  stm32f4xx_it.o [1]
EXTI9_5_IRQHandler      0x08022021     0x2  Code  Gb  Marlin_main.o [1]
Email                   0x20011420     0x2  Data  Lc  draw_service.o [1]
Email_val               0x20011424     0x2  Data  Lc  draw_service.o [1]
Endstops::Endstops()    0x0803ce95     0xe  Code  Gb  endstops.o [1]
Endstops::M119()        0x0802cfc1    0x76  Code  Gb  endstops.o [1]
Endstops::current_endstop_bits
                        0x20010c3a     0x1  Data  Gb  endstops.o [1]
Endstops::enable(bool)  0x080336c9     0xc  Code  Gb  stepper.o [1]
Endstops::enable_globally(bool)
                        0x0803b2b1     0xc  Code  Gb  endstops.o [1]
Endstops::enabled       0x200116b4     0x1  Data  Gb  endstops.o [1]
Endstops::enabled_globally
                        0x200116b5     0x1  Data  Gb  endstops.o [1]
Endstops::endstop_hit_bits
                        0x20010c39     0x1  Data  Gb  endstops.o [1]
Endstops::hit_on_purpose()
                        0x080269e1     0xc  Code  Gb  Marlin_main.o [1]
Endstops::init()        0x0802cf3f     0x2  Code  Gb  endstops.o [1]
Endstops::not_homing()  0x08033a01    0x14  Code  Gb  Marlin_main.o [1]
Endstops::old_endstop_bits
                        0x20010c3b     0x1  Data  Gb  endstops.o [1]
Endstops::report_state()
                        0x0802cf41    0x80  Code  Gb  endstops.o [1]
Endstops::update()      0x0802d037    0xc8  Code  Gb  endstops.o [1]
Error_Handler           0x0802d541     0x2  Code  Gb  main.o [1]
FATFS_LinkDriverEx_sd   0x08030505    0x20  Code  Gb  ff_gen_drv.o [1]
FATFS_LinkDriverEx_usb  0x08030525    0x20  Code  Gb  ff_gen_drv.o [1]
FATFS_LinkDriver_sd     0x08030545     0x4  Code  Gb  ff_gen_drv.o [1]
FATFS_LinkDriver_usb    0x08030549     0x4  Code  Gb  ff_gen_drv.o [1]
FATFS_UnLinkDriver      0x0803057f     0x4  Code  Gb  ff_gen_drv.o [1]
FATFS_UnLinkDriverEx    0x0803054d    0x32  Code  Gb  ff_gen_drv.o [1]
FSMC_NORSRAMCmd         0x08044447    0x20  Code  Gb  stm32f4xx_fsmc.o [1]
FSMC_NORSRAMInit        0x08044389    0xbe  Code  Gb  stm32f4xx_fsmc.o [1]
FatFs                   0x20011590     0x8  Data  Lc  ff.o [1]
Files                   0x20011504    0x18  Data  Lc  ff.o [1]
Firmware_ver            0x20010c80     0x2  Data  Lc  draw_info.o [1]
Firmware_ver_val        0x20010c84     0x2  Data  Lc  draw_info.o [1]
FlushSerialRequestResend()
                        0x08020ddf    0x2c  Code  Gb  Marlin_main.o [1]
Fsid                    0x2001158c     0x2  Data  Lc  ff.o [1]
GCodeParser::boolval(char)
                        0x0803b09b    0x1e  Code  Gb  Marlin_main.o [1]
GCodeParser::byteval(char, unsigned char)
                        0x0803b1e5    0x16  Code  Gb  Marlin_main.o [1]
GCodeParser::celsiusval(char, float)
                        0x0803b37b    0x24  Code  Gb  Marlin_main.o [1]
GCodeParser::codebits   0x20011394     0x4  Data  Gb  gcode.o [1]
GCodeParser::codenum    0x200113bc     0x4  Data  Gb  gcode.o [1]
GCodeParser::command_letter
                        0x20011390     0x1  Data  Gb  gcode.o [1]
GCodeParser::command_ptr
                        0x200113b4     0x4  Data  Gb  gcode.o [1]
GCodeParser::has_value()
                        0x08032e11    0x14  Code  Gb  Marlin_main.o [1]
GCodeParser::intval(char, short)
                        0x0803b1a9    0x16  Code  Gb  Marlin_main.o [1]
GCodeParser::linearval(char, float)
                        0x08026d41    0x24  Code  Gb  Marlin_main.o [1]
GCodeParser::param      0x20011398    0x1c  Data  Gb  gcode.o [1]
GCodeParser::parse(char *)
                        0x080294a3   0x1c2  Code  Gb  gcode.o [1]
GCodeParser::reset()    0x0802948d    0x16  Code  Gb  gcode.o [1]
GCodeParser::seen(char)
                        0x08026cf1    0x4c  Code  Gb  planner.o [1]
GCodeParser::seenval(char)
                        0x080263b9    0x16  Code  Gb  Marlin_main.o [1]
GCodeParser::set(char, char *)
                        0x0803b3a5    0x38  Code  Gb  gcode.o [1]
GCodeParser::string_arg
                        0x200113b8     0x4  Data  Gb  gcode.o [1]
GCodeParser::unknown_command_error()
                        0x08029665    0x2a  Code  Gb  gcode.o [1]
GCodeParser::ushortval(char, unsigned short)
                        0x0803b239    0x16  Code  Gb  Marlin_main.o [1]
GCodeParser::value_axis_units(AxisEnum)
                        0x08026d3d     0x4  Code  Gb  Marlin_main.o [1]
GCodeParser::value_bool()
                        0x0803b305    0x1c  Code  Gb  Marlin_main.o [1]
GCodeParser::value_byte()
                        0x080263cf    0x22  Code  Gb  Marlin_main.o [1]
GCodeParser::value_celsius()
                        0x0803b1bf     0x4  Code  Gb  planner.o [1]
GCodeParser::value_celsius_diff()
                        0x0803b8b5     0x4  Code  Gb  planner.o [1]
GCodeParser::value_feedrate()
                        0x08026d65     0x4  Code  Gb  Marlin_main.o [1]
GCodeParser::value_float()
                        0x080336e5    0x64  Code  Gb  planner.o [1]
GCodeParser::value_int()
                        0x0803b321     0xa  Code  Gb  Marlin_main.o [1]
GCodeParser::value_linear_units()
                        0x08033749     0x4  Code  Gb  Marlin_main.o [1]
GCodeParser::value_long()
                        0x08032e25    0x18  Code  Gb  Marlin_main.o [1]
GCodeParser::value_millis()
                        0x080339c9     0x4  Code  Gb  Marlin_main.o [1]
GCodeParser::value_millis_from_seconds()
                        0x080339cd    0x1c  Code  Gb  Marlin_main.o [1]
GCodeParser::value_per_axis_unit(AxisEnum)
                        0x0803b2ad     0x4  Code  Gb  Marlin_main.o [1]
GCodeParser::value_ptr  0x2001165c     0x4  Data  Gb  gcode.o [1]
GCodeParser::value_ulong()
                        0x0803b2ed    0x18  Code  Gb  Marlin_main.o [1]
GCodeParser::value_ushort()
                        0x080449cd     0xa  Code  Gb  Marlin_main.o [1]
GCodeParser::volumetric_enabled
                        0x200116c0     0x1  Data  Gb  gcode.o [1]
GL_DispChar             0x08046ecd    0x2c  Code  Gb  GUIChar.o [5]
GL_DrawBitmap           0x080471c9    0x9a  Code  Gb  GUI_DrawBitmap.o [5]
GL_SetDefault           0x08044785    0x38  Code  Gb  GUI_SetDefault.o [5]
GPIO_Init_TFT           0x080390a9    0x80  Code  Gb  ili9488.o [1]
GPIO_PinAFConfig        0x08044361    0x26  Code  Gb  stm32f4xx_gpio.o [1]
GUIMONO_DispChar        0x08050695   0x150  Code  Gb  GUICharM.o [5]
GUIMONO_GetCharDistX    0x080507e5    0x12  Code  Gb  GUICharM.o [5]
GUIMONO_GetFontInfo     0x080507fd     0x6  Code  Gb  GUICharM.o [5]
GUIMONO_IsInFont        0x08050803    0x28  Code  Gb  GUICharM.o [5]
GUIPROP_DispChar        0x0804ff37   0x1c0  Code  Gb  GUICharP.o [5]
GUIPROP_FindChar        0x0804ff21    0x16  Code  Lc  GUICharP.o [5]
GUIPROP_GetCharDistX    0x080500f7    0x42  Code  Gb  GUICharP.o [5]
GUIPROP_GetFontInfo     0x08050149     0x6  Code  Gb  GUICharP.o [5]
GUIPROP_IsInFont        0x0805014f    0x14  Code  Gb  GUICharP.o [5]
GUI_ALLOC               0x20011520    0x14  Data  Gb  GUIAlloc.o [5]
GUI_ALLOC_AllocNoInit   0x08043e25     0xa  Code  Gb  GUIAlloc.o [5]
GUI_ALLOC_AllocZero     0x08044103    0x1c  Code  Gb  GUI_ALLOC_AllocZero.o [5]
GUI_ALLOC_Free          0x08043e51     0x8  Code  Gb  GUIAlloc.o [5]
GUI_ALLOC_FreePtr       0x08043e59    0x12  Code  Gb  GUIAlloc.o [5]
GUI_ALLOC_Init          0x08043dfd    0x28  Code  Gb  GUIAlloc.o [5]
GUI_ALLOC_h2p           0x08043e2f    0x1a  Code  Gb  GUIAlloc.o [5]
GUI_AddDecMin           0x0804493d    0x1e  Code  Gb  GUI_AddDecMin.o [5]
GUI_AddDecShift         0x08047365    0x70  Code  Gb  GUI_AddDecShift.o [5]
GUI_BitmapMethodsM565   0x08051878     0x8  Data  Gb  LCD_DrawBitmap_M565.o [5]
GUI_CURSOR_SetPosition  0x0804fc79   0x208  Code  Gb  GUICurs.o [5]
GUI_CURSOR_pfTempHide   0x200116a0     0x4  Data  Gb  GUICore.o [5]
GUI_CURSOR_pfTempUnhide
                        0x200116a4     0x4  Data  Gb  GUICore.o [5]
GUI_Clear               0x08033ac5    0x1a  Code  Gb  GUICore.o [5]
GUI_ClearRect           0x08033a63    0x62  Code  Gb  GUICore.o [5]
GUI_Context             0x20010bb0    0x48  Data  Gb  GUICore.o [5]
GUI_DRAW_BITMAP_Create  0x08044583    0x26  Code  Gb  GUI_DRAW_BITMAP.o [5]
GUI_DRAW__Draw          0x080444a5    0x20  Code  Gb  GUI_DRAW.o [5]
GUI_DecChar             0x200116c7     0x1  Data  Gb  GUICore.o [5]
GUI_DispNextLine        0x08046eb9    0x14  Code  Gb  GUIChar.o [5]
GUI_DispString          0x0804483d   0x100  Code  Gb  GUI_DispString.o [5]
GUI_DispStringAt        0x0803ab39    0x10  Code  Gb  GUI_DispStringAt.o [5]
GUI_DispStringInRect    0x080440fd     0x6  Code  Gb  GUI_DispStringInRect.o [5]
GUI_DispStringInRectMax
                        0x080440b1    0x4c  Code  Gb  GUI_DispStringInRect.o [5]
GUI_DrawBitmap          0x08047263    0x58  Code  Gb  GUI_DrawBitmap.o [5]
GUI_DrawHLine           0x08050995    0x4c  Code  Gb  GUI_DrawHLine.o [5]
GUI_DrawRect            0x08042b5d    0x58  Code  Gb  GUI2DLib.o [5]
GUI_DrawVLine           0x080509e1    0x4c  Code  Gb  GUI_DrawVLine.o [5]
GUI_ENC_APIList_SJIS    0x080517f0     0xc  Data  Gb  GUIEncJS.o [5]
GUI_Exec                0x0802bb39    0x14  Code  Gb  GUI_Exec.o [5]
GUI_Exec1               0x0802bb11    0x22  Code  Gb  GUI_Exec.o [5]
GUI_F6x8_Mono           0x0804e944    0x14  Data  Gb  F6x8.o [5]
GUI_F6x8_TI8859_1       0x0804e93c     0x8  Data  Gb  F6x8.o [5]
GUI_F6x8_TL8859_1       0x0804e77c   0x1c0  Data  Gb  F6x8.o [5]
GUI_FillRect            0x08043ba1    0x50  Code  Gb  GUI_FillRect.o [5]
GUI_Font13ASCII_CharInfo
                        0x0804df60   0x2f8  Data  Gb  F13_ASCII.o [5]
GUI_Font13ASCII_Prop1   0x0804e258     0xc  Data  Gb  F13_ASCII.o [5]
GUI_Font13_1            0x0804d92c    0x20  Data  Gb  F13_1.o [5]
GUI_Font13_1_CharInfo   0x0804d620   0x300  Data  Gb  F13_1.o [5]
GUI_Font13_1_Prop1      0x0804d920     0xc  Data  Gb  F13_1.o [5]
GUI_Font6x8             0x0804e958    0x20  Data  Gb  F6x8.o [5]
GUI_FontDataBuf         0x20011480    0x20  Data  Lc  GUICharP.o [5]
GUI_FontHZ16            0x0804ef84    0x20  Data  Gb  mks_hzk16.o [5]
GUI_FontHZ16_CharInfo   0x0804e978    0x18  Data  Gb  mks_hzk16.o [5]
GUI_FontHZ16_Prop0020   0x0804ef78     0xc  Data  Gb  mks_hzk16.o [5]
GUI_FontHZ16_Prop8140   0x0804e990     0xc  Data  Gb  mks_hzk16.o [5]
GUI_FontHZ16_Prop8240   0x0804e99c     0xc  Data  Gb  mks_hzk16.o [5]
GUI_FontHZ16_Prop8340   0x0804e9a8     0xc  Data  Gb  mks_hzk16.o [5]
GUI_FontHZ16_Prop8440   0x0804e9b4     0xc  Data  Gb  mks_hzk16.o [5]
GUI_FontHZ16_Prop8540   0x0804e9c0     0xc  Data  Gb  mks_hzk16.o [5]
GUI_FontHZ16_Prop8640   0x0804e9cc     0xc  Data  Gb  mks_hzk16.o [5]
GUI_FontHZ16_Prop8740   0x0804e9d8     0xc  Data  Gb  mks_hzk16.o [5]
GUI_FontHZ16_Prop8840   0x0804e9e4     0xc  Data  Gb  mks_hzk16.o [5]
GUI_FontHZ16_Prop8940   0x0804e9f0     0xc  Data  Gb  mks_hzk16.o [5]
GUI_FontHZ16_Prop8a40   0x0804e9fc     0xc  Data  Gb  mks_hzk16.o [5]
GUI_FontHZ16_Prop8b40   0x0804ea08     0xc  Data  Gb  mks_hzk16.o [5]
GUI_FontHZ16_Prop8c40   0x0804ea14     0xc  Data  Gb  mks_hzk16.o [5]
GUI_FontHZ16_Prop8d40   0x0804ea20     0xc  Data  Gb  mks_hzk16.o [5]
GUI_FontHZ16_Prop8e40   0x0804ea2c     0xc  Data  Gb  mks_hzk16.o [5]
GUI_FontHZ16_Prop8f40   0x0804ea38     0xc  Data  Gb  mks_hzk16.o [5]
GUI_FontHZ16_Prop9040   0x0804ea44     0xc  Data  Gb  mks_hzk16.o [5]
GUI_FontHZ16_Prop9140   0x0804ea50     0xc  Data  Gb  mks_hzk16.o [5]
GUI_FontHZ16_Prop9240   0x0804ea5c     0xc  Data  Gb  mks_hzk16.o [5]
GUI_FontHZ16_Prop9340   0x0804ea68     0xc  Data  Gb  mks_hzk16.o [5]
GUI_FontHZ16_Prop9440   0x0804ea74     0xc  Data  Gb  mks_hzk16.o [5]
GUI_FontHZ16_Prop9540   0x0804ea80     0xc  Data  Gb  mks_hzk16.o [5]
GUI_FontHZ16_Prop9640   0x0804ea8c     0xc  Data  Gb  mks_hzk16.o [5]
GUI_FontHZ16_Prop9740   0x0804ea98     0xc  Data  Gb  mks_hzk16.o [5]
GUI_FontHZ16_Prop9840   0x0804eaa4     0xc  Data  Gb  mks_hzk16.o [5]
GUI_FontHZ16_Prop9940   0x0804eab0     0xc  Data  Gb  mks_hzk16.o [5]
GUI_FontHZ16_Prop9a40   0x0804eabc     0xc  Data  Gb  mks_hzk16.o [5]
GUI_FontHZ16_Prop9b40   0x0804eac8     0xc  Data  Gb  mks_hzk16.o [5]
GUI_FontHZ16_Prop9c40   0x0804ead4     0xc  Data  Gb  mks_hzk16.o [5]
GUI_FontHZ16_Prop9d40   0x0804eae0     0xc  Data  Gb  mks_hzk16.o [5]
GUI_FontHZ16_Prop9e40   0x0804eaec     0xc  Data  Gb  mks_hzk16.o [5]
GUI_FontHZ16_Prop9f40   0x0804eaf8     0xc  Data  Gb  mks_hzk16.o [5]
GUI_FontHZ16_Propa040   0x0804eb04     0xc  Data  Gb  mks_hzk16.o [5]
GUI_FontHZ16_Propa140   0x0804eb10     0xc  Data  Gb  mks_hzk16.o [5]
GUI_FontHZ16_Propa240   0x0804eb1c     0xc  Data  Gb  mks_hzk16.o [5]
GUI_FontHZ16_Propa340   0x0804eb28     0xc  Data  Gb  mks_hzk16.o [5]
GUI_FontHZ16_Propa440   0x0804eb34     0xc  Data  Gb  mks_hzk16.o [5]
GUI_FontHZ16_Propa540   0x0804eb40     0xc  Data  Gb  mks_hzk16.o [5]
GUI_FontHZ16_Propa640   0x0804eb4c     0xc  Data  Gb  mks_hzk16.o [5]
GUI_FontHZ16_Propa740   0x0804eb58     0xc  Data  Gb  mks_hzk16.o [5]
GUI_FontHZ16_Propa840   0x0804eb64     0xc  Data  Gb  mks_hzk16.o [5]
GUI_FontHZ16_Propa940   0x0804eb70     0xc  Data  Gb  mks_hzk16.o [5]
GUI_FontHZ16_Propaa40   0x0804eb7c     0xc  Data  Gb  mks_hzk16.o [5]
GUI_FontHZ16_Propab40   0x0804eb88     0xc  Data  Gb  mks_hzk16.o [5]
GUI_FontHZ16_Propac40   0x0804eb94     0xc  Data  Gb  mks_hzk16.o [5]
GUI_FontHZ16_Propad40   0x0804eba0     0xc  Data  Gb  mks_hzk16.o [5]
GUI_FontHZ16_Propae40   0x0804ebac     0xc  Data  Gb  mks_hzk16.o [5]
GUI_FontHZ16_Propaf40   0x0804ebb8     0xc  Data  Gb  mks_hzk16.o [5]
GUI_FontHZ16_Propb040   0x0804ebc4     0xc  Data  Gb  mks_hzk16.o [5]
GUI_FontHZ16_Propb140   0x0804ebd0     0xc  Data  Gb  mks_hzk16.o [5]
GUI_FontHZ16_Propb240   0x0804ebdc     0xc  Data  Gb  mks_hzk16.o [5]
GUI_FontHZ16_Propb340   0x0804ebe8     0xc  Data  Gb  mks_hzk16.o [5]
GUI_FontHZ16_Propb440   0x0804ebf4     0xc  Data  Gb  mks_hzk16.o [5]
GUI_FontHZ16_Propb540   0x0804ec00     0xc  Data  Gb  mks_hzk16.o [5]
GUI_FontHZ16_Propb640   0x0804ec0c     0xc  Data  Gb  mks_hzk16.o [5]
GUI_FontHZ16_Propb740   0x0804ec18     0xc  Data  Gb  mks_hzk16.o [5]
GUI_FontHZ16_Propb840   0x0804ec24     0xc  Data  Gb  mks_hzk16.o [5]
GUI_FontHZ16_Propb940   0x0804ec30     0xc  Data  Gb  mks_hzk16.o [5]
GUI_FontHZ16_Propba40   0x0804ec3c     0xc  Data  Gb  mks_hzk16.o [5]
GUI_FontHZ16_Propbb40   0x0804ec48     0xc  Data  Gb  mks_hzk16.o [5]
GUI_FontHZ16_Propbc40   0x0804ec54     0xc  Data  Gb  mks_hzk16.o [5]
GUI_FontHZ16_Propbd40   0x0804ec60     0xc  Data  Gb  mks_hzk16.o [5]
GUI_FontHZ16_Propbe40   0x0804ec6c     0xc  Data  Gb  mks_hzk16.o [5]
GUI_FontHZ16_Propbf40   0x0804ec78     0xc  Data  Gb  mks_hzk16.o [5]
GUI_FontHZ16_Propc040   0x0804ec84     0xc  Data  Gb  mks_hzk16.o [5]
GUI_FontHZ16_Propc140   0x0804ec90     0xc  Data  Gb  mks_hzk16.o [5]
GUI_FontHZ16_Propc240   0x0804ec9c     0xc  Data  Gb  mks_hzk16.o [5]
GUI_FontHZ16_Propc340   0x0804eca8     0xc  Data  Gb  mks_hzk16.o [5]
GUI_FontHZ16_Propc440   0x0804ecb4     0xc  Data  Gb  mks_hzk16.o [5]
GUI_FontHZ16_Propc540   0x0804ecc0     0xc  Data  Gb  mks_hzk16.o [5]
GUI_FontHZ16_Propc640   0x0804eccc     0xc  Data  Gb  mks_hzk16.o [5]
GUI_FontHZ16_Propc740   0x0804ecd8     0xc  Data  Gb  mks_hzk16.o [5]
GUI_FontHZ16_Propc840   0x0804ece4     0xc  Data  Gb  mks_hzk16.o [5]
GUI_FontHZ16_Propc940   0x0804ecf0     0xc  Data  Gb  mks_hzk16.o [5]
GUI_FontHZ16_Propca40   0x0804ecfc     0xc  Data  Gb  mks_hzk16.o [5]
GUI_FontHZ16_Propcb40   0x0804ed08     0xc  Data  Gb  mks_hzk16.o [5]
GUI_FontHZ16_Propcc40   0x0804ed14     0xc  Data  Gb  mks_hzk16.o [5]
GUI_FontHZ16_Propcd40   0x0804ed20     0xc  Data  Gb  mks_hzk16.o [5]
GUI_FontHZ16_Propce40   0x0804ed2c     0xc  Data  Gb  mks_hzk16.o [5]
GUI_FontHZ16_Propcf40   0x0804ed38     0xc  Data  Gb  mks_hzk16.o [5]
GUI_FontHZ16_Propd040   0x0804ed44     0xc  Data  Gb  mks_hzk16.o [5]
GUI_FontHZ16_Propd140   0x0804ed50     0xc  Data  Gb  mks_hzk16.o [5]
GUI_FontHZ16_Propd240   0x0804ed5c     0xc  Data  Gb  mks_hzk16.o [5]
GUI_FontHZ16_Propd340   0x0804ed68     0xc  Data  Gb  mks_hzk16.o [5]
GUI_FontHZ16_Propd440   0x0804ed74     0xc  Data  Gb  mks_hzk16.o [5]
GUI_FontHZ16_Propd540   0x0804ed80     0xc  Data  Gb  mks_hzk16.o [5]
GUI_FontHZ16_Propd640   0x0804ed8c     0xc  Data  Gb  mks_hzk16.o [5]
GUI_FontHZ16_Propd740   0x0804ed98     0xc  Data  Gb  mks_hzk16.o [5]
GUI_FontHZ16_Propd840   0x0804eda4     0xc  Data  Gb  mks_hzk16.o [5]
GUI_FontHZ16_Propd940   0x0804edb0     0xc  Data  Gb  mks_hzk16.o [5]
GUI_FontHZ16_Propda40   0x0804edbc     0xc  Data  Gb  mks_hzk16.o [5]
GUI_FontHZ16_Propdb40   0x0804edc8     0xc  Data  Gb  mks_hzk16.o [5]
GUI_FontHZ16_Propdc40   0x0804edd4     0xc  Data  Gb  mks_hzk16.o [5]
GUI_FontHZ16_Propdd40   0x0804ede0     0xc  Data  Gb  mks_hzk16.o [5]
GUI_FontHZ16_Propde40   0x0804edec     0xc  Data  Gb  mks_hzk16.o [5]
GUI_FontHZ16_Propdf40   0x0804edf8     0xc  Data  Gb  mks_hzk16.o [5]
GUI_FontHZ16_Prope040   0x0804ee04     0xc  Data  Gb  mks_hzk16.o [5]
GUI_FontHZ16_Prope140   0x0804ee10     0xc  Data  Gb  mks_hzk16.o [5]
GUI_FontHZ16_Prope240   0x0804ee1c     0xc  Data  Gb  mks_hzk16.o [5]
GUI_FontHZ16_Prope340   0x0804ee28     0xc  Data  Gb  mks_hzk16.o [5]
GUI_FontHZ16_Prope440   0x0804ee34     0xc  Data  Gb  mks_hzk16.o [5]
GUI_FontHZ16_Prope540   0x0804ee40     0xc  Data  Gb  mks_hzk16.o [5]
GUI_FontHZ16_Prope640   0x0804ee4c     0xc  Data  Gb  mks_hzk16.o [5]
GUI_FontHZ16_Prope740   0x0804ee58     0xc  Data  Gb  mks_hzk16.o [5]
GUI_FontHZ16_Prope840   0x0804ee64     0xc  Data  Gb  mks_hzk16.o [5]
GUI_FontHZ16_Prope940   0x0804ee70     0xc  Data  Gb  mks_hzk16.o [5]
GUI_FontHZ16_Propea40   0x0804ee7c     0xc  Data  Gb  mks_hzk16.o [5]
GUI_FontHZ16_Propeb40   0x0804ee88     0xc  Data  Gb  mks_hzk16.o [5]
GUI_FontHZ16_Propec40   0x0804ee94     0xc  Data  Gb  mks_hzk16.o [5]
GUI_FontHZ16_Proped40   0x0804eea0     0xc  Data  Gb  mks_hzk16.o [5]
GUI_FontHZ16_Propee40   0x0804eeac     0xc  Data  Gb  mks_hzk16.o [5]
GUI_FontHZ16_Propef40   0x0804eeb8     0xc  Data  Gb  mks_hzk16.o [5]
GUI_FontHZ16_Propf040   0x0804eec4     0xc  Data  Gb  mks_hzk16.o [5]
GUI_FontHZ16_Propf140   0x0804eed0     0xc  Data  Gb  mks_hzk16.o [5]
GUI_FontHZ16_Propf240   0x0804eedc     0xc  Data  Gb  mks_hzk16.o [5]
GUI_FontHZ16_Propf340   0x0804eee8     0xc  Data  Gb  mks_hzk16.o [5]
GUI_FontHZ16_Propf440   0x0804eef4     0xc  Data  Gb  mks_hzk16.o [5]
GUI_FontHZ16_Propf540   0x0804ef00     0xc  Data  Gb  mks_hzk16.o [5]
GUI_FontHZ16_Propf640   0x0804ef0c     0xc  Data  Gb  mks_hzk16.o [5]
GUI_FontHZ16_Propf740   0x0804ef18     0xc  Data  Gb  mks_hzk16.o [5]
GUI_FontHZ16_Propf840   0x0804ef24     0xc  Data  Gb  mks_hzk16.o [5]
GUI_FontHZ16_Propf940   0x0804ef30     0xc  Data  Gb  mks_hzk16.o [5]
GUI_FontHZ16_Propfa40   0x0804ef3c     0xc  Data  Gb  mks_hzk16.o [5]
GUI_FontHZ16_Propfb40   0x0804ef48     0xc  Data  Gb  mks_hzk16.o [5]
GUI_FontHZ16_Propfc40   0x0804ef54     0xc  Data  Gb  mks_hzk16.o [5]
GUI_FontHZ16_Propfd40   0x0804ef60     0xc  Data  Gb  mks_hzk16.o [5]
GUI_FontHZ16_Propfe40   0x0804ef6c     0xc  Data  Gb  mks_hzk16.o [5]
GUI_FontHZ_fontHz14     0x0802007c    0x20  Data  Gb  Font24_MS.o [1]
GUI_FontHZ_fontHz14_CharInfo
                        0x0801d658  0x1cc8  Data  Gb  Font24_MS.o [1]
GUI_FontHZ_fontHz14_Prop1
                        0x08020070     0xc  Data  Gb  Font24_MS.o [1]
GUI_FontHZ_fontHz14_Prop10
                        0x08020004     0xc  Data  Gb  Font24_MS.o [1]
GUI_FontHZ_fontHz14_Prop100
                        0x0801fbcc     0xc  Data  Gb  Font24_MS.o [1]
GUI_FontHZ_fontHz14_Prop101
                        0x0801fbc0     0xc  Data  Gb  Font24_MS.o [1]
GUI_FontHZ_fontHz14_Prop102
                        0x0801fbb4     0xc  Data  Gb  Font24_MS.o [1]
GUI_FontHZ_fontHz14_Prop103
                        0x0801fba8     0xc  Data  Gb  Font24_MS.o [1]
GUI_FontHZ_fontHz14_Prop104
                        0x0801fb9c     0xc  Data  Gb  Font24_MS.o [1]
GUI_FontHZ_fontHz14_Prop105
                        0x0801fb90     0xc  Data  Gb  Font24_MS.o [1]
GUI_FontHZ_fontHz14_Prop106
                        0x0801fb84     0xc  Data  Gb  Font24_MS.o [1]
GUI_FontHZ_fontHz14_Prop107
                        0x0801fb78     0xc  Data  Gb  Font24_MS.o [1]
GUI_FontHZ_fontHz14_Prop108
                        0x0801fb6c     0xc  Data  Gb  Font24_MS.o [1]
GUI_FontHZ_fontHz14_Prop109
                        0x0801fb60     0xc  Data  Gb  Font24_MS.o [1]
GUI_FontHZ_fontHz14_Prop11
                        0x0801fff8     0xc  Data  Gb  Font24_MS.o [1]
GUI_FontHZ_fontHz14_Prop110
                        0x0801fb54     0xc  Data  Gb  Font24_MS.o [1]
GUI_FontHZ_fontHz14_Prop111
                        0x0801fb48     0xc  Data  Gb  Font24_MS.o [1]
GUI_FontHZ_fontHz14_Prop112
                        0x0801fb3c     0xc  Data  Gb  Font24_MS.o [1]
GUI_FontHZ_fontHz14_Prop113
                        0x0801fb30     0xc  Data  Gb  Font24_MS.o [1]
GUI_FontHZ_fontHz14_Prop114
                        0x0801fb24     0xc  Data  Gb  Font24_MS.o [1]
GUI_FontHZ_fontHz14_Prop115
                        0x0801fb18     0xc  Data  Gb  Font24_MS.o [1]
GUI_FontHZ_fontHz14_Prop116
                        0x0801fb0c     0xc  Data  Gb  Font24_MS.o [1]
GUI_FontHZ_fontHz14_Prop117
                        0x0801fb00     0xc  Data  Gb  Font24_MS.o [1]
GUI_FontHZ_fontHz14_Prop118
                        0x0801faf4     0xc  Data  Gb  Font24_MS.o [1]
GUI_FontHZ_fontHz14_Prop119
                        0x0801fae8     0xc  Data  Gb  Font24_MS.o [1]
GUI_FontHZ_fontHz14_Prop12
                        0x0801ffec     0xc  Data  Gb  Font24_MS.o [1]
GUI_FontHZ_fontHz14_Prop120
                        0x0801fadc     0xc  Data  Gb  Font24_MS.o [1]
GUI_FontHZ_fontHz14_Prop121
                        0x0801fad0     0xc  Data  Gb  Font24_MS.o [1]
GUI_FontHZ_fontHz14_Prop122
                        0x0801fac4     0xc  Data  Gb  Font24_MS.o [1]
GUI_FontHZ_fontHz14_Prop123
                        0x0801fab8     0xc  Data  Gb  Font24_MS.o [1]
GUI_FontHZ_fontHz14_Prop124
                        0x0801faac     0xc  Data  Gb  Font24_MS.o [1]
GUI_FontHZ_fontHz14_Prop125
                        0x0801faa0     0xc  Data  Gb  Font24_MS.o [1]
GUI_FontHZ_fontHz14_Prop126
                        0x0801fa94     0xc  Data  Gb  Font24_MS.o [1]
GUI_FontHZ_fontHz14_Prop127
                        0x0801fa88     0xc  Data  Gb  Font24_MS.o [1]
GUI_FontHZ_fontHz14_Prop128
                        0x0801fa7c     0xc  Data  Gb  Font24_MS.o [1]
GUI_FontHZ_fontHz14_Prop129
                        0x0801fa70     0xc  Data  Gb  Font24_MS.o [1]
GUI_FontHZ_fontHz14_Prop13
                        0x0801ffe0     0xc  Data  Gb  Font24_MS.o [1]
GUI_FontHZ_fontHz14_Prop130
                        0x0801fa64     0xc  Data  Gb  Font24_MS.o [1]
GUI_FontHZ_fontHz14_Prop131
                        0x0801fa58     0xc  Data  Gb  Font24_MS.o [1]
GUI_FontHZ_fontHz14_Prop132
                        0x0801fa4c     0xc  Data  Gb  Font24_MS.o [1]
GUI_FontHZ_fontHz14_Prop133
                        0x0801fa40     0xc  Data  Gb  Font24_MS.o [1]
GUI_FontHZ_fontHz14_Prop134
                        0x0801fa34     0xc  Data  Gb  Font24_MS.o [1]
GUI_FontHZ_fontHz14_Prop135
                        0x0801fa28     0xc  Data  Gb  Font24_MS.o [1]
GUI_FontHZ_fontHz14_Prop136
                        0x0801fa1c     0xc  Data  Gb  Font24_MS.o [1]
GUI_FontHZ_fontHz14_Prop137
                        0x0801fa10     0xc  Data  Gb  Font24_MS.o [1]
GUI_FontHZ_fontHz14_Prop138
                        0x0801fa04     0xc  Data  Gb  Font24_MS.o [1]
GUI_FontHZ_fontHz14_Prop139
                        0x0801f9f8     0xc  Data  Gb  Font24_MS.o [1]
GUI_FontHZ_fontHz14_Prop14
                        0x0801ffd4     0xc  Data  Gb  Font24_MS.o [1]
GUI_FontHZ_fontHz14_Prop140
                        0x0801f9ec     0xc  Data  Gb  Font24_MS.o [1]
GUI_FontHZ_fontHz14_Prop141
                        0x0801f9e0     0xc  Data  Gb  Font24_MS.o [1]
GUI_FontHZ_fontHz14_Prop142
                        0x0801f9d4     0xc  Data  Gb  Font24_MS.o [1]
GUI_FontHZ_fontHz14_Prop143
                        0x0801f9c8     0xc  Data  Gb  Font24_MS.o [1]
GUI_FontHZ_fontHz14_Prop144
                        0x0801f9bc     0xc  Data  Gb  Font24_MS.o [1]
GUI_FontHZ_fontHz14_Prop145
                        0x0801f9b0     0xc  Data  Gb  Font24_MS.o [1]
GUI_FontHZ_fontHz14_Prop146
                        0x0801f9a4     0xc  Data  Gb  Font24_MS.o [1]
GUI_FontHZ_fontHz14_Prop147
                        0x0801f998     0xc  Data  Gb  Font24_MS.o [1]
GUI_FontHZ_fontHz14_Prop148
                        0x0801f98c     0xc  Data  Gb  Font24_MS.o [1]
GUI_FontHZ_fontHz14_Prop149
                        0x0801f980     0xc  Data  Gb  Font24_MS.o [1]
GUI_FontHZ_fontHz14_Prop15
                        0x0801ffc8     0xc  Data  Gb  Font24_MS.o [1]
GUI_FontHZ_fontHz14_Prop150
                        0x0801f974     0xc  Data  Gb  Font24_MS.o [1]
GUI_FontHZ_fontHz14_Prop151
                        0x0801f968     0xc  Data  Gb  Font24_MS.o [1]
GUI_FontHZ_fontHz14_Prop152
                        0x0801f95c     0xc  Data  Gb  Font24_MS.o [1]
GUI_FontHZ_fontHz14_Prop153
                        0x0801f950     0xc  Data  Gb  Font24_MS.o [1]
GUI_FontHZ_fontHz14_Prop154
                        0x0801f944     0xc  Data  Gb  Font24_MS.o [1]
GUI_FontHZ_fontHz14_Prop155
                        0x0801f938     0xc  Data  Gb  Font24_MS.o [1]
GUI_FontHZ_fontHz14_Prop156
                        0x0801f92c     0xc  Data  Gb  Font24_MS.o [1]
GUI_FontHZ_fontHz14_Prop157
                        0x0801f920     0xc  Data  Gb  Font24_MS.o [1]
GUI_FontHZ_fontHz14_Prop158
                        0x0801f914     0xc  Data  Gb  Font24_MS.o [1]
GUI_FontHZ_fontHz14_Prop159
                        0x0801f908     0xc  Data  Gb  Font24_MS.o [1]
GUI_FontHZ_fontHz14_Prop16
                        0x0801ffbc     0xc  Data  Gb  Font24_MS.o [1]
GUI_FontHZ_fontHz14_Prop160
                        0x0801f8fc     0xc  Data  Gb  Font24_MS.o [1]
GUI_FontHZ_fontHz14_Prop161
                        0x0801f8f0     0xc  Data  Gb  Font24_MS.o [1]
GUI_FontHZ_fontHz14_Prop162
                        0x0801f8e4     0xc  Data  Gb  Font24_MS.o [1]
GUI_FontHZ_fontHz14_Prop163
                        0x0801f8d8     0xc  Data  Gb  Font24_MS.o [1]
GUI_FontHZ_fontHz14_Prop164
                        0x0801f8cc     0xc  Data  Gb  Font24_MS.o [1]
GUI_FontHZ_fontHz14_Prop165
                        0x0801f8c0     0xc  Data  Gb  Font24_MS.o [1]
GUI_FontHZ_fontHz14_Prop166
                        0x0801f8b4     0xc  Data  Gb  Font24_MS.o [1]
GUI_FontHZ_fontHz14_Prop167
                        0x0801f8a8     0xc  Data  Gb  Font24_MS.o [1]
GUI_FontHZ_fontHz14_Prop168
                        0x0801f89c     0xc  Data  Gb  Font24_MS.o [1]
GUI_FontHZ_fontHz14_Prop169
                        0x0801f890     0xc  Data  Gb  Font24_MS.o [1]
GUI_FontHZ_fontHz14_Prop17
                        0x0801ffb0     0xc  Data  Gb  Font24_MS.o [1]
GUI_FontHZ_fontHz14_Prop170
                        0x0801f884     0xc  Data  Gb  Font24_MS.o [1]
GUI_FontHZ_fontHz14_Prop171
                        0x0801f878     0xc  Data  Gb  Font24_MS.o [1]
GUI_FontHZ_fontHz14_Prop172
                        0x0801f86c     0xc  Data  Gb  Font24_MS.o [1]
GUI_FontHZ_fontHz14_Prop173
                        0x0801f860     0xc  Data  Gb  Font24_MS.o [1]
GUI_FontHZ_fontHz14_Prop174
                        0x0801f854     0xc  Data  Gb  Font24_MS.o [1]
GUI_FontHZ_fontHz14_Prop175
                        0x0801f848     0xc  Data  Gb  Font24_MS.o [1]
GUI_FontHZ_fontHz14_Prop176
                        0x0801f83c     0xc  Data  Gb  Font24_MS.o [1]
GUI_FontHZ_fontHz14_Prop177
                        0x0801f830     0xc  Data  Gb  Font24_MS.o [1]
GUI_FontHZ_fontHz14_Prop178
                        0x0801f824     0xc  Data  Gb  Font24_MS.o [1]
GUI_FontHZ_fontHz14_Prop179
                        0x0801f818     0xc  Data  Gb  Font24_MS.o [1]
GUI_FontHZ_fontHz14_Prop18
                        0x0801ffa4     0xc  Data  Gb  Font24_MS.o [1]
GUI_FontHZ_fontHz14_Prop180
                        0x0801f80c     0xc  Data  Gb  Font24_MS.o [1]
GUI_FontHZ_fontHz14_Prop181
                        0x0801f800     0xc  Data  Gb  Font24_MS.o [1]
GUI_FontHZ_fontHz14_Prop182
                        0x0801f7f4     0xc  Data  Gb  Font24_MS.o [1]
GUI_FontHZ_fontHz14_Prop183
                        0x0801f7e8     0xc  Data  Gb  Font24_MS.o [1]
GUI_FontHZ_fontHz14_Prop184
                        0x0801f7dc     0xc  Data  Gb  Font24_MS.o [1]
GUI_FontHZ_fontHz14_Prop185
                        0x0801f7d0     0xc  Data  Gb  Font24_MS.o [1]
GUI_FontHZ_fontHz14_Prop186
                        0x0801f7c4     0xc  Data  Gb  Font24_MS.o [1]
GUI_FontHZ_fontHz14_Prop187
                        0x0801f7b8     0xc  Data  Gb  Font24_MS.o [1]
GUI_FontHZ_fontHz14_Prop188
                        0x0801f7ac     0xc  Data  Gb  Font24_MS.o [1]
GUI_FontHZ_fontHz14_Prop189
                        0x0801f7a0     0xc  Data  Gb  Font24_MS.o [1]
GUI_FontHZ_fontHz14_Prop19
                        0x0801ff98     0xc  Data  Gb  Font24_MS.o [1]
GUI_FontHZ_fontHz14_Prop190
                        0x0801f794     0xc  Data  Gb  Font24_MS.o [1]
GUI_FontHZ_fontHz14_Prop191
                        0x0801f788     0xc  Data  Gb  Font24_MS.o [1]
GUI_FontHZ_fontHz14_Prop192
                        0x0801f77c     0xc  Data  Gb  Font24_MS.o [1]
GUI_FontHZ_fontHz14_Prop193
                        0x0801f770     0xc  Data  Gb  Font24_MS.o [1]
GUI_FontHZ_fontHz14_Prop194
                        0x0801f764     0xc  Data  Gb  Font24_MS.o [1]
GUI_FontHZ_fontHz14_Prop195
                        0x0801f758     0xc  Data  Gb  Font24_MS.o [1]
GUI_FontHZ_fontHz14_Prop196
                        0x0801f74c     0xc  Data  Gb  Font24_MS.o [1]
GUI_FontHZ_fontHz14_Prop197
                        0x0801f740     0xc  Data  Gb  Font24_MS.o [1]
GUI_FontHZ_fontHz14_Prop198
                        0x0801f734     0xc  Data  Gb  Font24_MS.o [1]
GUI_FontHZ_fontHz14_Prop199
                        0x0801f728     0xc  Data  Gb  Font24_MS.o [1]
GUI_FontHZ_fontHz14_Prop2
                        0x08020064     0xc  Data  Gb  Font24_MS.o [1]
GUI_FontHZ_fontHz14_Prop20
                        0x0801ff8c     0xc  Data  Gb  Font24_MS.o [1]
GUI_FontHZ_fontHz14_Prop200
                        0x0801f71c     0xc  Data  Gb  Font24_MS.o [1]
GUI_FontHZ_fontHz14_Prop201
                        0x0801f710     0xc  Data  Gb  Font24_MS.o [1]
GUI_FontHZ_fontHz14_Prop202
                        0x0801f704     0xc  Data  Gb  Font24_MS.o [1]
GUI_FontHZ_fontHz14_Prop203
                        0x0801f6f8     0xc  Data  Gb  Font24_MS.o [1]
GUI_FontHZ_fontHz14_Prop204
                        0x0801f6ec     0xc  Data  Gb  Font24_MS.o [1]
GUI_FontHZ_fontHz14_Prop205
                        0x0801f6e0     0xc  Data  Gb  Font24_MS.o [1]
GUI_FontHZ_fontHz14_Prop206
                        0x0801f6d4     0xc  Data  Gb  Font24_MS.o [1]
GUI_FontHZ_fontHz14_Prop207
                        0x0801f6c8     0xc  Data  Gb  Font24_MS.o [1]
GUI_FontHZ_fontHz14_Prop208
                        0x0801f6bc     0xc  Data  Gb  Font24_MS.o [1]
GUI_FontHZ_fontHz14_Prop209
                        0x0801f6b0     0xc  Data  Gb  Font24_MS.o [1]
GUI_FontHZ_fontHz14_Prop21
                        0x0801ff80     0xc  Data  Gb  Font24_MS.o [1]
GUI_FontHZ_fontHz14_Prop210
                        0x0801f6a4     0xc  Data  Gb  Font24_MS.o [1]
GUI_FontHZ_fontHz14_Prop211
                        0x0801f698     0xc  Data  Gb  Font24_MS.o [1]
GUI_FontHZ_fontHz14_Prop212
                        0x0801f68c     0xc  Data  Gb  Font24_MS.o [1]
GUI_FontHZ_fontHz14_Prop213
                        0x0801f680     0xc  Data  Gb  Font24_MS.o [1]
GUI_FontHZ_fontHz14_Prop214
                        0x0801f674     0xc  Data  Gb  Font24_MS.o [1]
GUI_FontHZ_fontHz14_Prop215
                        0x0801f668     0xc  Data  Gb  Font24_MS.o [1]
GUI_FontHZ_fontHz14_Prop216
                        0x0801f65c     0xc  Data  Gb  Font24_MS.o [1]
GUI_FontHZ_fontHz14_Prop217
                        0x0801f650     0xc  Data  Gb  Font24_MS.o [1]
GUI_FontHZ_fontHz14_Prop218
                        0x0801f644     0xc  Data  Gb  Font24_MS.o [1]
GUI_FontHZ_fontHz14_Prop219
                        0x0801f638     0xc  Data  Gb  Font24_MS.o [1]
GUI_FontHZ_fontHz14_Prop22
                        0x0801ff74     0xc  Data  Gb  Font24_MS.o [1]
GUI_FontHZ_fontHz14_Prop220
                        0x0801f62c     0xc  Data  Gb  Font24_MS.o [1]
GUI_FontHZ_fontHz14_Prop221
                        0x0801f620     0xc  Data  Gb  Font24_MS.o [1]
GUI_FontHZ_fontHz14_Prop222
                        0x0801f614     0xc  Data  Gb  Font24_MS.o [1]
GUI_FontHZ_fontHz14_Prop223
                        0x0801f608     0xc  Data  Gb  Font24_MS.o [1]
GUI_FontHZ_fontHz14_Prop224
                        0x0801f5fc     0xc  Data  Gb  Font24_MS.o [1]
GUI_FontHZ_fontHz14_Prop225
                        0x0801f5f0     0xc  Data  Gb  Font24_MS.o [1]
GUI_FontHZ_fontHz14_Prop226
                        0x0801f5e4     0xc  Data  Gb  Font24_MS.o [1]
GUI_FontHZ_fontHz14_Prop227
                        0x0801f5d8     0xc  Data  Gb  Font24_MS.o [1]
GUI_FontHZ_fontHz14_Prop228
                        0x0801f5cc     0xc  Data  Gb  Font24_MS.o [1]
GUI_FontHZ_fontHz14_Prop229
                        0x0801f5c0     0xc  Data  Gb  Font24_MS.o [1]
GUI_FontHZ_fontHz14_Prop23
                        0x0801ff68     0xc  Data  Gb  Font24_MS.o [1]
GUI_FontHZ_fontHz14_Prop230
                        0x0801f5b4     0xc  Data  Gb  Font24_MS.o [1]
GUI_FontHZ_fontHz14_Prop231
                        0x0801f5a8     0xc  Data  Gb  Font24_MS.o [1]
GUI_FontHZ_fontHz14_Prop232
                        0x0801f59c     0xc  Data  Gb  Font24_MS.o [1]
GUI_FontHZ_fontHz14_Prop233
                        0x0801f590     0xc  Data  Gb  Font24_MS.o [1]
GUI_FontHZ_fontHz14_Prop234
                        0x0801f584     0xc  Data  Gb  Font24_MS.o [1]
GUI_FontHZ_fontHz14_Prop235
                        0x0801f578     0xc  Data  Gb  Font24_MS.o [1]
GUI_FontHZ_fontHz14_Prop236
                        0x0801f56c     0xc  Data  Gb  Font24_MS.o [1]
GUI_FontHZ_fontHz14_Prop237
                        0x0801f560     0xc  Data  Gb  Font24_MS.o [1]
GUI_FontHZ_fontHz14_Prop238
                        0x0801f554     0xc  Data  Gb  Font24_MS.o [1]
GUI_FontHZ_fontHz14_Prop239
                        0x0801f548     0xc  Data  Gb  Font24_MS.o [1]
GUI_FontHZ_fontHz14_Prop24
                        0x0801ff5c     0xc  Data  Gb  Font24_MS.o [1]
GUI_FontHZ_fontHz14_Prop240
                        0x0801f53c     0xc  Data  Gb  Font24_MS.o [1]
GUI_FontHZ_fontHz14_Prop241
                        0x0801f530     0xc  Data  Gb  Font24_MS.o [1]
GUI_FontHZ_fontHz14_Prop242
                        0x0801f524     0xc  Data  Gb  Font24_MS.o [1]
GUI_FontHZ_fontHz14_Prop243
                        0x0801f518     0xc  Data  Gb  Font24_MS.o [1]
GUI_FontHZ_fontHz14_Prop244
                        0x0801f50c     0xc  Data  Gb  Font24_MS.o [1]
GUI_FontHZ_fontHz14_Prop245
                        0x0801f500     0xc  Data  Gb  Font24_MS.o [1]
GUI_FontHZ_fontHz14_Prop246
                        0x0801f4f4     0xc  Data  Gb  Font24_MS.o [1]
GUI_FontHZ_fontHz14_Prop247
                        0x0801f4e8     0xc  Data  Gb  Font24_MS.o [1]
GUI_FontHZ_fontHz14_Prop248
                        0x0801f4dc     0xc  Data  Gb  Font24_MS.o [1]
GUI_FontHZ_fontHz14_Prop249
                        0x0801f4d0     0xc  Data  Gb  Font24_MS.o [1]
GUI_FontHZ_fontHz14_Prop25
                        0x0801ff50     0xc  Data  Gb  Font24_MS.o [1]
GUI_FontHZ_fontHz14_Prop250
                        0x0801f4c4     0xc  Data  Gb  Font24_MS.o [1]
GUI_FontHZ_fontHz14_Prop251
                        0x0801f4b8     0xc  Data  Gb  Font24_MS.o [1]
GUI_FontHZ_fontHz14_Prop252
                        0x0801f4ac     0xc  Data  Gb  Font24_MS.o [1]
GUI_FontHZ_fontHz14_Prop253
                        0x0801f4a0     0xc  Data  Gb  Font24_MS.o [1]
GUI_FontHZ_fontHz14_Prop254
                        0x0801f494     0xc  Data  Gb  Font24_MS.o [1]
GUI_FontHZ_fontHz14_Prop255
                        0x0801f488     0xc  Data  Gb  Font24_MS.o [1]
GUI_FontHZ_fontHz14_Prop256
                        0x0801f47c     0xc  Data  Gb  Font24_MS.o [1]
GUI_FontHZ_fontHz14_Prop257
                        0x0801f470     0xc  Data  Gb  Font24_MS.o [1]
GUI_FontHZ_fontHz14_Prop258
                        0x0801f464     0xc  Data  Gb  Font24_MS.o [1]
GUI_FontHZ_fontHz14_Prop259
                        0x0801f458     0xc  Data  Gb  Font24_MS.o [1]
GUI_FontHZ_fontHz14_Prop26
                        0x0801ff44     0xc  Data  Gb  Font24_MS.o [1]
GUI_FontHZ_fontHz14_Prop260
                        0x0801f44c     0xc  Data  Gb  Font24_MS.o [1]
GUI_FontHZ_fontHz14_Prop261
                        0x0801f440     0xc  Data  Gb  Font24_MS.o [1]
GUI_FontHZ_fontHz14_Prop262
                        0x0801f434     0xc  Data  Gb  Font24_MS.o [1]
GUI_FontHZ_fontHz14_Prop263
                        0x0801f428     0xc  Data  Gb  Font24_MS.o [1]
GUI_FontHZ_fontHz14_Prop264
                        0x0801f41c     0xc  Data  Gb  Font24_MS.o [1]
GUI_FontHZ_fontHz14_Prop265
                        0x0801f410     0xc  Data  Gb  Font24_MS.o [1]
GUI_FontHZ_fontHz14_Prop266
                        0x0801f404     0xc  Data  Gb  Font24_MS.o [1]
GUI_FontHZ_fontHz14_Prop267
                        0x0801f3f8     0xc  Data  Gb  Font24_MS.o [1]
GUI_FontHZ_fontHz14_Prop268
                        0x0801f3ec     0xc  Data  Gb  Font24_MS.o [1]
GUI_FontHZ_fontHz14_Prop269
                        0x0801f3e0     0xc  Data  Gb  Font24_MS.o [1]
GUI_FontHZ_fontHz14_Prop27
                        0x0801ff38     0xc  Data  Gb  Font24_MS.o [1]
GUI_FontHZ_fontHz14_Prop270
                        0x0801f3d4     0xc  Data  Gb  Font24_MS.o [1]
GUI_FontHZ_fontHz14_Prop271
                        0x0801f3c8     0xc  Data  Gb  Font24_MS.o [1]
GUI_FontHZ_fontHz14_Prop272
                        0x0801f3bc     0xc  Data  Gb  Font24_MS.o [1]
GUI_FontHZ_fontHz14_Prop273
                        0x0801f3b0     0xc  Data  Gb  Font24_MS.o [1]
GUI_FontHZ_fontHz14_Prop274
                        0x0801f3a4     0xc  Data  Gb  Font24_MS.o [1]
GUI_FontHZ_fontHz14_Prop275
                        0x0801f398     0xc  Data  Gb  Font24_MS.o [1]
GUI_FontHZ_fontHz14_Prop276
                        0x0801f38c     0xc  Data  Gb  Font24_MS.o [1]
GUI_FontHZ_fontHz14_Prop277
                        0x0801f380     0xc  Data  Gb  Font24_MS.o [1]
GUI_FontHZ_fontHz14_Prop278
                        0x0801f374     0xc  Data  Gb  Font24_MS.o [1]
GUI_FontHZ_fontHz14_Prop279
                        0x0801f368     0xc  Data  Gb  Font24_MS.o [1]
GUI_FontHZ_fontHz14_Prop28
                        0x0801ff2c     0xc  Data  Gb  Font24_MS.o [1]
GUI_FontHZ_fontHz14_Prop280
                        0x0801f35c     0xc  Data  Gb  Font24_MS.o [1]
GUI_FontHZ_fontHz14_Prop281
                        0x0801f350     0xc  Data  Gb  Font24_MS.o [1]
GUI_FontHZ_fontHz14_Prop282
                        0x0801f344     0xc  Data  Gb  Font24_MS.o [1]
GUI_FontHZ_fontHz14_Prop283
                        0x0801f338     0xc  Data  Gb  Font24_MS.o [1]
GUI_FontHZ_fontHz14_Prop284
                        0x0801f32c     0xc  Data  Gb  Font24_MS.o [1]
GUI_FontHZ_fontHz14_Prop285
                        0x0801f320     0xc  Data  Gb  Font24_MS.o [1]
GUI_FontHZ_fontHz14_Prop29
                        0x0801ff20     0xc  Data  Gb  Font24_MS.o [1]
GUI_FontHZ_fontHz14_Prop3
                        0x08020058     0xc  Data  Gb  Font24_MS.o [1]
GUI_FontHZ_fontHz14_Prop30
                        0x0801ff14     0xc  Data  Gb  Font24_MS.o [1]
GUI_FontHZ_fontHz14_Prop31
                        0x0801ff08     0xc  Data  Gb  Font24_MS.o [1]
GUI_FontHZ_fontHz14_Prop32
                        0x0801fefc     0xc  Data  Gb  Font24_MS.o [1]
GUI_FontHZ_fontHz14_Prop33
                        0x0801fef0     0xc  Data  Gb  Font24_MS.o [1]
GUI_FontHZ_fontHz14_Prop34
                        0x0801fee4     0xc  Data  Gb  Font24_MS.o [1]
GUI_FontHZ_fontHz14_Prop35
                        0x0801fed8     0xc  Data  Gb  Font24_MS.o [1]
GUI_FontHZ_fontHz14_Prop36
                        0x0801fecc     0xc  Data  Gb  Font24_MS.o [1]
GUI_FontHZ_fontHz14_Prop37
                        0x0801fec0     0xc  Data  Gb  Font24_MS.o [1]
GUI_FontHZ_fontHz14_Prop38
                        0x0801feb4     0xc  Data  Gb  Font24_MS.o [1]
GUI_FontHZ_fontHz14_Prop39
                        0x0801fea8     0xc  Data  Gb  Font24_MS.o [1]
GUI_FontHZ_fontHz14_Prop4
                        0x0802004c     0xc  Data  Gb  Font24_MS.o [1]
GUI_FontHZ_fontHz14_Prop40
                        0x0801fe9c     0xc  Data  Gb  Font24_MS.o [1]
GUI_FontHZ_fontHz14_Prop41
                        0x0801fe90     0xc  Data  Gb  Font24_MS.o [1]
GUI_FontHZ_fontHz14_Prop42
                        0x0801fe84     0xc  Data  Gb  Font24_MS.o [1]
GUI_FontHZ_fontHz14_Prop43
                        0x0801fe78     0xc  Data  Gb  Font24_MS.o [1]
GUI_FontHZ_fontHz14_Prop44
                        0x0801fe6c     0xc  Data  Gb  Font24_MS.o [1]
GUI_FontHZ_fontHz14_Prop45
                        0x0801fe60     0xc  Data  Gb  Font24_MS.o [1]
GUI_FontHZ_fontHz14_Prop46
                        0x0801fe54     0xc  Data  Gb  Font24_MS.o [1]
GUI_FontHZ_fontHz14_Prop47
                        0x0801fe48     0xc  Data  Gb  Font24_MS.o [1]
GUI_FontHZ_fontHz14_Prop48
                        0x0801fe3c     0xc  Data  Gb  Font24_MS.o [1]
GUI_FontHZ_fontHz14_Prop49
                        0x0801fe30     0xc  Data  Gb  Font24_MS.o [1]
GUI_FontHZ_fontHz14_Prop5
                        0x08020040     0xc  Data  Gb  Font24_MS.o [1]
GUI_FontHZ_fontHz14_Prop50
                        0x0801fe24     0xc  Data  Gb  Font24_MS.o [1]
GUI_FontHZ_fontHz14_Prop51
                        0x0801fe18     0xc  Data  Gb  Font24_MS.o [1]
GUI_FontHZ_fontHz14_Prop52
                        0x0801fe0c     0xc  Data  Gb  Font24_MS.o [1]
GUI_FontHZ_fontHz14_Prop53
                        0x0801fe00     0xc  Data  Gb  Font24_MS.o [1]
GUI_FontHZ_fontHz14_Prop54
                        0x0801fdf4     0xc  Data  Gb  Font24_MS.o [1]
GUI_FontHZ_fontHz14_Prop55
                        0x0801fde8     0xc  Data  Gb  Font24_MS.o [1]
GUI_FontHZ_fontHz14_Prop56
                        0x0801fddc     0xc  Data  Gb  Font24_MS.o [1]
GUI_FontHZ_fontHz14_Prop57
                        0x0801fdd0     0xc  Data  Gb  Font24_MS.o [1]
GUI_FontHZ_fontHz14_Prop58
                        0x0801fdc4     0xc  Data  Gb  Font24_MS.o [1]
GUI_FontHZ_fontHz14_Prop59
                        0x0801fdb8     0xc  Data  Gb  Font24_MS.o [1]
GUI_FontHZ_fontHz14_Prop6
                        0x08020034     0xc  Data  Gb  Font24_MS.o [1]
GUI_FontHZ_fontHz14_Prop60
                        0x0801fdac     0xc  Data  Gb  Font24_MS.o [1]
GUI_FontHZ_fontHz14_Prop61
                        0x0801fda0     0xc  Data  Gb  Font24_MS.o [1]
GUI_FontHZ_fontHz14_Prop62
                        0x0801fd94     0xc  Data  Gb  Font24_MS.o [1]
GUI_FontHZ_fontHz14_Prop63
                        0x0801fd88     0xc  Data  Gb  Font24_MS.o [1]
GUI_FontHZ_fontHz14_Prop64
                        0x0801fd7c     0xc  Data  Gb  Font24_MS.o [1]
GUI_FontHZ_fontHz14_Prop65
                        0x0801fd70     0xc  Data  Gb  Font24_MS.o [1]
GUI_FontHZ_fontHz14_Prop66
                        0x0801fd64     0xc  Data  Gb  Font24_MS.o [1]
GUI_FontHZ_fontHz14_Prop67
                        0x0801fd58     0xc  Data  Gb  Font24_MS.o [1]
GUI_FontHZ_fontHz14_Prop68
                        0x0801fd4c     0xc  Data  Gb  Font24_MS.o [1]
GUI_FontHZ_fontHz14_Prop69
                        0x0801fd40     0xc  Data  Gb  Font24_MS.o [1]
GUI_FontHZ_fontHz14_Prop7
                        0x08020028     0xc  Data  Gb  Font24_MS.o [1]
GUI_FontHZ_fontHz14_Prop70
                        0x0801fd34     0xc  Data  Gb  Font24_MS.o [1]
GUI_FontHZ_fontHz14_Prop71
                        0x0801fd28     0xc  Data  Gb  Font24_MS.o [1]
GUI_FontHZ_fontHz14_Prop72
                        0x0801fd1c     0xc  Data  Gb  Font24_MS.o [1]
GUI_FontHZ_fontHz14_Prop73
                        0x0801fd10     0xc  Data  Gb  Font24_MS.o [1]
GUI_FontHZ_fontHz14_Prop74
                        0x0801fd04     0xc  Data  Gb  Font24_MS.o [1]
GUI_FontHZ_fontHz14_Prop75
                        0x0801fcf8     0xc  Data  Gb  Font24_MS.o [1]
GUI_FontHZ_fontHz14_Prop76
                        0x0801fcec     0xc  Data  Gb  Font24_MS.o [1]
GUI_FontHZ_fontHz14_Prop77
                        0x0801fce0     0xc  Data  Gb  Font24_MS.o [1]
GUI_FontHZ_fontHz14_Prop78
                        0x0801fcd4     0xc  Data  Gb  Font24_MS.o [1]
GUI_FontHZ_fontHz14_Prop79
                        0x0801fcc8     0xc  Data  Gb  Font24_MS.o [1]
GUI_FontHZ_fontHz14_Prop8
                        0x0802001c     0xc  Data  Gb  Font24_MS.o [1]
GUI_FontHZ_fontHz14_Prop80
                        0x0801fcbc     0xc  Data  Gb  Font24_MS.o [1]
GUI_FontHZ_fontHz14_Prop81
                        0x0801fcb0     0xc  Data  Gb  Font24_MS.o [1]
GUI_FontHZ_fontHz14_Prop82
                        0x0801fca4     0xc  Data  Gb  Font24_MS.o [1]
GUI_FontHZ_fontHz14_Prop83
                        0x0801fc98     0xc  Data  Gb  Font24_MS.o [1]
GUI_FontHZ_fontHz14_Prop84
                        0x0801fc8c     0xc  Data  Gb  Font24_MS.o [1]
GUI_FontHZ_fontHz14_Prop85
                        0x0801fc80     0xc  Data  Gb  Font24_MS.o [1]
GUI_FontHZ_fontHz14_Prop86
                        0x0801fc74     0xc  Data  Gb  Font24_MS.o [1]
GUI_FontHZ_fontHz14_Prop87
                        0x0801fc68     0xc  Data  Gb  Font24_MS.o [1]
GUI_FontHZ_fontHz14_Prop88
                        0x0801fc5c     0xc  Data  Gb  Font24_MS.o [1]
GUI_FontHZ_fontHz14_Prop89
                        0x0801fc50     0xc  Data  Gb  Font24_MS.o [1]
GUI_FontHZ_fontHz14_Prop9
                        0x08020010     0xc  Data  Gb  Font24_MS.o [1]
GUI_FontHZ_fontHz14_Prop90
                        0x0801fc44     0xc  Data  Gb  Font24_MS.o [1]
GUI_FontHZ_fontHz14_Prop91
                        0x0801fc38     0xc  Data  Gb  Font24_MS.o [1]
GUI_FontHZ_fontHz14_Prop92
                        0x0801fc2c     0xc  Data  Gb  Font24_MS.o [1]
GUI_FontHZ_fontHz14_Prop93
                        0x0801fc20     0xc  Data  Gb  Font24_MS.o [1]
GUI_FontHZ_fontHz14_Prop94
                        0x0801fc14     0xc  Data  Gb  Font24_MS.o [1]
GUI_FontHZ_fontHz14_Prop95
                        0x0801fc08     0xc  Data  Gb  Font24_MS.o [1]
GUI_FontHZ_fontHz14_Prop96
                        0x0801fbfc     0xc  Data  Gb  Font24_MS.o [1]
GUI_FontHZ_fontHz14_Prop97
                        0x0801fbf0     0xc  Data  Gb  Font24_MS.o [1]
GUI_FontHZ_fontHz14_Prop98
                        0x0801fbe4     0xc  Data  Gb  Font24_MS.o [1]
GUI_FontHZ_fontHz14_Prop99
                        0x0801fbd8     0xc  Data  Gb  Font24_MS.o [1]
GUI_Fontmks_fontHz14_CharInfo
                        0x0804b9bc   0x600  Data  Gb  mks_fontHz14.o [1]
GUI_GetBitmapPixelIndex
                        0x0804fe89    0x96  Code  Gb  GUI_GetBitmapPixelIndex.o [5]
GUI_GetBkColor          0x08050163     0xe  Code  Gb  GUI_GetColor.o [5]
GUI_GetCharDistX        0x08046f33     0x8  Code  Gb  GUIChar.o [5]
GUI_GetClientRect       0x08044485     0xa  Code  Gb  GUI_GetClientRect.o [5]
GUI_GetColor            0x08050171     0xe  Code  Gb  GUI_GetColor.o [5]
GUI_GetFontDistY        0x08046f23    0x10  Code  Gb  GUIChar.o [5]
GUI_GetFontSizeY        0x0804496f     0x4  Code  Gb  GUI_GetFontSizeY.o [5]
GUI_GetStringDistX      0x0804495b    0x14  Code  Gb  GUI_GetStringDistX.o [5]
GUI_GetYAdjust          0x08046ef9    0x2a  Code  Gb  GUIChar.o [5]
GUI_GotoXY              0x08043a05    0x14  Code  Gb  GUI_Goto.o [5]
GUI_Heap                0x2000b7f4  0x1800  Data  Gb  GUIAlloc.o [5]
GUI_Init                0x08033adf    0x1c  Code  Gb  GUICore.o [5]
GUI_Long2Len            0x0804733f    0x26  Code  Gb  GUI_AddDecShift.o [5]
GUI_MergeRect           0x0804464d    0x64  Code  Gb  GUI_MergeRect.o [5]
GUI_MoveRect            0x080444c5    0x1e  Code  Gb  GUI_MoveRect.o [5]
GUI_PID_GetState        0x08048161    0x18  Code  Gb  GUI_PID.o [5]
GUI_PID_StoreState      0x08048179    0x1e  Code  Gb  GUI_PID.o [5]
GUI_PollKeyMsg          0x080444f1    0x2a  Code  Gb  GUI_OnKey.o [5]
GUI_Pow10               0x080473d8    0x28  Data  Gb  GUI_AddDecShift.o [5]
GUI_RectsIntersect      0x0804470d    0x38  Code  Gb  GUI_RectsIntersect.o [5]
GUI_RefreshPage         0x080274e5    0x9e  Code  Gb  draw_ui.o [1]
GUI_RestoreContext      0x080447c9     0xa  Code  Gb  GUI_SaveContext.o [5]
GUI_SaveContext_W       0x080447c1     0x8  Code  Gb  GUI_SaveContext.o [5]
GUI_SetBkColor          0x08038e11     0x4  Code  Gb  GUI_SetColor.o [5]
GUI_SetColor            0x08038e15     0x4  Code  Gb  GUI_SetColor.o [5]
GUI_SetColorIndex       0x08050685     0xc  Code  Gb  GUI_SetColorIndex.o [5]
GUI_SetDrawMode         0x0804730d     0x4  Code  Gb  GUI_SetDrawMode.o [5]
GUI_SetFont             0x08038cb5    0x14  Code  Gb  GUI_SetFont.o [5]
GUI_SetLineStyle        0x08047311    0x10  Code  Gb  GUI_SetLineStyle.o [5]
GUI_SetPenSize          0x080472ed     0xa  Code  Gb  GUI_Pen.o [5]
GUI_SetTextAlign        0x080472fd    0x10  Code  Gb  GUI_SetTextAlign.o [5]
GUI_SetTextMode         0x08043ee5    0x10  Code  Gb  GUI_SetTextMode.o [5]
GUI_StoreKey            0x080444e5     0xc  Code  Gb  GUI_OnKey.o [5]
GUI_TOUCH_Exec          0x0802ba83    0x76  Code  Gb  GUI_TOUCH_DriverAnalog.o [5]
GUI_TOUCH_StoreState    0x08044b1d    0x24  Code  Gb  GUI_TOUCH_StoreState.o [5]
GUI_TOUCH_StoreStateEx  0x080475a5    0x24  Code  Gb  GUI_TOUCH.o [5]
GUI_TOUCH_StoreUnstable
                        0x0803b8b9    0x32  Code  Gb  GUI_TOUCH_StoreUnstable.o [5]
GUI_TOUCH_X_MeasureXY   0x0803b8f1    0x26  Code  Gb  GUI_X_Touch.o [5]
GUI_UC_SetEncodeNone    0x0803ab1b     0xa  Code  Gb  GUI_UC_EncodeNone.o [5]
GUI_UC_SetEncodeUTF8    0x0803ac37     0xa  Code  Gb  GUI_UC_EncodeUTF8.o [5]
GUI_UC__GetCharCodeInc  0x08046e55    0x22  Code  Gb  GUI_UC.o [5]
GUI_UC__NumChars2NumBytes
                        0x08046e77    0x24  Code  Gb  GUI_UC.o [5]
GUI__API_TableNone      0x0803ab28    0x10  Data  Gb  GUI_UC_EncodeNone.o [5]
GUI__DispLine           0x08046da7    0xa2  Code  Gb  GUICharLine.o [5]
GUI__DispStringInRect   0x08043f31   0x178  Code  Gb  GUI_DispStringInRect.o [5]
GUI__GetFontSizeY       0x08047401    0x14  Code  Gb  GUI__GetFontSizeY.o [5]
GUI__GetLineDistX       0x08046d77    0x30  Code  Gb  GUICharLine.o [5]
GUI__GetLineNumChars    0x08046d43    0x34  Code  Gb  GUICharLine.o [5]
GUI__HandleEOLine       0x08046ea1    0x18  Code  Gb  GUI__HandleEOLine.o [5]
GUI__IntersectRect      0x080446cd    0x40  Code  Gb  GUI__IntersectRect.o [5]
GUI__IntersectRects     0x080445e5    0x68  Code  Gb  GUI__IntersectRects.o [5]
GUI__ReduceRect         0x08044231    0x1a  Code  Gb  GUI__ReduceRect.o [5]
GUI__SetText            0x08044525    0x3e  Code  Gb  GUI__SetText.o [5]
GUI__memset             0x08046f45    0x54  Code  Gb  GUI__memset.o [5]
GUI__strcmp             0x0804715d    0x36  Code  Gb  GUI__strcmp.o [5]
GUI__strcmp_hp          0x08047199    0x1a  Code  Gb  GUI__strcmp.o [5]
GUI__strlen             0x080471b3    0x16  Code  Gb  GUI__strlen.o [5]
GUI_acFont6x8           0x0804e264   0x518  Data  Gb  F6x8.o [5]
GUI_pLCD_APIList        0x2001169c     0x4  Data  Gb  GUICore.o [5]
GUI_pfDispCharStyle     0x20011698     0x4  Data  Gb  GUICore.o [5]
GUI_pfTimerExec         0x20011690     0x4  Data  Gb  GUICore.o [5]
HAL_DMA_Abort           0x080427bb    0x92  Code  Gb  stm32f4xx_hal_dma.o [1]
HAL_DMA_Abort_IT        0x0804284d    0x24  Code  Gb  stm32f4xx_hal_dma.o [1]
HAL_DMA_IRQHandler      0x08042871   0x1c4  Code  Gb  stm32f4xx_hal_dma.o [1]
HAL_DMA_Init            0x0804268d    0xc8  Code  Gb  stm32f4xx_hal_dma.o [1]
HAL_DMA_Start_IT        0x08042755    0x66  Code  Gb  stm32f4xx_hal_dma.o [1]
HAL_Delay               0x08026dcd    0x18  Code  Wk  stm32f4xx_hal.o [1]
HAL_GPIO_DeInit         0x0802a7a7   0x118  Code  Gb  stm32f4xx_hal_gpio.o [1]
HAL_GPIO_EXTI_Callback  0x0802a925     0x2  Code  Wk  stm32f4xx_hal_gpio.o [1]
HAL_GPIO_EXTI_IRQHandler
                        0x0802a8dd    0x16  Code  Gb  stm32f4xx_hal_gpio.o [1]
HAL_GPIO_Init           0x0802a601   0x1a6  Code  Gb  stm32f4xx_hal_gpio.o [1]
HAL_GPIO_ReadPin        0x0802a8bf    0x10  Code  Gb  stm32f4xx_hal_gpio.o [1]
HAL_GPIO_WritePin       0x0802a8cf     0xe  Code  Gb  stm32f4xx_hal_gpio.o [1]
HAL_GetTick             0x08026dc7     0x6  Code  Wk  stm32f4xx_hal.o [1]
HAL_HCD_Connect_Callback
                        0x08045f65     0x8  Code  Gb  usbh_conf.o [1]
HAL_HCD_Disconnect_Callback
                        0x08045f6d     0x8  Code  Gb  usbh_conf.o [1]
HAL_HCD_GetCurrentFrame
                        0x08047a19     0x6  Code  Gb  stm32f4xx_hal_hcd.o [1]
HAL_HCD_GetCurrentSpeed
                        0x08047a1f     0x6  Code  Gb  stm32f4xx_hal_hcd.o [1]
HAL_HCD_HC_GetURBState  0x080479ff     0xe  Code  Gb  stm32f4xx_hal_hcd.o [1]
HAL_HCD_HC_GetXferCount
                        0x08047a0d     0xc  Code  Gb  stm32f4xx_hal_hcd.o [1]
HAL_HCD_HC_Halt         0x080477a1    0x24  Code  Gb  stm32f4xx_hal_hcd.o [1]
HAL_HCD_HC_Init         0x0804774f    0x52  Code  Gb  stm32f4xx_hal_hcd.o [1]
HAL_HCD_HC_NotifyURBChange_Callback
                        0x08045f75     0x2  Code  Gb  usbh_conf.o [1]
HAL_HCD_HC_SubmitRequest
                        0x080477c5    0xbc  Code  Gb  stm32f4xx_hal_hcd.o [1]
HAL_HCD_IRQHandler      0x08047881   0x128  Code  Gb  stm32f4xx_hal_hcd.o [1]
HAL_HCD_Init            0x080476f5    0x5a  Code  Gb  stm32f4xx_hal_hcd.o [1]
HAL_HCD_MspInit         0x08045efd    0x60  Code  Gb  usbh_conf.o [1]
HAL_HCD_ResetPort       0x080479f9     0x6  Code  Gb  stm32f4xx_hal_hcd.o [1]
HAL_HCD_SOF_Callback    0x08045f5d     0x8  Code  Gb  usbh_conf.o [1]
HAL_HCD_Start           0x080479a9    0x2c  Code  Gb  stm32f4xx_hal_hcd.o [1]
HAL_HCD_Stop            0x080479d5    0x24  Code  Gb  stm32f4xx_hal_hcd.o [1]
HAL_I2C_Init            0x08041b81    0xfa  Code  Gb  stm32f4xx_hal_i2c.o [1]
HAL_I2C_Mem_Read        0x08041de9   0x2c2  Code  Gb  stm32f4xx_hal_i2c.o [1]
HAL_I2C_Mem_Write       0x08041c85   0x164  Code  Gb  stm32f4xx_hal_i2c.o [1]
HAL_I2C_MspDeInit       0x0803d3a3    0x1c  Code  Gb  i2c.o [1]
HAL_I2C_MspInit         0x0803d35d    0x46  Code  Gb  i2c.o [1]
HAL_IncTick             0x08026dbd     0xa  Code  Wk  stm32f4xx_hal.o [1]
HAL_Init                0x08026d69    0x30  Code  Gb  stm32f4xx_hal.o [1]
HAL_InitTick            0x08026d99    0x24  Code  Wk  stm32f4xx_hal.o [1]
HAL_MspInit             0x0803385b    0x60  Code  Gb  stm32f4xx_hal_msp.o [1]
HAL_NVIC_EnableIRQ      0x0803381b     0x2  Code  Gb  stm32f4xx_hal_cortex.o [1]
HAL_NVIC_SetPriority    0x080337fd    0x1e  Code  Gb  stm32f4xx_hal_cortex.o [1]
HAL_NVIC_SetPriorityGrouping
                        0x080337fb     0x2  Code  Gb  stm32f4xx_hal_cortex.o [1]
HAL_RCCEx_PeriphCLKConfig
                        0x08040779   0x110  Code  Gb  stm32f4xx_hal_rcc_ex.o [1]
HAL_RCC_ClockConfig     0x08040561   0x150  Code  Gb  stm32f4xx_hal_rcc.o [1]
HAL_RCC_GetHCLKFreq     0x08040705     0x6  Code  Gb  stm32f4xx_hal_rcc.o [1]
HAL_RCC_GetPCLK1Freq    0x0804070b    0x18  Code  Gb  stm32f4xx_hal_rcc.o [1]
HAL_RCC_GetPCLK2Freq    0x08040723    0x18  Code  Gb  stm32f4xx_hal_rcc.o [1]
HAL_RCC_GetSysClockFreq
                        0x080406b1    0x54  Code  Wk  stm32f4xx_hal_rcc.o [1]
HAL_RCC_OscConfig       0x08040301   0x260  Code  Wk  stm32f4xx_hal_rcc.o [1]
HAL_RTC_Init            0x08044ce5    0x9c  Code  Gb  stm32f4xx_hal_rtc.o [1]
HAL_RTC_MspInit         0x0803d30b    0x10  Code  Gb  rtc.o [1]
HAL_RTC_SetDate         0x08044e69    0xd2  Code  Gb  stm32f4xx_hal_rtc.o [1]
HAL_RTC_SetTime         0x08044d81    0xe8  Code  Gb  stm32f4xx_hal_rtc.o [1]
HAL_RTC_WaitForSynchro  0x08044f49    0x30  Code  Gb  stm32f4xx_hal_rtc.o [1]
HAL_SD_CheckReadOperation
                        0x0804c257    0x60  Code  Gb  stm32f4xx_hal_sd.o [1]
HAL_SD_CheckWriteOperation
                        0x0804c2b7    0x72  Code  Gb  stm32f4xx_hal_sd.o [1]
HAL_SD_DMA_RxCpltCallback
                        0x0804c3cb     0x2  Code  Wk  stm32f4xx_hal_sd.o [1]
HAL_SD_DMA_RxErrorCallback
                        0x0804c3cd     0x2  Code  Wk  stm32f4xx_hal_sd.o [1]
HAL_SD_DMA_TxCpltCallback
                        0x0804c3cf     0x2  Code  Wk  stm32f4xx_hal_sd.o [1]
HAL_SD_DMA_TxErrorCallback
                        0x0804c3d1     0x2  Code  Wk  stm32f4xx_hal_sd.o [1]
HAL_SD_GetStatus        0x0804c75f    0x1a  Code  Gb  stm32f4xx_hal_sd.o [1]
HAL_SD_Get_CardInfo     0x0804c3d3   0x2de  Code  Gb  stm32f4xx_hal_sd.o [1]
HAL_SD_IRQHandler       0x0804c329    0x9e  Code  Gb  stm32f4xx_hal_sd.o [1]
HAL_SD_Init             0x0804bfbd    0xac  Code  Gb  stm32f4xx_hal_sd.o [1]
HAL_SD_MspInit          0x0803d3ed   0x126  Code  Gb  sdio.o [1]
HAL_SD_ReadBlocks_DMA   0x0804c069    0xf4  Code  Gb  stm32f4xx_hal_sd.o [1]
HAL_SD_StopTransfer     0x0804c72f    0x30  Code  Gb  stm32f4xx_hal_sd.o [1]
HAL_SD_WideBusOperation_Config
                        0x0804c6b1    0x7e  Code  Gb  stm32f4xx_hal_sd.o [1]
HAL_SD_WriteBlocks_DMA  0x0804c15d    0xfa  Code  Gb  stm32f4xx_hal_sd.o [1]
HAL_SD_XferCpltCallback
                        0x0804c3c7     0x2  Code  Wk  stm32f4xx_hal_sd.o [1]
HAL_SD_XferErrorCallback
                        0x0804c3c9     0x2  Code  Wk  stm32f4xx_hal_sd.o [1]
HAL_SPI_ErrorCallback   0x0802ffe5     0x2  Code  Wk  stm32f4xx_hal_spi.o [1]
HAL_SPI_IRQHandler      0x0802fed9   0x100  Code  Gb  stm32f4xx_hal_spi.o [1]
HAL_SPI_Init            0x0802fbbd    0x84  Code  Gb  stm32f4xx_hal_spi.o [1]
HAL_SPI_MspInit         0x0802f939   0x1ae  Code  Gb  spi.o [1]
HAL_SPI_Receive_DMA     0x0802fcf9    0xd8  Code  Gb  stm32f4xx_hal_spi.o [1]
HAL_SPI_RxCpltCallback  0x0802ffdb     0x2  Code  Wk  stm32f4xx_hal_spi.o [1]
HAL_SPI_RxHalfCpltCallback
                        0x0802ffe1     0x2  Code  Wk  stm32f4xx_hal_spi.o [1]
HAL_SPI_TransmitReceive_DMA
                        0x0802fdd1   0x108  Code  Gb  stm32f4xx_hal_spi.o [1]
HAL_SPI_Transmit_DMA    0x0802fc41    0xb8  Code  Gb  stm32f4xx_hal_spi.o [1]
HAL_SPI_TxCpltCallback  0x0802ffd9     0x2  Code  Wk  stm32f4xx_hal_spi.o [1]
HAL_SPI_TxHalfCpltCallback
                        0x0802ffdf     0x2  Code  Wk  stm32f4xx_hal_spi.o [1]
HAL_SPI_TxRxCpltCallback
                        0x0802ffdd     0x2  Code  Wk  stm32f4xx_hal_spi.o [1]
HAL_SPI_TxRxHalfCpltCallback
                        0x0802ffe3     0x2  Code  Wk  stm32f4xx_hal_spi.o [1]
HAL_SYSTICK_CLKSourceConfig
                        0x0803381f    0x18  Code  Gb  stm32f4xx_hal_cortex.o [1]
HAL_SYSTICK_Callback    0x08033859     0x2  Code  Wk  stm32f4xx_hal_cortex.o [1]
HAL_SYSTICK_Config      0x0803381d     0x2  Code  Gb  stm32f4xx_hal_cortex.o [1]
HAL_SYSTICK_IRQHandler  0x08033851     0x8  Code  Gb  stm32f4xx_hal_cortex.o [1]
HAL_TIMEx_BreakCallback
                        0x08041b7f     0x2  Code  Wk  stm32f4xx_hal_tim_ex.o [1]
HAL_TIMEx_CommutationCallback
                        0x08041b7d     0x2  Code  Wk  stm32f4xx_hal_tim_ex.o [1]
HAL_TIMEx_MasterConfigSynchronization
                        0x08041b29    0x54  Code  Gb  stm32f4xx_hal_tim_ex.o [1]
HAL_TIM_Base_Init       0x08032e3d    0x36  Code  Gb  stm32f4xx_hal_tim.o [1]
HAL_TIM_Base_MspInit    0x0802edb5    0x86  Code  Gb  tim.o [1]
HAL_TIM_Base_Start_IT   0x08032e73    0x18  Code  Gb  stm32f4xx_hal_tim.o [1]
HAL_TIM_Base_Stop_IT    0x08032e8b    0x2c  Code  Gb  stm32f4xx_hal_tim.o [1]
HAL_TIM_ConfigClockSource
                        0x0803315f   0x104  Code  Gb  stm32f4xx_hal_tim.o [1]
HAL_TIM_IC_CaptureCallback
                        0x08033269     0x2  Code  Wk  stm32f4xx_hal_tim.o [1]
HAL_TIM_IRQHandler      0x08032f35   0x152  Code  Gb  stm32f4xx_hal_tim.o [1]
HAL_TIM_MspPostInit     0x0802ee3b    0x2c  Code  Gb  tim.o [1]
HAL_TIM_OC_DelayElapsedCallback
                        0x08033267     0x2  Code  Wk  stm32f4xx_hal_tim.o [1]
HAL_TIM_PWM_ConfigChannel
                        0x08033087    0xd8  Code  Gb  stm32f4xx_hal_tim.o [1]
HAL_TIM_PWM_Init        0x08032eb7    0x36  Code  Gb  stm32f4xx_hal_tim.o [1]
HAL_TIM_PWM_MspInit     0x08032eed     0x2  Code  Wk  stm32f4xx_hal_tim.o [1]
HAL_TIM_PWM_PulseFinishedCallback
                        0x0803326b     0x2  Code  Wk  stm32f4xx_hal_tim.o [1]
HAL_TIM_PWM_Start       0x08032eef    0x3e  Code  Gb  stm32f4xx_hal_tim.o [1]
HAL_TIM_PeriodElapsedCallback
                        0x08033265     0x2  Code  Wk  stm32f4xx_hal_tim.o [1]
HAL_TIM_TriggerCallback
                        0x0803326d     0x2  Code  Wk  stm32f4xx_hal_tim.o [1]
HAL_UART_Init           0x08044fd5    0x64  Code  Gb  stm32f4xx_hal_uart.o [1]
HAL_UART_MspInit        0x0803d563   0x186  Code  Gb  usart.o [1]
HCD_HC_IN_IRQHandler    0x08047a25   0x20e  Code  Lc  stm32f4xx_hal_hcd.o [1]
HCD_HC_OUT_IRQHandler   0x08047c33   0x22c  Code  Lc  stm32f4xx_hal_hcd.o [1]
HCD_Port_IRQHandler     0x08047ecd    0xb4  Code  Lc  stm32f4xx_hal_hcd.o [1]
HCD_RXQLVL_IRQHandler   0x08047e5f    0x68  Code  Lc  stm32f4xx_hal_hcd.o [1]
HEAP$$Base              0x200136d0           --   Gb  - Linker created -
HEAP$$Limit             0x200146d0           --   Gb  - Linker created -
HardFault_Handler       0x08050a2f     0x2  Code  Gb  stm32f4xx_it.o [1]
HardwareSerial::HardwareSerial()
                        0x080435ef     0xc  Code  Gb  USARTClass.o [1]
HardwareSerial::HardwareSerial() [subobject]
                        0x080329c9     0x4  Code  Gb  USARTClass.o [1]
I2C_IsAcknowledgeFailed
                        0x080424f9    0x2a  Code  Lc  stm32f4xx_hal_i2c.o [1]
I2C_RequestMemoryRead   0x08042189   0x152  Code  Lc  stm32f4xx_hal_i2c.o [1]
I2C_RequestMemoryWrite  0x080420b9    0xce  Code  Lc  stm32f4xx_hal_i2c.o [1]
I2C_WaitOnBTFFlagUntilTimeout
                        0x0804244b    0x52  Code  Lc  stm32f4xx_hal_i2c.o [1]
I2C_WaitOnFlagUntilTimeout
                        0x080422e1    0x80  Code  Lc  stm32f4xx_hal_i2c.o [1]
I2C_WaitOnMasterAddressFlagUntilTimeout
                        0x08042361    0x98  Code  Lc  stm32f4xx_hal_i2c.o [1]
I2C_WaitOnRXNEFlagUntilTimeout
                        0x0804249d    0x5c  Code  Lc  stm32f4xx_hal_i2c.o [1]
I2C_WaitOnTXEFlagUntilTimeout
                        0x080423f9    0x52  Code  Lc  stm32f4xx_hal_i2c.o [1]
I2Cx_Error              0x0802eedd    0x10  Code  Gb  at24cxx.o [1]
I2Cx_ReadMultiple(unsigned char, unsigned short, unsigned short, unsigned char *, unsigned short)
                        0x0802ee8d    0x28  Code  Gb  at24cxx.o [1]
I2Cx_WriteMultiple(unsigned char, unsigned short, unsigned short, unsigned char *, unsigned short)
                        0x0802eeb5    0x28  Code  Gb  at24cxx.o [1]
ILI9488_ReadRAM         0x0803936d     0x8  Code  Gb  ili9488.o [1]
ILI9488_WriteCmd        0x0803937d     0x8  Code  Gb  ili9488.o [1]
ILI9488_WriteData       0x08039375     0x8  Code  Gb  ili9488.o [1]
InStream_Read           0x08050e31    0x22  Code  Lc  packbits_init.o [6]
IsInitialized           0x2001151c     0x1  Data  Lc  GUIAlloc.o [5]
IsRunning()             0x080338bd     0xc  Code  Gb  temperature.o [1]
IsStopped()             0x08032db9    0x10  Code  Gb  Marlin_main.o [1]
IsrStepperHandler       0x08026465     0x4  Code  Gb  stepper.o [1]
LCD_Color2Index         0x080439ad     0x4  Code  Gb  LCD.o [5]
LCD_Color2Index_M565    0x0804663f    0x16  Code  Gb  LCDPM565.o [5]
LCD_CtrlLinesConfig     0x08039129   0x1c0  Code  Gb  ili9488.o [1]
LCD_DrawBitmap          0x080437a1   0x1d4  Code  Gb  LCD.o [5]
LCD_DrawHLine           0x0804372b    0x36  Code  Gb  LCD.o [5]
LCD_DrawVLine           0x08045ec1    0x3c  Code  Gb  LCD_DrawVLine.o [5]
LCD_FSMCConfig          0x080392e9    0x78  Code  Gb  ili9488.o [1]
LCD_FillRect            0x08043761    0x40  Code  Gb  LCD.o [5]
LCD_GetBkColorIndex     0x08050181     0x6  Code  Gb  LCD_GetColorIndex.o [5]
LCD_GetColorIndex       0x08050187     0x6  Code  Gb  LCD_GetColorIndex.o [5]
LCD_GetFixedPaletteEx   0x08050669     0xe  Code  Gb  LCD_GetEx.o [5]
LCD_GetIndexMask_M565   0x08046655     0x6  Code  Gb  LCDPM565.o [5]
LCD_GetSwapRBEx         0x08050677     0xc  Code  Gb  LCD_GetEx.o [5]
LCD_GetpPalConvTable    0x08046ce5     0x2  Code  Gb  LCDColor.o [5]
LCD_GetpPalConvTableUncached
                        0x08046cad    0x34  Code  Gb  LCDColor.o [5]
LCD_Index2Color         0x080439b1     0x4  Code  Gb  LCD.o [5]
LCD_Index2Color_M565    0x0804665b    0x34  Code  Gb  LCDPM565_Index2Color.o [5]
LCD_Init                0x0804397b    0x32  Code  Gb  LCD.o [5]
LCD_InitLUT             0x08046ce7     0x2  Code  Gb  LCDColor.o [5]
LCD_Initializtion       0x08039491   0x24c  Code  Gb  ili9488.o [1]
LCD_L0_APIList          0x08051208    0x30  Data  Gb  LCD_API.o [5]
LCD_L0_Color2Index      0x080436b1     0x4  Code  Gb  LCD_L0_Generic.o [5]
LCD_L0_DrawBitmap       0x08046bd5    0xc8  Code  Gb  LCDDummy.o [5]
LCD_L0_DrawHLine        0x08046aa1    0x68  Code  Gb  LCDDummy.o [5]
LCD_L0_DrawVLine        0x08046b09    0x68  Code  Gb  LCDDummy.o [5]
LCD_L0_FillRect         0x08046b71    0x60  Code  Gb  LCDDummy.o [5]
LCD_L0_GetIndexMask     0x080436b9     0x4  Code  Gb  LCD_L0_Generic.o [5]
LCD_L0_GetPixelIndex    0x08046a7d     0x8  Code  Gb  LCDDummy.o [5]
LCD_L0_GetRect          0x080436bd    0x14  Code  Gb  LCD_L0_Generic.o [5]
LCD_L0_Index2Color      0x080436b5     0x4  Code  Gb  LCD_L0_Generic.o [5]
LCD_L0_Init             0x08046c9f     0xa  Code  Gb  LCDDummy.o [5]
LCD_L0_On               0x08046c9d     0x2  Code  Gb  LCDDummy.o [5]
LCD_L0_SetLUTEntry      0x08046ca9     0x2  Code  Gb  LCDDummy.o [5]
LCD_L0_SetPixelIndex    0x08046a73     0xa  Code  Gb  LCDDummy.o [5]
LCD_L0_XorPixel         0x08046a85    0x1c  Code  Gb  LCDDummy.o [5]
LCD_RD_DATA             0x0803946b     0x8  Code  Gb  ili9488.o [1]
LCD_ReadRAM             0x080393b3     0xa  Code  Gb  ili9488.o [1]
LCD_ReadReg             0x08039397     0x8  Code  Gb  ili9488.o [1]
LCD_SetBkColor          0x080439b5    0x18  Code  Gb  LCD.o [5]
LCD_SetBkColorIndex     0x080436fb    0x12  Code  Gb  LCD.o [5]
LCD_SetClipRectEx       0x080446b1    0x1c  Code  Gb  LCD_SetClipRectEx.o [5]
LCD_SetClipRectMax      0x08043975     0x6  Code  Gb  LCD.o [5]
LCD_SetColor            0x080439cd    0x18  Code  Gb  LCD.o [5]
LCD_SetColorIndex       0x080436e9    0x12  Code  Gb  LCD.o [5]
LCD_SetDrawMode         0x0804370d    0x1e  Code  Gb  LCD.o [5]
LCD_WriteCommand        0x0803939f     0x8  Code  Gb  ili9488.o [1]
LCD_WriteRAM            0x080393ab     0x8  Code  Gb  ili9488.o [1]
LCD_WriteRAM_Prepare    0x080393a7     0x4  Code  Gb  ili9488.o [1]
LCD_WriteReg            0x08039385     0xa  Code  Gb  ili9488.o [1]
LCD_WrtReg              0x0803938f     0x8  Code  Gb  ili9488.o [1]
LCD_X_Init              0x08039361     0xc  Code  Gb  ili9488.o [1]
LCD__aConvTable         0x2000f91c   0x200  Data  Gb  LCDColor.o [5]
LCD_aAPI                0x20001130     0x4  Data  Gb  LCD_API.o [5]
LCD_setWindowArea       0x080393bd    0xae  Code  Gb  ili9488.o [1]
LfnOfs                  0x0803102c    0x10  Data  Lc  ff.o [1]
Line_Pixel              0x2000dd8c   0x600  Data  Gb  Marlin_main.o [1]
MKS_DLP::Can_Resume_Print()
                        0x08024fb9    0xe4  Code  Gb  Marlin_main.o [1]
MKS_DLP::CleanDataTrans()
                        0x08022cdd    0x20  Code  Gb  Marlin_main.o [1]
MKS_DLP::ExposureData2TFT_circle()
                        0x08022cfd    0x8c  Code  Gb  Marlin_main.o [1]
MKS_DLP::ExposureDataTrans_circle()
                        0x08022c21    0xb2  Code  Gb  Marlin_main.o [1]
MKS_DLP::ExposureTest()
                        0x08024529    0xba  Code  Gb  Marlin_main.o [1]
MKS_DLP::GeneralLayersPrint()
                        0x08022b01    0xde  Code  Gb  Marlin_main.o [1]
MKS_DLP::Is_Paused_Finished()
                        0x08024e09    0x26  Code  Gb  Marlin_main.o [1]
MKS_DLP::MKS_DLP()      0x080220a9    0x5e  Code  Gb  Marlin_main.o [1]
MKS_DLP::PrintStatePolling()
                        0x08024afd    0x48  Code  Gb  Marlin_main.o [1]
MKS_DLP::bank2disp_enable(unsigned char, unsigned char, unsigned char)
                        0x0802241b    0x60  Code  Gb  Marlin_main.o [1]
MKS_DLP::bank2disp_read()
                        0x080223f9    0x22  Code  Gb  Marlin_main.o [1]
MKS_DLP::bottomLayerPrint()
                        0x080229c1   0x140  Code  Gb  Marlin_main.o [1]
MKS_DLP::buzzer_enable(unsigned char)
                        0x080249fd    0x24  Code  Gb  Marlin_main.o [1]
MKS_DLP::buzzer_polling()
                        0x08024a4f    0x42  Code  Gb  Marlin_main.o [1]
MKS_DLP::buzzer_tone(unsigned short, unsigned short, unsigned char)
                        0x08024a21    0x2e  Code  Gb  Marlin_main.o [1]
MKS_DLP::clean_Information_layer()
                        0x08024e2f    0x90  Code  Gb  Marlin_main.o [1]
MKS_DLP::contiuePrint_Pwdwn()
                        0x08025135    0xba  Code  Gb  Marlin_main.o [1]
MKS_DLP::contiuePrint_paused()
                        0x08024d91    0x74  Code  Gb  Marlin_main.o [1]
MKS_DLP::dlp_start()    0x0802471b    0x64  Code  Gb  Marlin_main.o [1]
MKS_DLP::draw_printing()
                        0x08025235    0x22  Code  Gb  Marlin_main.o [1]
MKS_DLP::draw_return_printing_ui()
                        0x08025209    0x2c  Code  Gb  Marlin_main.o [1]
MKS_DLP::getHead1()     0x08022229   0x106  Code  Gb  Marlin_main.o [1]
MKS_DLP::getHead2()     0x0802233d    0x78  Code  Gb  Marlin_main.o [1]
MKS_DLP::get_BottomLedOnTime()
                        0x08024889     0xc  Code  Gb  Marlin_main.o [1]
MKS_DLP::get_Bottomlayers()
                        0x08024885     0x4  Code  Gb  Marlin_main.o [1]
MKS_DLP::get_Height()   0x080249c5    0x1c  Code  Gb  Marlin_main.o [1]
MKS_DLP::get_LedOffTime()
                        0x08024877     0xe  Code  Gb  Marlin_main.o [1]
MKS_DLP::get_LedOnTime()
                        0x08024869     0xe  Code  Gb  Marlin_main.o [1]
MKS_DLP::get_available_bmps()
                        0x08022bdf    0x3e  Code  Gb  Marlin_main.o [1]
MKS_DLP::get_buzzer_status()
                        0x08024a91     0x6  Code  Gb  Marlin_main.o [1]
MKS_DLP::get_cpld_ver()
                        0x080249e1    0x1c  Code  Gb  Marlin_main.o [1]
MKS_DLP::get_currentLayer()
                        0x080248c7    0x1c  Code  Gb  Marlin_main.o [1]
MKS_DLP::get_sdcard_bmps()
                        0x08022795   0x21a  Code  Gb  Marlin_main.o [1]
MKS_DLP::get_totalLayers()
                        0x080248bb     0xc  Code  Gb  Marlin_main.o [1]
MKS_DLP::get_totalPrintTime()
                        0x080248e5    0xe0  Code  Gb  Marlin_main.o [1]
MKS_DLP::led_off()      0x08024659    0x58  Code  Gb  Marlin_main.o [1]
MKS_DLP::led_on()       0x080245e3    0x6c  Code  Gb  Marlin_main.o [1]
MKS_DLP::line_fill_all_zero(char, unsigned short, unsigned char)
                        0x08022509    0xc8  Code  Gb  Marlin_main.o [1]
MKS_DLP::line_fill_zero(unsigned short, unsigned char)
                        0x080225d5    0x90  Code  Gb  Marlin_main.o [1]
MKS_DLP::line_gen_data(unsigned short, unsigned char)
                        0x08022665    0xc2  Code  Gb  Marlin_main.o [1]
MKS_DLP::line_gen_data_TFT(unsigned short)
                        0x08022727    0x5e  Code  Gb  Marlin_main.o [1]
MKS_DLP::moveMax_Z()    0x080221c9    0x40  Code  Gb  Marlin_main.o [1]
MKS_DLP::moveRelativeZandGetBmp(float, float)
                        0x0802218d    0x34  Code  Gb  Marlin_main.o [1]
MKS_DLP::moveRelative_Z(float, float)
                        0x0802215d    0x2a  Code  Gb  Marlin_main.o [1]
MKS_DLP::pausePrint()   0x08024b49    0x24  Code  Gb  Marlin_main.o [1]
MKS_DLP::power_off()    0x080246eb    0x30  Code  Gb  Marlin_main.o [1]
MKS_DLP::power_on()     0x080246b1    0x3a  Code  Gb  Marlin_main.o [1]
MKS_DLP::printingHasFinished()
                        0x08024a97    0x66  Code  Gb  Marlin_main.o [1]
MKS_DLP::quick_stop()   0x080251f9     0xa  Code  Gb  Marlin_main.o [1]
MKS_DLP::reTransmission()
                        0x08022485    0x7e  Code  Gb  Marlin_main.o [1]
MKS_DLP::read_Information_layer()
                        0x080250a5    0x82  Code  Gb  Marlin_main.o [1]
MKS_DLP::read_Information_paused()
                        0x08024cc3    0xcc  Code  Gb  Marlin_main.o [1]
MKS_DLP::resumePrint()  0x08024b6d    0xb4  Code  Gb  Marlin_main.o [1]
MKS_DLP::set_BottomLedOnTime(unsigned short)
                        0x08024839    0x30  Code  Gb  Marlin_main.o [1]
MKS_DLP::set_Bottomlayers(unsigned short)
                        0x08024805    0x34  Code  Gb  Marlin_main.o [1]
MKS_DLP::set_LedOffTime(unsigned short)
                        0x080247d5    0x30  Code  Gb  Marlin_main.o [1]
MKS_DLP::set_LedOnTime(unsigned short)
                        0x080247a5    0x30  Code  Gb  Marlin_main.o [1]
MKS_DLP::set_Zoffset()  0x080248a1    0x1a  Code  Gb  Marlin_main.o [1]
MKS_DLP::set_test_exposure_time(unsigned short)
                        0x08024895     0xc  Code  Gb  Marlin_main.o [1]
MKS_DLP::startFileprint()
                        0x080223bd    0x32  Code  Gb  Marlin_main.o [1]
MKS_DLP::status_init()  0x08022107    0x42  Code  Gb  Marlin_main.o [1]
MKS_DLP::stopPrint()    0x08024c21     0xe  Code  Gb  Marlin_main.o [1]
MKS_DLP::write_Information_layer(DLP_MOVE_STATUS)
                        0x08024ebf    0xf4  Code  Gb  Marlin_main.o [1]
MKS_DLP::write_Information_paused()
                        0x08024c2f    0x94  Code  Gb  Marlin_main.o [1]
MX_DMA_Init             0x0803d1a1    0xc8  Code  Gb  dma.o [1]
MX_FATFS_Init           0x0803d269    0x1c  Code  Gb  fatfs.o [1]
MX_GPIO_Init            0x0803cee1   0x2c0  Code  Gb  gpio.o [1]
MX_I2C1_Init            0x0803d329    0x34  Code  Gb  i2c.o [1]
MX_NVIC_Init()          0x0802d4fb    0x46  Code  Lc  main.o [1]
MX_RTC_Init             0x0803d295    0x76  Code  Gb  rtc.o [1]
MX_SDIO_SD_Init         0x0803d3d5    0x18  Code  Gb  sdio.o [1]
MX_SPI1_Init            0x0802f8b1    0x44  Code  Gb  spi.o [1]
MX_SPI2_Init            0x0802f8f5    0x44  Code  Gb  spi.o [1]
MX_TIM2_Init            0x0802ec65    0x5c  Code  Gb  tim.o [1]
MX_TIM3_Init            0x0802ecc1    0x68  Code  Gb  tim.o [1]
MX_TIM5_Init            0x0802ed29    0x8c  Code  Gb  tim.o [1]
MX_USART6_UART_Init     0x0803d531    0x32  Code  Gb  usart.o [1]
MX_USB_HOST_DeInit      0x080305ab    0x1a  Code  Gb  usb_host.o [1]
MX_USB_HOST_Init        0x08030589    0x22  Code  Gb  usb_host.o [1]
MX_USB_HOST_Process     0x080305c5     0x6  Code  Gb  usb_host.o [1]
MarlinSettings::eeprom_error
                        0x200116ba     0x1  Data  Gb  configuration_store.o [1]
MarlinSettings::load()  0x0802c17d   0x5ae  Code  Gb  configuration_store.o [1]
MarlinSettings::postprocess()
                        0x0802bb4d    0x4a  Code  Gb  configuration_store.o [1]
MarlinSettings::read_data(int &, unsigned char *, unsigned short, unsigned short *)
                        0x0802bc4d    0x42  Code  Gb  configuration_store.o [1]
MarlinSettings::report(bool)
                        0x0802c871   0x2fc  Code  Gb  configuration_store.o [1]
MarlinSettings::reset()
                        0x0802c735    0xec  Code  Gb  configuration_store.o [1]
MarlinSettings::save()  0x0802bc8f   0x4d6  Code  Gb  configuration_store.o [1]
MarlinSettings::write_data(int &, unsigned char const *, unsigned short, unsigned short *)
                        0x0802bb97    0x98  Code  Gb  configuration_store.o [1]
MemManage_Handler       0x08050a31     0x2  Code  Gb  stm32f4xx_it.o [1]
NMI_Handler             0x08050a2d     0x2  Code  Gb  stm32f4xx_it.o [1]
NVIC_EnableIRQ          0x08033771    0x12  Code  Lc  stm32f4xx_hal_cortex.o [1]
NVIC_EnableIRQ(IRQn_Type)
                        0x08025df9    0x12  Code  Lc  USARTClass.o [1]
NVIC_EncodePriority     0x0803379d    0x36  Code  Lc  stm32f4xx_hal_cortex.o [1]
NVIC_GetPriorityGrouping
                        0x08033767     0xa  Code  Lc  stm32f4xx_hal_cortex.o [1]
NVIC_SetPriority        0x08033783    0x1a  Code  Lc  stm32f4xx_hal_cortex.o [1]
NVIC_SetPriorityGrouping
                        0x0803374d    0x1a  Code  Lc  stm32f4xx_hal_cortex.o [1]
NVIC_SetVectorTable     0x0803cecd     0xc  Code  Gb  misc.o [1]
NextDrawWin             0x20010e10     0x2  Data  Lc  WM.o [5]
OTG_FS_IRQHandler       0x08050aef     0x6  Code  Gb  stm32f4xx_it.o [1]
PROGBAR_CreateEx        0x0803aea9    0x62  Code  Gb  PROGBAR.o [5]
PROGBAR_SetBarColor     0x0803b009    0x26  Code  Gb  PROGBAR.o [5]
PROGBAR_SetFont         0x0803afed    0x1c  Code  Gb  PROGBAR.o [5]
PROGBAR_SetTextColor    0x0803b02f    0x26  Code  Gb  PROGBAR.o [5]
PROGBAR_SetValue        0x0803af21    0xcc  Code  Gb  PROGBAR.o [5]
PendSV_Handler          0x08050a3b     0x2  Code  Gb  stm32f4xx_it.o [1]
Pic_Logo_Read           0x08039905    0x26  Code  Gb  pic_manager.o [1]
Pic_Read                0x08039859    0xac  Code  Gb  pic_manager.o [1]
Planner::Planner()      0x0802a9a1     0xc  Code  Gb  planner.o [1]
Planner::_buffer_steps(int const (&)[4], float, unsigned char)
                        0x0802af25   0x7b6  Code  Gb  planner.o [1]
Planner::_set_position_mm(float const &, float const &, float const &, float const &)
                        0x0802b7f1    0x82  Code  Gb  planner.o [1]
Planner::acceleration   0x20010cd0     0x4  Data  Gb  planner.o [1]
Planner::autotemp_M104_M109()
                        0x0802b965    0x3e  Code  Gb  planner.o [1]
Planner::autotemp_enabled
                        0x20000d52     0x1  Data  Gb  planner.o [1]
Planner::autotemp_factor
                        0x20000db0     0x4  Data  Gb  planner.o [1]
Planner::autotemp_max   0x20000da8     0x4  Data  Gb  planner.o [1]
Planner::autotemp_min   0x20000dac     0x4  Data  Gb  planner.o [1]
Planner::axis_steps_per_mm
                        0x20000d54    0x10  Data  Gb  planner.o [1]
Planner::block_buffer   0x2000e38c   0x540  Data  Gb  planner.o [1]
Planner::block_buffer_head
                        0x20000d50     0x1  Data  Gb  planner.o [1]
Planner::block_buffer_tail
                        0x20000d51     0x1  Data  Gb  planner.o [1]
Planner::blocks_queued()
                        0x0802a929    0x18  Code  Gb  planner.o [1]
Planner::buffer_line(float, float, float, float const &, float const &, unsigned char)
                        0x080269b9    0x1e  Code  Gb  Marlin_main.o [1]
Planner::buffer_line_kinematic(float const (&)[4], float const &, unsigned char)
                        0x08029a61    0x18  Code  Gb  Marlin_main.o [1]
Planner::buffer_segment(float const &, float const &, float const &, float const &, float const &, unsigned char)
                        0x0802b6e9   0x108  Code  Gb  planner.o [1]
Planner::calculate_trapezoid_for_block(block_t *, float const &, float const &)
                        0x0802a9d9   0x134  Code  Gb  planner.o [1]
Planner::calculate_volumetric_multipliers()
                        0x0802aef7    0x24  Code  Gb  planner.o [1]
Planner::check_axes_activity()
                        0x0802aeb3    0x44  Code  Gb  planner.o [1]
Planner::cutoff_long    0x20000db4     0x4  Data  Gb  planner.o [1]
Planner::discard_continued_block()
                        0x080335a5    0x38  Code  Gb  stepper.o [1]
Planner::discard_current_block()
                        0x08033589    0x1c  Code  Gb  stepper.o [1]
Planner::e_factor       0x20000d94     0x4  Data  Gb  planner.o [1]
Planner::estimate_acceleration_distance(float const &, float const &, float const &)
                        0x0803b66d    0x68  Code  Gb  planner.o [1]
Planner::filament_size  0x20001114     0x4  Data  Gb  planner.o [1]
Planner::flow_percentage
                        0x2000110c     0x2  Data  Gb  planner.o [1]
Planner::forward_pass()
                        0x0802ac87    0x3e  Code  Gb  planner.o [1]
Planner::forward_pass_kernel(block_t const *, block_t *)
                        0x0802ac01    0x86  Code  Gb  planner.o [1]
Planner::g_uc_extruder_last_move
                        0x20010cb8     0x1  Data  Gb  planner.o [1]
Planner::getHighESpeed()
                        0x0802ad99   0x11a  Code  Gb  planner.o [1]
Planner::get_current_block()
                        0x080335dd    0x2c  Code  Gb  stepper.o [1]
Planner::init()         0x0802a9ad    0x2a  Code  Gb  planner.o [1]
Planner::intersection_distance(float const &, float const &, float const &, float const &)
                        0x0803b6d5    0x80  Code  Gb  planner.o [1]
Planner::max_acceleration_mm_per_s2
                        0x20000d98    0x10  Data  Gb  planner.o [1]
Planner::max_acceleration_steps_per_s2
                        0x20000d74    0x10  Data  Gb  planner.o [1]
Planner::max_allowable_speed(float const &, float const &, float const &)
                        0x0803b755    0x34  Code  Gb  planner.o [1]
Planner::max_feedrate_mm_s
                        0x20010cbc    0x10  Data  Gb  planner.o [1]
Planner::max_jerk       0x20010cdc    0x10  Data  Gb  planner.o [1]
Planner::min_feedrate_mm_s
                        0x20010ccc     0x4  Data  Gb  planner.o [1]
Planner::min_segment_time_us
                        0x20011680     0x4  Data  Gb  planner.o [1]
Planner::min_travel_feedrate_mm_s
                        0x20010cec     0x4  Data  Gb  planner.o [1]
Planner::movesplanned()
                        0x0803b789    0x14  Code  Gb  planner.o [1]
Planner::next_block_index(signed char)
                        0x0803b7a5     0x8  Code  Gb  planner.o [1]
Planner::position       0x20000d84    0x10  Data  Gb  planner.o [1]
Planner::prev_block_index(signed char)
                        0x0803b79d     0x8  Code  Gb  planner.o [1]
Planner::previous_nominal_speed
                        0x20000dc8     0x4  Data  Gb  planner.o [1]
Planner::previous_speed
                        0x20000db8    0x10  Data  Gb  planner.o [1]
Planner::recalculate()  0x0802ad89    0x10  Code  Gb  planner.o [1]
Planner::recalculate_trapezoids()
                        0x0802accd    0xbc  Code  Gb  planner.o [1]
Planner::refresh_e_factor(unsigned char)
                        0x0803b32d    0x4c  Code  Gb  planner.o [1]
Planner::refresh_positioning()
                        0x0802b931    0x2e  Code  Gb  planner.o [1]
Planner::reset_acceleration_rates()
                        0x0802b8ef    0x3e  Code  Gb  planner.o [1]
Planner::retract_acceleration
                        0x20010cd4     0x4  Data  Gb  planner.o [1]
Planner::reverse_pass()
                        0x0802ab9d    0x5a  Code  Gb  planner.o [1]
Planner::reverse_pass_kernel(block_t *, block_t const *)
                        0x0802ab0d    0x90  Code  Gb  planner.o [1]
Planner::set_e_position_mm(float const &)
                        0x080436a9     0x8  Code  Gb  Marlin_main.o [1]
Planner::set_filament_size(unsigned char, float const &)
                        0x0803b2bd    0x30  Code  Gb  Marlin_main.o [1]
Planner::set_position_mm(AxisEnum, float const &)
                        0x0802b8a5    0x4a  Code  Gb  planner.o [1]
Planner::set_position_mm(float, float, float, float const &)
                        0x08025bf3    0x14  Code  Gb  Marlin_main.o [1]
Planner::set_position_mm_kinematic(float const (&)[4])
                        0x0802b879    0x28  Code  Gb  planner.o [1]
Planner::steps_to_mm    0x20000d64    0x10  Data  Gb  planner.o [1]
Planner::travel_acceleration
                        0x20010cd8     0x4  Data  Gb  planner.o [1]
Planner::volumetric_area_nominal
                        0x20011618     0x4  Data  Gb  planner.o [1]
Planner::volumetric_multiplier
                        0x20001110     0x4  Data  Gb  planner.o [1]
Print::Print()          0x0804886d     0x6  Code  Gb  USARTClass.o [1]
Print::Print() [subobject]
                        0x08048869     0x4  Code  Gb  USARTClass.o [1]
Print::print(char const *)
                        0x08025f6f     0x4  Code  Gb  Print.o [1]
Print::print(char)      0x08025f73     0x8  Code  Gb  Print.o [1]
Print::print(double, int)
                        0x08025fd5     0x4  Code  Gb  Print.o [1]
Print::print(int, int)  0x08025f7d     0x2  Code  Gb  Print.o [1]
Print::print(long, int)
                        0x08025f81    0x44  Code  Gb  Print.o [1]
Print::print(unsigned char, int)
                        0x08025f7b     0x2  Code  Gb  Print.o [1]
Print::print(unsigned int, int)
                        0x08025f7f     0x2  Code  Gb  Print.o [1]
Print::print(unsigned long, int)
                        0x08025fc5    0x10  Code  Gb  Print.o [1]
Print::printFloat(double, unsigned char)
                        0x08026019   0x14e  Code  Gb  Print.o [1]
Print::printNumber(unsigned long, unsigned char)
                        0x08025fd9    0x3e  Code  Gb  Print.o [1]
Print::write(char const *)
                        0x08032a9d    0x24  Code  Gb  Print.o [1]
Print::write(unsigned char const *, unsigned int)
                        0x08025f49    0x26  Code  Gb  Print.o [1]
RCC_AHB1PeriphClockCmd  0x08039079    0x18  Code  Gb  ili9488.o [1]
RCC_AHB3PeriphClockCmd  0x08039091    0x18  Code  Gb  ili9488.o [1]
RTC_Bcd2ToByte          0x08044fc3    0x12  Code  Gb  stm32f4xx_hal_rtc.o [1]
RTC_ByteToBcd2          0x08044fad    0x16  Code  Gb  stm32f4xx_hal_rtc.o [1]
RTC_EnterInitMode       0x08044f79    0x34  Code  Gb  stm32f4xx_hal_rtc.o [1]
Read_ID                 0x08039473    0x1e  Code  Gb  ili9488.o [1]
Region$$Table$$Base     0x08051344           --   Gb  - Linker created -
Region$$Table$$Limit    0x08051374           --   Gb  - Linker created -
ResetNextDrawWin        0x08039dab     0xa  Code  Lc  WM.o [5]
RingBuffer::RingBuffer()
                        0x08032991    0x16  Code  Gb  RingBuffer.o [1]
RingBuffer::store_char(unsigned char)
                        0x080329a7    0x22  Code  Gb  RingBuffer.o [1]
Running                 0x200010e0     0x1  Data  Gb  Marlin_main.o [1]
SDCardInfo              0x20010aa8    0x58  Data  Gb  sdio.o [1]
SDIO_DataConfig         0x0804cfa1    0x24  Code  Gb  stm32f4xx_ll_sdmmc.o [1]
SDIO_GetCommandResponse
                        0x0804cf87     0x6  Code  Gb  stm32f4xx_ll_sdmmc.o [1]
SDIO_GetPowerState      0x0804cf5b     0x8  Code  Gb  stm32f4xx_ll_sdmmc.o [1]
SDIO_GetResponse        0x0804cf8d    0x14  Code  Gb  stm32f4xx_ll_sdmmc.o [1]
SDIO_IRQHandler         0x08050ad5     0x6  Code  Gb  stm32f4xx_it.o [1]
SDIO_Init               0x0804cf25    0x28  Code  Gb  stm32f4xx_ll_sdmmc.o [1]
SDIO_PowerState_ON      0x0804cf53     0x8  Code  Gb  stm32f4xx_ll_sdmmc.o [1]
SDIO_ReadFIFO           0x0804cf4d     0x6  Code  Gb  stm32f4xx_ll_sdmmc.o [1]
SDIO_SendCommand        0x0804cf63    0x24  Code  Gb  stm32f4xx_ll_sdmmc.o [1]
SD_CmdError             0x0804caa9    0x38  Code  Lc  stm32f4xx_hal_sd.o [1]
SD_CmdResp1Error        0x0804cb39    0xe8  Code  Lc  stm32f4xx_hal_sd.o [1]
SD_CmdResp2Error        0x0804cc47    0x2e  Code  Lc  stm32f4xx_hal_sd.o [1]
SD_CmdResp3Error        0x0804cc25    0x22  Code  Lc  stm32f4xx_hal_sd.o [1]
SD_CmdResp6Error        0x0804cc75    0x6e  Code  Lc  stm32f4xx_hal_sd.o [1]
SD_CmdResp7Error        0x0804cae1    0x58  Code  Lc  stm32f4xx_hal_sd.o [1]
SD_DMA_RxCplt           0x0804c779    0x1a  Code  Lc  stm32f4xx_hal_sd.o [1]
SD_DMA_RxError          0x0804c795     0xc  Code  Lc  stm32f4xx_hal_sd.o [1]
SD_DMA_TxCplt           0x0804c7a1    0x1a  Code  Lc  stm32f4xx_hal_sd.o [1]
SD_DMA_TxError          0x0804c7bd     0xc  Code  Lc  stm32f4xx_hal_sd.o [1]
SD_Driver               0x08051580    0x14  Data  Gb  sd_diskio.o [1]
SD_FindSCR              0x0804cde3   0x136  Code  Lc  stm32f4xx_hal_sd.o [1]
SD_GetState             0x0804c7c9    0x1e  Code  Lc  stm32f4xx_hal_sd.o [1]
SD_Initialize_Cards     0x0804c7e7    0xea  Code  Lc  stm32f4xx_hal_sd.o [1]
SD_Path                 0x20011584     0x4  Data  Gb  fatfs.o [1]
SD_PowerON              0x0804c8ff   0x15c  Code  Lc  stm32f4xx_hal_sd.o [1]
SD_Select_Deselect      0x0804c8d1    0x2e  Code  Lc  stm32f4xx_hal_sd.o [1]
SD_SendStatus           0x0804ca61    0x48  Code  Lc  stm32f4xx_hal_sd.o [1]
SD_WideBus_Disable      0x0804cd63    0x80  Code  Lc  stm32f4xx_hal_sd.o [1]
SD_WideBus_Enable       0x0804cce3    0x80  Code  Lc  stm32f4xx_hal_sd.o [1]
SD_initialize           0x08050c95    0x1c  Code  Gb  sd_diskio.o [1]
SD_ioctl                0x08050d0d    0x56  Code  Gb  sd_diskio.o [1]
SD_read                 0x08050ccd    0x20  Code  Gb  sd_diskio.o [1]
SD_status               0x08050cb1    0x1c  Code  Gb  sd_diskio.o [1]
SD_write                0x08050ced    0x20  Code  Gb  sd_diskio.o [1]
SHT$$INIT_ARRAY$$Base   0x08051768           --   Gb  - Linker created -
SHT$$INIT_ARRAY$$Limit  0x08051778           --   Gb  - Linker created -
SHT$$PREINIT_ARRAY$$Base
                        0x08051768           --   Gb  - Linker created -
SHT$$PREINIT_ARRAY$$Limit
                        0x08051768           --   Gb  - Linker created -
SPI1_IRQHandler         0x08050ac9     0x6  Code  Gb  stm32f4xx_it.o [1]
SPI1_ReadWriteByte      0x0802fb01    0x30  Code  Gb  spi.o [1]
SPI1_SetSpeed           0x0802fae7    0x1a  Code  Gb  spi.o [1]
SPI2_IRQHandler         0x08050acf     0x6  Code  Gb  stm32f4xx_it.o [1]
SPI2_ReadWrite2Bytes    0x0802fb85    0x36  Code  Gb  spi.o [1]
SPI2_ReadWriteByte      0x0802fb31    0x30  Code  Gb  spi.o [1]
SPI_CheckFlag_BSY       0x080301e9    0x26  Code  Lc  stm32f4xx_hal_spi.o [1]
SPI_Cmd                 0x0803d711    0x18  Code  Gb  stm32f4xx_spi.o [1]
SPI_DMAAbortOnError     0x08030141    0x10  Code  Lc  stm32f4xx_hal_spi.o [1]
SPI_DMAError            0x0803011d    0x22  Code  Lc  stm32f4xx_hal_spi.o [1]
SPI_DMAHalfReceiveCplt  0x08030105     0xa  Code  Lc  stm32f4xx_hal_spi.o [1]
SPI_DMAHalfTransmitCplt
                        0x080300f9     0xa  Code  Lc  stm32f4xx_hal_spi.o [1]
SPI_DMAHalfTransmitReceiveCplt
                        0x08030111     0xa  Code  Lc  stm32f4xx_hal_spi.o [1]
SPI_DMAReceiveCplt      0x08030051    0x54  Code  Lc  stm32f4xx_hal_spi.o [1]
SPI_DMATransmitCplt     0x0802ffe9    0x68  Code  Lc  stm32f4xx_hal_spi.o [1]
SPI_DMATransmitReceiveCplt
                        0x080300a5    0x54  Code  Lc  stm32f4xx_hal_spi.o [1]
SPI_FLASH_BufferRead    0x080408d7    0x60  Code  Gb  spi_flash.o [1]
SPI_FLASH_SectorErase   0x080408a1    0x36  Code  Gb  spi_flash.o [1]
SPI_FLASH_SendByte      0x08040937    0x30  Code  Gb  spi_flash.o [1]
SPI_FLASH_WaitForWriteEnd
                        0x0804097b    0x1e  Code  Gb  spi_flash.o [1]
SPI_FLASH_WriteEnable   0x08040967    0x14  Code  Gb  spi_flash.o [1]
SPI_I2S_GetFlagStatus   0x0803d733     0xe  Code  Gb  stm32f4xx_spi.o [1]
SPI_I2S_ReceiveData     0x0803d729     0x6  Code  Gb  stm32f4xx_spi.o [1]
SPI_I2S_SendData        0x0803d72f     0x4  Code  Gb  stm32f4xx_spi.o [1]
SPI_WaitFlagStateUntilTimeout
                        0x08030151    0x98  Code  Lc  stm32f4xx_hal_spi.o [1]
SSD2828::SSD2828()      0x0802f359     0x2  Code  Gb  ssd2828.o [1]
SSD2828::init()         0x0802f7d7    0xae  Code  Gb  ssd2828.o [1]
SSD2828::ls055r1sx04_cfg(unsigned char)
                        0x0802f605    0xca  Code  Gb  ssd2828.o [1]
SSD2828::read_data(unsigned char, unsigned char)
                        0x0802f35b    0x64  Code  Gb  ssd2828.o [1]
SSD2828::read_id(unsigned char)
                        0x0802f471     0x4  Code  Gb  ssd2828.o [1]
SSD2828::sleep_in()     0x0802f721    0x64  Code  Gb  ssd2828.o [1]
SSD2828::sleep_out()    0x0802f785    0x52  Code  Gb  ssd2828.o [1]
SSD2828::ssd_cfg(unsigned char)
                        0x0802f475   0x100  Code  Gb  ssd2828.o [1]
SSD2828::write_DCS(unsigned char, unsigned char, unsigned char, unsigned char)
                        0x0802f5b3    0x52  Code  Gb  ssd2828.o [1]
SSD2828::write_DCS_sleep(unsigned char, unsigned char)
                        0x0802f6cf    0x52  Code  Gb  ssd2828.o [1]
SSD2828::write_Generic(unsigned char, unsigned char, unsigned char)
                        0x0802f575    0x3e  Code  Gb  ssd2828.o [1]
SSD2828::write_byte(unsigned char, unsigned char, unsigned char)
                        0x0802f41d    0x54  Code  Gb  ssd2828.o [1]
SSD2828::write_data(unsigned char, unsigned char, unsigned short)
                        0x0802f3bf    0x5e  Code  Gb  ssd2828.o [1]
SVC_Handler             0x08050a37     0x2  Code  Gb  stm32f4xx_it.o [1]
SdBaseFile::SdBaseFile()
                        0x080304fd     0x8  Code  Gb  cardreader.o [1]
Serial1                 0x20010128    0x30  Data  Gb  serial.o [1]
Serial6                 0x200100f8    0x30  Data  Gb  serial.o [1]
Stat                    0x20001138     0x1  Data  Lc  sd_diskio.o [1]
Stepper::OCR1A_nominal  0x20000eaa     0x2  Data  Gb  stepper.o [1]
Stepper::StepperHandler()
                        0x08026469   0x3b2  Code  Gb  stepper.o [1]
Stepper::acc_step_rate  0x20000eac     0x2  Data  Gb  stepper.o [1]
Stepper::acceleration_time
                        0x20000ed8     0x4  Data  Gb  stepper.o [1]
Stepper::calc_timer_interval(unsigned short)
                        0x08033679    0x50  Code  Gb  stepper.o [1]
Stepper::cleaning_buffer_counter
                        0x20000ea8     0x2  Data  Gb  stepper.o [1]
Stepper::count_direction
                        0x20000ea0     0x4  Data  Gb  stepper.o [1]
Stepper::count_position
                        0x20000eb0    0x10  Data  Gb  stepper.o [1]
Stepper::counter_E      0x20000ed0     0x4  Data  Gb  stepper.o [1]
Stepper::counter_X      0x20000ec4     0x4  Data  Gb  stepper.o [1]
Stepper::counter_Y      0x20000ec8     0x4  Data  Gb  stepper.o [1]
Stepper::counter_Z      0x20000ecc     0x4  Data  Gb  stepper.o [1]
Stepper::current_block  0x20000ec0     0x4  Data  Gb  stepper.o [1]
Stepper::deceleration_time
                        0x20000edc     0x4  Data  Gb  stepper.o [1]
Stepper::endstop_triggered(AxisEnum)
                        0x08026923    0x18  Code  Gb  stepper.o [1]
Stepper::endstops_trigsteps
                        0x20000ee0     0xc  Data  Gb  stepper.o [1]
Stepper::finish_and_disable()
                        0x080268e7     0xe  Code  Gb  stepper.o [1]
Stepper::get_axis_position_mm(AxisEnum)
                        0x080268c7    0x20  Code  Gb  stepper.o [1]
Stepper::init()         0x0802681d    0x44  Code  Gb  stepper.o [1]
Stepper::kill_current_block()
                        0x080336d5    0x10  Code  Gb  stepper.o [1]
Stepper::last_direction_bits
                        0x20000ea4     0x1  Data  Gb  stepper.o [1]
Stepper::motor_direction(AxisEnum)
                        0x0803356d    0x1c  Code  Gb  stepper.o [1]
Stepper::position(AxisEnum)
                        0x080268b9     0xe  Code  Gb  stepper.o [1]
Stepper::quick_stop()   0x080268f5    0x2e  Code  Gb  stepper.o [1]
Stepper::report_positions()
                        0x0802693d    0x2c  Code  Gb  stepper.o [1]
Stepper::set_directions()
                        0x08026419    0x4c  Code  Gb  stepper.o [1]
Stepper::set_position(AxisEnum const &, long const &)
                        0x080268a5    0x14  Code  Gb  stepper.o [1]
Stepper::set_position(long const &, long const &, long const &, long const &)
                        0x0802687d    0x26  Code  Gb  stepper.o [1]
Stepper::step_events_completed
                        0x20000ed4     0x4  Data  Gb  stepper.o [1]
Stepper::step_loops     0x20000ea5     0x1  Data  Gb  stepper.o [1]
Stepper::step_loops_nominal
                        0x20000ea6     0x1  Data  Gb  stepper.o [1]
Stepper::synchronize()  0x08026861    0x1c  Code  Gb  stepper.o [1]
Stepper::trapezoid_generator_reset()
                        0x08033609    0x70  Code  Gb  stepper.o [1]
Stepper::trapezoid_generator_reset()::last_extruder
                        0x20001139     0x1  Data  Gb  stepper.o [1]
Stepper::triggered_position_mm(AxisEnum)
                        0x0803cea5    0x28  Code  Gb  endstops.o [1]
Stepper::wake_up()      0x08026411     0x8  Code  Gb  stepper.o [1]
Stopped_gcode_LastN     0x200010e8     0x4  Data  Lc  Marlin_main.o [1]
Stopwatch::Stopwatch()  0x08025b19     0xc  Code  Gb  stopwatch.o [1]
Stopwatch::duration()   0x08025bcd    0x26  Code  Gb  stopwatch.o [1]
Stopwatch::isPaused()   0x08025bbd    0x10  Code  Gb  stopwatch.o [1]
Stopwatch::isRunning()  0x08025bad    0x10  Code  Gb  stopwatch.o [1]
Stopwatch::pause()      0x08025b4d    0x1e  Code  Gb  stopwatch.o [1]
Stopwatch::reset()      0x08025ba1     0xc  Code  Gb  stopwatch.o [1]
Stopwatch::start()      0x08025b6b    0x36  Code  Gb  stopwatch.o [1]
Stopwatch::stop()       0x08025b25    0x28  Code  Gb  stopwatch.o [1]
Stream::Stream()        0x08048039    0x12  Code  Gb  USARTClass.o [1]
Stream::Stream() [subobject]
                        0x08046613     0x4  Code  Gb  USARTClass.o [1]
SysTick_Config          0x080337d3    0x28  Code  Lc  stm32f4xx_hal_cortex.o [1]
SysTick_Handler         0x08050a3d    0x44  Code  Gb  stm32f4xx_it.o [1]
SysTick_Handler_User()  0x080216f1    0x9a  Code  Gb  Marlin_main.o [1]
SystemClock_Config()    0x0802d433    0xc8  Code  Gb  main.o [1]
SystemCoreClock         0x20001128     0x4  Data  Gb  system_stm32f4xx.o [1]
SystemInit              0x08051185    0x3a  Code  Gb  system_stm32f4xx.o [1]
Systom                  0x20010c7e     0x2  Data  Lc  draw_info.o [1]
Systom_val              0x20010c82     0x2  Data  Lc  draw_info.o [1]
TEST_FIL                0x2000913c   0x22c  Data  Gb  pic.o [1]
TEST_FIL1               0x20000890   0x22c  Data  Gb  draw_ui.o [1]
TEXT_CreateEx           0x08038d8f    0x72  Code  Gb  TEXT.o [5]
TEXT_SetBkColor         0x0803ac55    0x2e  Code  Gb  TEXT_SetBkColor.o [5]
TEXT_SetDefaultFont     0x08038e01     0x6  Code  Gb  TEXT.o [5]
TEXT_SetText            0x0803b071    0x26  Code  Gb  TEXT_SetText.o [5]
TEXT_SetTextAlign       0x08043b85    0x1c  Code  Gb  TEXT_SetTextAlign.o [5]
TEXT_SetTextColor       0x0803b055    0x1c  Code  Gb  TEXT_SetTextColor.o [5]
TFT_Type_text           0x20011444     0x2  Data  Lc  draw_about.o [1]
TFT_Version_text        0x20011442     0x2  Data  Lc  draw_about.o [1]
TFT_screen              0x2001154c    0x14  Data  Gb  draw_ui.o [1]
TIM2_IRQHandler         0x08050aa1    0x10  Code  Gb  stm32f4xx_it.o [1]
TIM3_IRQHandler         0x08050ab1    0x12  Code  Gb  stm32f4xx_it.o [1]
TIM4_IRQHandler         0x08050ac3     0x6  Code  Gb  stm32f4xx_it.o [1]
TIM5_IRQHandler         0x08050adb     0x6  Code  Gb  stm32f4xx_it.o [1]
TIM_Base_SetConfig      0x0803326f    0xcc  Code  Gb  stm32f4xx_hal_tim.o [1]
TIM_CCxChannelCmd       0x080333a1    0x1a  Code  Gb  stm32f4xx_hal_tim.o [1]
TIM_ETR_SetConfig       0x08033557    0x16  Code  Lc  stm32f4xx_hal_tim.o [1]
TIM_ITRx_SetConfig      0x08033547    0x10  Code  Lc  stm32f4xx_hal_tim.o [1]
TIM_OC1_SetConfig       0x080333bd    0x5c  Code  Lc  stm32f4xx_hal_tim.o [1]
TIM_OC2_SetConfig       0x0803333d    0x64  Code  Gb  stm32f4xx_hal_tim.o [1]
TIM_OC3_SetConfig       0x08033419    0x62  Code  Lc  stm32f4xx_hal_tim.o [1]
TIM_OC4_SetConfig       0x0803347b    0x52  Code  Lc  stm32f4xx_hal_tim.o [1]
TIM_TI1_ConfigInputStage
                        0x080334fd    0x24  Code  Lc  stm32f4xx_hal_tim.o [1]
TIM_TI2_ConfigInputStage
                        0x08033521    0x26  Code  Lc  stm32f4xx_hal_tim.o [1]
TOUCH_PressValid        0x08044c11    0x1c  Code  Lc  mks_touch_screen.o [1]
Temperature::Kd         0x20000e74     0x4  Data  Gb  temperature.o [1]
Temperature::Ki         0x20000e70     0x4  Data  Gb  temperature.o [1]
Temperature::Kp         0x20000e6c     0x4  Data  Gb  temperature.o [1]
Temperature::PID_autotune(float, signed char, signed char, bool)
                        0x08029a79   0x420  Code  Gb  temperature.o [1]
Temperature::_temp_error(signed char, char const *, char const *)
                        0x08029e99    0x66  Code  Gb  temperature.o [1]
Temperature::analog2temp(int, unsigned char)
                        0x0802a125    0xc6  Code  Gb  temperature.o [1]
Temperature::current_temperature
                        0x20000e5c     0x4  Data  Gb  temperature.o [1]
Temperature::current_temperature_bed_raw
                        0x20000e68     0x4  Data  Gb  temperature.o [1]
Temperature::current_temperature_raw
                        0x20000e60     0x4  Data  Gb  temperature.o [1]
Temperature::dTerm      0x20000e8c     0x4  Data  Gb  temperature.o [1]
Temperature::degHotend(unsigned char)
                        0x0803b1d9     0xc  Code  Gb  temperature.o [1]
Temperature::degTargetHotend(unsigned char)
                        0x0803b1fd    0x10  Code  Gb  temperature.o [1]
Temperature::disable_all_heaters()
                        0x0802a355    0x32  Code  Gb  temperature.o [1]
Temperature::get_pid_output(signed char)
                        0x08029f01   0x134  Code  Gb  temperature.o [1]
Temperature::iTerm      0x20000e88     0x4  Data  Gb  temperature.o [1]
Temperature::in_temp_isr
                        0x20000e48     0x1  Data  Gb  temperature.o [1]
Temperature::init()     0x0802a219    0x1a  Code  Gb  temperature.o [1]
Temperature::isCoolingHotend(unsigned char)
                        0x0803b20d    0x2c  Code  Gb  Marlin_main.o [1]
Temperature::manage_heater()
                        0x0802a035    0xf0  Code  Gb  temperature.o [1]
Temperature::maxttemp   0x20000e54     0x2  Data  Gb  temperature.o [1]
Temperature::maxttemp_raw
                        0x20000e58     0x2  Data  Gb  temperature.o [1]
Temperature::minttemp   0x20000e5a     0x2  Data  Gb  temperature.o [1]
Temperature::minttemp_raw
                        0x20000e56     0x2  Data  Gb  temperature.o [1]
Temperature::next_bed_check_ms
                        0x20000e94     0x4  Data  Gb  temperature.o [1]
Temperature::pTerm      0x20000e84     0x4  Data  Gb  temperature.o [1]
Temperature::pid_error  0x20000e90     0x4  Data  Gb  temperature.o [1]
Temperature::pid_reset  0x20000e45     0x1  Data  Gb  temperature.o [1]
Temperature::raw_temp_bed_value
                        0x20000e52     0x2  Data  Gb  temperature.o [1]
Temperature::raw_temp_value
                        0x20000e9a     0x2  Data  Gb  temperature.o [1]
Temperature::setTargetBed(float)
                        0x0803b1fb     0x2  Code  Gb  temperature.o [1]
Temperature::setTargetHotend(float, unsigned char)
                        0x0803b1c5    0x14  Code  Gb  temperature.o [1]
Temperature::soft_pwm_amount
                        0x20000e46     0x1  Data  Gb  temperature.o [1]
Temperature::soft_pwm_amount_bed
                        0x20000e47     0x1  Data  Gb  temperature.o [1]
Temperature::start_watching_heater(unsigned char)
                        0x0802a233    0x5a  Code  Gb  temperature.o [1]
Temperature::target_temperature
                        0x20000e64     0x4  Data  Gb  temperature.o [1]
Temperature::temp_dState
                        0x20000e80     0x4  Data  Gb  temperature.o [1]
Temperature::temp_iState
                        0x20000e7c     0x4  Data  Gb  temperature.o [1]
Temperature::temp_meas_ready
                        0x20000e44     0x1  Data  Gb  temperature.o [1]
Temperature::thermal_runaway_protection(Temperature::TRState *, unsigned long *, float, float, signed char, unsigned short, unsigned short)
                        0x0802a29d    0xb6  Code  Gb  temperature.o [1]
Temperature::thermal_runaway_state_machine
                        0x20000e98     0x1  Data  Gb  temperature.o [1]
Temperature::thermal_runaway_timer
                        0x20000e9c     0x4  Data  Gb  temperature.o [1]
Temperature::updatePID()
                        0x0803b379     0x2  Code  Gb  temperature.o [1]
Temperature::updateTemperaturesFromRawValues()
                        0x0802a1ed    0x2c  Code  Gb  temperature.o [1]
Temperature::watch_heater_next_ms
                        0x20000e78     0x4  Data  Gb  temperature.o [1]
Temperature::watch_target_temp
                        0x20000e50     0x2  Data  Gb  temperature.o [1]
TimeIncrease            0x20011578     0x4  Data  Gb  Marlin_main.o [1]
To_pre_view             0x20000888     0x4  Data  Gb  draw_ui.o [1]
UART_SetConfig          0x08045039   0x284  Code  Lc  stm32f4xx_hal_uart.o [1]
USART6_IRQHandler       0x08050b0d     0x6  Code  Gb  stm32f4xx_it.o [1]
USARTClass::IrqHandler()
                        0x08025eb7    0x88  Code  Gb  USARTClass.o [1]
USARTClass::USARTClass(USART_TypeDef *, IRQn_Type, unsigned int, RingBuffer *)
                        0x08025e0b    0x22  Code  Gb  USARTClass.o [1]
USARTClass::available()
                        0x08025e51    0x1a  Code  Gb  USARTClass.o [1]
USARTClass::begin(unsigned int)
                        0x08025e2d    0x24  Code  Gb  USARTClass.o [1]
USARTClass::flush()     0x08025e95     0x8  Code  Gb  USARTClass.o [1]
USARTClass::read()      0x08025e6b    0x2a  Code  Gb  USARTClass.o [1]
USARTClass::write(unsigned char)
                        0x08025e9d    0x1a  Code  Gb  USARTClass.o [1]
USART_ClearFlag         0x08032a3d     0x8  Code  Gb  stm32f4xx_usart.o [1]
USART_ClearITPendingBit
                        0x08032a8d    0x10  Code  Gb  stm32f4xx_usart.o [1]
USART_Cmd               0x080329cd    0x18  Code  Gb  stm32f4xx_usart.o [1]
USART_GetFlagStatus     0x08032a2f     0xe  Code  Gb  stm32f4xx_usart.o [1]
USART_GetITStatus       0x08032a45    0x48  Code  Gb  stm32f4xx_usart.o [1]
USART_ITConfig          0x080329f5    0x3a  Code  Gb  stm32f4xx_usart.o [1]
USART_ReceiveData       0x080329ed     0x8  Code  Gb  stm32f4xx_usart.o [1]
USART_SendData          0x080329e5     0x8  Code  Gb  stm32f4xx_usart.o [1]
USBH_AllocPipe          0x080460f1    0x22  Code  Gb  usbh_pipes.o [1]
USBH_BulkReceiveData    0x08048019    0x20  Code  Gb  usbh_ioreq.o [1]
USBH_BulkSendData       0x08047fed    0x2c  Code  Gb  usbh_ioreq.o [1]
USBH_ClosePipe          0x080460e7     0xa  Code  Gb  usbh_pipes.o [1]
USBH_ClrFeature         0x08046249    0x20  Code  Gb  usbh_ctlreq.o [1]
USBH_CtlReceiveData     0x08047fcf    0x1e  Code  Gb  usbh_ioreq.o [1]
USBH_CtlReq             0x080463ff    0x42  Code  Gb  usbh_ctlreq.o [1]
USBH_CtlSendData        0x08047fa3    0x2c  Code  Gb  usbh_ioreq.o [1]
USBH_CtlSendSetup       0x08047f81    0x22  Code  Gb  usbh_ioreq.o [1]
USBH_DeInit             0x08042bed    0x22  Code  Gb  usbh_core.o [1]
USBH_Delay              0x080460c9     0x4  Code  Gb  usbh_conf.o [1]
USBH_Driver             0x08051594    0x14  Data  Gb  usbh_diskio.o [1]
USBH_FindInterface      0x08042ca1    0x48  Code  Gb  usbh_core.o [1]
USBH_FreePipe           0x08046113    0x18  Code  Gb  usbh_pipes.o [1]
USBH_GetDescriptor      0x080461d3    0x3a  Code  Gb  usbh_ctlreq.o [1]
USBH_GetFreePipe        0x0804612b    0x24  Code  Lc  usbh_pipes.o [1]
USBH_GetNextDesc        0x080463ef    0x10  Code  Gb  usbh_ctlreq.o [1]
USBH_Get_CfgDesc        0x0804617d    0x2c  Code  Gb  usbh_ctlreq.o [1]
USBH_Get_DevDesc        0x08046151    0x2c  Code  Gb  usbh_ctlreq.o [1]
USBH_Get_StringDesc     0x080461a9    0x2a  Code  Gb  usbh_ctlreq.o [1]
USBH_HandleControl      0x08046445   0x1ce  Code  Lc  usbh_ctlreq.o [1]
USBH_HandleEnum         0x08042ebd   0x170  Code  Lc  usbh_core.o [1]
USBH_HandleSof          0x0804303d    0x16  Code  Lc  usbh_core.o [1]
USBH_Init               0x08042bb9    0x34  Code  Gb  usbh_core.o [1]
USBH_LL_ClosePipe       0x08046045     0xe  Code  Gb  usbh_conf.o [1]
USBH_LL_Connect         0x08043053    0x2e  Code  Gb  usbh_core.o [1]
USBH_LL_Disconnect      0x08043081    0x3a  Code  Gb  usbh_core.o [1]
USBH_LL_DriverVBUS      0x0804607b     0xc  Code  Gb  usbh_conf.o [1]
USBH_LL_GetLastXferSize
                        0x0804601f     0x8  Code  Gb  usbh_conf.o [1]
USBH_LL_GetSpeed        0x08045ff1    0x20  Code  Gb  usbh_conf.o [1]
USBH_LL_GetToggle       0x080460a9    0x20  Code  Gb  usbh_conf.o [1]
USBH_LL_GetURBState     0x08046073     0x8  Code  Gb  usbh_conf.o [1]
USBH_LL_IncTimer        0x08043033     0xa  Code  Gb  usbh_core.o [1]
USBH_LL_Init            0x08045f77    0x50  Code  Gb  usbh_conf.o [1]
USBH_LL_OpenPipe        0x08046027    0x1e  Code  Gb  usbh_conf.o [1]
USBH_LL_ResetPort       0x08046011     0xe  Code  Gb  usbh_conf.o [1]
USBH_LL_SetTimer        0x0804302d     0x6  Code  Gb  usbh_core.o [1]
USBH_LL_SetToggle       0x08046087    0x22  Code  Gb  usbh_conf.o [1]
USBH_LL_Start           0x08045fd5     0xe  Code  Gb  usbh_conf.o [1]
USBH_LL_Stop            0x08045fe3     0xe  Code  Gb  usbh_conf.o [1]
USBH_LL_SubmitURB       0x08046053    0x20  Code  Gb  usbh_conf.o [1]
USBH_MSC_BOT_Abort      0x0804f825    0x24  Code  Lc  usbh_msc_bot.o [1]
USBH_MSC_BOT_Init       0x0804f5a9    0x20  Code  Gb  usbh_msc_bot.o [1]
USBH_MSC_BOT_Process    0x0804f5c9   0x25c  Code  Gb  usbh_msc_bot.o [1]
USBH_MSC_BOT_REQ_GetMaxLUN
                        0x0804f593    0x16  Code  Gb  usbh_msc_bot.o [1]
USBH_MSC_BOT_REQ_Reset  0x0804f57d    0x16  Code  Gb  usbh_msc_bot.o [1]
USBH_MSC_ClassRequest   0x0804f10d    0x6a  Code  Lc  usbh_msc.o [1]
USBH_MSC_DecodeCSW      0x0804f849    0x48  Code  Lc  usbh_msc_bot.o [1]
USBH_MSC_GetLUNInfo     0x0804f447    0x2a  Code  Gb  usbh_msc.o [1]
USBH_MSC_InterfaceDeInit
                        0x0804f0b9    0x54  Code  Lc  usbh_msc.o [1]
USBH_MSC_InterfaceInit  0x0804efa5   0x114  Code  Lc  usbh_msc.o [1]
USBH_MSC_Process        0x0804f179   0x226  Code  Lc  usbh_msc.o [1]
USBH_MSC_RdWrProcess    0x0804f3a3    0x80  Code  Lc  usbh_msc.o [1]
USBH_MSC_Read           0x0804f471    0x86  Code  Gb  usbh_msc.o [1]
USBH_MSC_SCSI_Inquiry   0x0804f969    0xce  Code  Gb  usbh_msc_scsi.o [1]
USBH_MSC_SCSI_Read      0x0804fb3b    0x7c  Code  Gb  usbh_msc_scsi.o [1]
USBH_MSC_SCSI_ReadCapacity
                        0x0804f8ed    0x7c  Code  Gb  usbh_msc_scsi.o [1]
USBH_MSC_SCSI_RequestSense
                        0x0804fa37    0x88  Code  Gb  usbh_msc_scsi.o [1]
USBH_MSC_SCSI_TestUnitReady
                        0x0804f89d    0x50  Code  Gb  usbh_msc_scsi.o [1]
USBH_MSC_SCSI_Write     0x0804fabf    0x7c  Code  Gb  usbh_msc_scsi.o [1]
USBH_MSC_SOFProcess     0x0804f39f     0x4  Code  Lc  usbh_msc.o [1]
USBH_MSC_UnitIsReady    0x0804f423    0x24  Code  Gb  usbh_msc.o [1]
USBH_MSC_Write          0x0804f4f7    0x86  Code  Gb  usbh_msc.o [1]
USBH_OpenPipe           0x080460cd    0x1a  Code  Gb  usbh_pipes.o [1]
USBH_ParseCfgDesc       0x080462c3    0xb4  Code  Lc  usbh_ctlreq.o [1]
USBH_ParseDevDesc       0x08046269    0x5a  Code  Lc  usbh_ctlreq.o [1]
USBH_ParseEPDesc        0x0804639d    0x20  Code  Lc  usbh_ctlreq.o [1]
USBH_ParseInterfaceDesc
                        0x08046377    0x26  Code  Lc  usbh_ctlreq.o [1]
USBH_ParseStringDesc    0x080463bd    0x32  Code  Lc  usbh_ctlreq.o [1]
USBH_Path               0x20011588     0x4  Data  Gb  fatfs.o [1]
USBH_Process            0x08042d21   0x19c  Code  Gb  usbh_core.o [1]
USBH_RegisterClass      0x08042c5f    0x2c  Code  Gb  usbh_core.o [1]
USBH_SelectInterface    0x08042c8b    0x16  Code  Gb  usbh_core.o [1]
USBH_SetAddress         0x0804620d    0x1e  Code  Gb  usbh_ctlreq.o [1]
USBH_SetCfg             0x0804622b    0x1e  Code  Gb  usbh_ctlreq.o [1]
USBH_Start              0x08042ce9    0x14  Code  Gb  usbh_core.o [1]
USBH_Stop               0x08042cfd    0x24  Code  Gb  usbh_core.o [1]
USBH_UserProcess        0x080305cd    0x24  Code  Lc  usb_host.o [1]
USBH_initialize         0x08050b79     0x4  Code  Gb  usbh_diskio.o [1]
USBH_ioctl              0x08050c2d    0x62  Code  Gb  usbh_diskio.o [1]
USBH_msc                0x20000ff0    0x20  Data  Gb  usbh_msc.o [1]
USBH_read               0x08050b8f    0x4a  Code  Gb  usbh_diskio.o [1]
USBH_status             0x08050b7d    0x12  Code  Gb  usbh_diskio.o [1]
USBH_write              0x08050bd9    0x54  Code  Gb  usbh_diskio.o [1]
USB_CoreInit            0x080481b1    0x66  Code  Gb  stm32f4xx_ll_usb.o [1]
USB_CoreReset           0x080482f7    0x30  Code  Lc  stm32f4xx_ll_usb.o [1]
USB_DisableGlobalInt    0x08048223     0xc  Code  Gb  stm32f4xx_ll_usb.o [1]
USB_DoPing              0x080487a7    0x1c  Code  Gb  stm32f4xx_ll_usb.o [1]
USB_DriveVbus           0x0804846b    0x3c  Code  Gb  stm32f4xx_ll_usb.o [1]
USB_EnableGlobalInt     0x08048217     0xc  Code  Gb  stm32f4xx_ll_usb.o [1]
USB_FlushRxFifo         0x0804827f    0x1e  Code  Gb  stm32f4xx_ll_usb.o [1]
USB_FlushTxFifo         0x0804825d    0x22  Code  Gb  stm32f4xx_ll_usb.o [1]
USB_GetCurrentFrame     0x080484bb     0xa  Code  Gb  stm32f4xx_ll_usb.o [1]
USB_GetHostSpeed        0x080484a7    0x14  Code  Gb  stm32f4xx_ll_usb.o [1]
USB_GetMode             0x080482ef     0x8  Code  Gb  stm32f4xx_ll_usb.o [1]
USB_HC_Halt             0x0804870f    0x98  Code  Gb  stm32f4xx_ll_usb.o [1]
USB_HC_Init             0x080484c5    0xf2  Code  Gb  stm32f4xx_ll_usb.o [1]
USB_HC_ReadInterrupt    0x08048705     0xa  Code  Gb  stm32f4xx_ll_usb.o [1]
USB_HC_StartXfer        0x080485b7   0x14e  Code  Gb  stm32f4xx_ll_usb.o [1]
USB_HostInit            0x08048327    0xe2  Code  Gb  stm32f4xx_ll_usb.o [1]
USB_InitFSLSPClkSel     0x0804840d    0x30  Code  Gb  stm32f4xx_ll_usb.o [1]
USB_ReadInterrupts      0x080482e7     0x8  Code  Gb  stm32f4xx_ll_usb.o [1]
USB_ReadPacket          0x080482c7    0x20  Code  Gb  stm32f4xx_ll_usb.o [1]
USB_ResetPort           0x0804843d    0x2e  Code  Gb  stm32f4xx_ll_usb.o [1]
USB_SetCurrentMode      0x0804822f    0x2e  Code  Gb  stm32f4xx_ll_usb.o [1]
USB_StopHost            0x080487ed    0x7c  Code  Gb  stm32f4xx_ll_usb.o [1]
USB_WritePacket         0x0804829d    0x2a  Code  Gb  stm32f4xx_ll_usb.o [1]
UsageFault_Handler      0x08050a35     0x2  Code  Gb  stm32f4xx_it.o [1]
Virtual function table for USARTClass
                        0x080512fc    0x24  Data  Gb  USARTClass.o [1]
WIDGET_AndState         0x08038f25    0x26  Code  Gb  WIDGET.o [5]
WIDGET_EFFECT_3D_DrawUp
                        0x08050969    0x12  Code  Gb  WIDGET_Effect_3D.o [5]
WIDGET_Effect_3D        0x0805097c    0x18  Data  Gb  WIDGET_Effect_3D.o [5]
WIDGET_Effect_None      0x0805132c    0x18  Data  Gb  WIDGET_Effect_None.o [5]
WIDGET_Effect_Simple    0x08051068    0x18  Data  Gb  WIDGET_Effect_Simple.o [5]
WIDGET_HandleActive     0x08038f57    0xd8  Code  Gb  WIDGET.o [5]
WIDGET_OrState          0x08038efd    0x28  Code  Gb  WIDGET.o [5]
WIDGET_SetDefaultEffect
                        0x0803906b     0xa  Code  Gb  WIDGET.o [5]
WIDGET_SetEffect        0x08044973    0x18  Code  Gb  WIDGET_SetEffect.o [5]
WIDGET_SetState         0x08038edf    0x1e  Code  Gb  WIDGET.o [5]
WIDGET__EFFECT_DrawDownRect
                        0x0803902f    0x3c  Code  Gb  WIDGET.o [5]
WIDGET__GetInsideRect   0x08038ec5    0x1a  Code  Gb  WIDGET.o [5]
WIDGET__Init            0x08038f4b     0xc  Code  Gb  WIDGET.o [5]
WIDGET__RotateRect90    0x08038e9d    0x28  Code  Gb  WIDGET.o [5]
WM_Activate             0x0803aa25     0x8  Code  Gb  WM.o [5]
WM_BringToBottom        0x08044745    0x3e  Code  Gb  WM_BringToBottom.o [5]
WM_BringToTop           0x0804434d     0x2  Code  Gb  WM_BringToTop.o [5]
WM_ClrHasTrans          0x08043e97    0x2c  Code  Gb  WM_SetTrans.o [5]
WM_CreateWindow         0x0803a3d9    0x1a  Code  Gb  WM.o [5]
WM_CreateWindowAsChild  0x0803a2bf   0x11a  Code  Gb  WM.o [5]
WM_DefaultProc          0x0803aa35    0x58  Code  Gb  WM.o [5]
WM_DeleteWindow         0x0803a3f3    0x90  Code  Gb  WM.o [5]
WM_Exec                 0x0803a9d1    0x14  Code  Gb  WM.o [5]
WM_Exec1                0x0803a993    0x3e  Code  Gb  WM.o [5]
WM_ForEachDesc          0x08047125     0x4  Code  Gb  WM_ForEachDesc.o [5]
WM_GetClientRect        0x08043f11    0x16  Code  Gb  WM_GetClientRect.o [5]
WM_GetClientRectEx      0x08043ef5    0x1c  Code  Gb  WM_GetClientRect.o [5]
WM_GetDesktopWindow     0x080436d1     0xc  Code  Gb  WM_GetDesktopWindow.o [5]
WM_GetHasTrans          0x08043ec9    0x1a  Code  Gb  WM_SetTrans.o [5]
WM_GetParent            0x08047113    0x12  Code  Gb  WM_GetParent.o [5]
WM_HandlePID            0x0805023f   0x140  Code  Gb  WMTouch.o [5]
WM_Init                 0x0803aa8d    0x5c  Code  Gb  WM.o [5]
WM_InvalidateArea       0x0803a299    0x26  Code  Gb  WM.o [5]
WM_InvalidateRect       0x0803a229    0x6c  Code  Gb  WM.o [5]
WM_InvalidateWindow     0x0803a295     0x4  Code  Gb  WM.o [5]
WM_IsActive             0x20010dfc     0x1  Data  Gb  WM.o [5]
WM_IsWindow             0x0803b097     0x4  Code  Gb  WM_IsWindow.o [5]
WM_MoveWindow           0x08047039     0x2  Code  Gb  WM_Move.o [5]
WM_NotifyParent         0x0804434f    0x10  Code  Gb  WM_NotifyParent.o [5]
WM_OnKey                0x08047129    0x34  Code  Gb  WM_OnKey.o [5]
WM_PID__StateLast       0x200115c8     0xc  Data  Gb  WM.o [5]
WM_ReleaseCapture       0x08050491     0x2  Code  Gb  WM_SetCapture.o [5]
WM_ResizeWindow         0x0804703b    0xd8  Code  Gb  WM_ResizeWindow.o [5]
WM_Screen2hWin          0x08050459     0xe  Code  Gb  WM_Screen2Win.o [5]
WM_SelectWindow         0x0803a483    0x32  Code  Gb  WM.o [5]
WM_SendMessage          0x0803a1cf    0x24  Code  Gb  WM.o [5]
WM_SendToParent         0x080447d9    0x1e  Code  Gb  WM_SendToParent.o [5]
WM_SetDefault           0x0803a723    0x10  Code  Gb  WM.o [5]
WM_SetFocus             0x0804424d    0x9a  Code  Gb  WM_SetFocus.o [5]
WM_SetHasTrans          0x08043e6d    0x2a  Code  Gb  WM_SetTrans.o [5]
WM_SetUserClipRect      0x08044491    0x14  Code  Gb  WM_SetUserClipRect.o [5]
WM__ActivateClipRect    0x08039e45    0x42  Code  Gb  WM.o [5]
WM__AddCriticalHandle   0x080447f9     0xa  Code  Gb  WM_CriticalHandle.o [5]
WM__CHWinLast           0x20011640     0x8  Data  Gb  WMTouch.o [5]
WM__CHWinModal          0x20011638     0x8  Data  Gb  WMTouch.o [5]
WM__CaptureReleaseAuto  0x200116c8     0x1  Data  Gb  WM.o [5]
WM__Client2Screen       0x08039f83    0x10  Code  Gb  WM.o [5]
WM__ClipAtParentBorders
                        0x08039e07    0x3e  Code  Gb  WM.o [5]
WM__CreateFlags         0x20010e08     0x2  Data  Gb  WM.o [5]
WM__DetachWindow        0x08039f43    0x24  Code  Gb  WM.o [5]
WM__FirstWin            0x20010e04     0x2  Data  Gb  WM.o [5]
WM__ForEachDesc         0x080480ed    0x32  Code  Gb  WM__ForEachDesc.o [5]
WM__GetClientRectWin    0x0803a203    0x18  Code  Gb  WM.o [5]
WM__GetFirstSibling     0x08048141    0x18  Code  Gb  WM__GetFirstSibling.o [5]
WM__GetInvalidRectAbs   0x0803a21b     0xe  Code  Lc  WM.o [5]
WM__GetNextIVR          0x0803a5fb    0x5c  Code  Gb  WM.o [5]
WM__GetPrevSibling      0x080472c1    0x2c  Code  Gb  WM__GetPrevSibling.o [5]
WM__InitIVRSearch       0x0803a657    0xcc  Code  Gb  WM.o [5]
WM__InsertWindowIntoList
                        0x08039e87    0x78  Code  Gb  WM.o [5]
WM__InvalidateAreaBelow
                        0x08039fb9     0x2  Code  Gb  WM.o [5]
WM__IsAncestor          0x08050395    0x24  Code  Gb  WM__IsAncestor.o [5]
WM__IsEnabled           0x08044471    0x14  Code  Gb  WM__IsEnabled.o [5]
WM__IsInModalArea       0x08050191    0x2c  Code  Gb  WMTouch.o [5]
WM__IsInWindow          0x0805042b    0x2e  Code  Gb  WM_Screen2Win.o [5]
WM__IsWindow            0x08039f93    0x26  Code  Gb  WM.o [5]
WM__MoveWindow          0x08046fdd    0x5c  Code  Gb  WM_Move.o [5]
WM__NumInvalidWindows   0x20010e02     0x2  Data  Gb  WM.o [5]
WM__NumWindows          0x20010e00     0x2  Data  Gb  WM.o [5]
WM__PaintCallbackCnt    0x20010dfd     0x1  Data  Gb  WM.o [5]
WM__PaintWinAndOverlays
                        0x0803a8bd    0x36  Code  Gb  WM.o [5]
WM__RectIsNZ            0x0803a00d    0x24  Code  Gb  WM.o [5]
WM__ReleaseCapture      0x0805046d    0x1e  Code  Lc  WM_SetCapture.o [5]
WM__RemoveCriticalHandle
                        0x08044803    0x36  Code  Gb  WM_CriticalHandle.o [5]
WM__RemoveFromLinList   0x08039fbb    0x2a  Code  Gb  WM.o [5]
WM__RemoveWindowFromList
                        0x08039eff    0x44  Code  Gb  WM.o [5]
WM__SendMessage         0x0804811f    0x22  Code  Gb  WM__SendMessage.o [5]
WM__SendMessageIfEnabled
                        0x080503b9    0x1c  Code  Gb  WM__SendMessageIfEnabled.o [5]
WM__SendMsgNoData       0x0803a1f3    0x10  Code  Gb  WM.o [5]
WM__SendPIDMessage      0x080501bd    0x3e  Code  Gb  WMTouch.o [5]
WM__SendTouchMessage    0x080501fb    0x2e  Code  Gb  WMTouch.o [5]
WM__TransWindowCnt      0x20010e1c     0x4  Data  Gb  WM.o [5]
WM__UpdateChildPositions
                        0x0804411f   0x112  Code  Gb  WM__UpdateChildPositions.o [5]
WM__aBkColor            0x20010e14     0x4  Data  Gb  WM.o [5]
WM__ahDesktopWin        0x20010e06     0x2  Data  Gb  WM.o [5]
WM__hATransWindow       0x20010e0e     0x2  Data  Gb  WM.o [5]
WM__hCapture            0x20010e0a     0x2  Data  Gb  WM.o [5]
WM__hWinFocus           0x20010e0c     0x2  Data  Gb  WM.o [5]
WM__pFirstCriticalHandle
                        0x200116a8     0x4  Data  Gb  WM.o [5]
WM_pfHandlePID          0x20011694     0x4  Data  Gb  GUICore.o [5]
WM_pfPollPID            0x20010e18     0x4  Data  Gb  WM.o [5]
Website                 0x2001141e     0x2  Data  Lc  draw_service.o [1]
Website_val             0x20011422     0x2  Data  Lc  draw_service.o [1]
Zpos                    0x20010f56     0x2  Data  Lc  draw_printing.o [1]
_AD2X                   0x0802ba1d    0x16  Code  Lc  GUI_TOUCH_DriverAnalog.o [5]
_AD2Y                   0x0802ba33    0x1a  Code  Lc  GUI_TOUCH_DriverAnalog.o [5]
_API_Table              0x0803ac44    0x10  Data  Lc  GUI_UC_EncodeUTF8.o [5]
_AddToLinList           0x08039fe5    0x28  Code  Lc  WM.o [5]
_Alloc                  0x08043d4f    0xae  Code  Lc  GUIAlloc.o [5]
_AllocSize              0x200113e4     0x4  Data  Lc  GUICurs.o [5]
_BringToTop             0x0804430d    0x40  Code  Lc  WM_BringToTop.o [5]
_ButtonPressed          0x08039acd    0x22  Code  Lc  BUTTON.o [5]
_ButtonReleased         0x08039aef    0x30  Code  Lc  BUTTON.o [5]
_CalcRect               0x0804fc3d    0x3c  Code  Lc  GUICurs.o [5]
_CalcSizeOfChar         0x0803ab11     0x4  Code  Lc  GUI_UC_EncodeNone.o [5]
_CalcSizeOfChar         0x0803abc3    0x1c  Code  Lc  GUI_UC_EncodeUTF8.o [5]
_CheckCriticalHandles   0x08039d09    0x1c  Code  Lc  WM.o [5]
_CheckInit              0x08043d41     0xe  Code  Lc  GUIAlloc.o [5]
_Check_NegLong          0x08047321    0x1e  Code  Lc  GUI_AddDecShift.o [5]
_ClipContext            0x20010de4    0x18  Data  Lc  WM.o [5]
_ClipRect               0x200113d8     0x8  Data  Lc  GUICurs.o [5]
_ColorIndex             0x200113d0     0x8  Data  Lc  GUICurs.o [5]
_ConstObjData           0x080445a8     0xc  Data  Lc  GUI_DRAW_BITMAP.o [5]
_CreateHole             0x08043cb3    0x8e  Code  Lc  GUIAlloc.o [5]
_CursorDeActCnt         0x200113c2     0x1  Data  Lc  GUICurs.o [5]
_CursorIsVis            0x200113c0     0x1  Data  Lc  GUICurs.o [5]
_CursorOn               0x200113c1     0x1  Data  Lc  GUICurs.o [5]
_DefaultTextColor       0x2000111c     0x4  Data  Lc  TEXT.o [5]
_Delete                 0x08039aad    0x20  Code  Lc  BUTTON.o [5]
_Delete                 0x08038d4b     0x2  Code  Lc  TEXT.o [5]
_Delete                 0x0803ae6f     0x2  Code  Lc  PROGBAR.o [5]
_DeleteAllChildren      0x08039f67    0x1c  Code  Lc  WM.o [5]
_DesktopHandle2Index    0x08039d25    0x16  Code  Lc  WM.o [5]
_DispLine               0x08046cf9    0x4a  Code  Lc  GUICharLine.o [5]
_DispLine_SJIS          0x080510e3    0x2a  Code  Lc  GUIEncJS.o [5]
_DrawBitLine1BPP_H      0x08046691    0xae  Code  Lc  LCDDummy.o [5]
_DrawBitLine2BPP        0x0804673f   0x11c  Code  Lc  LCDDummy.o [5]
_DrawBitLine4BPP        0x0804685b   0x11a  Code  Lc  LCDDummy.o [5]
_DrawBitLine8BPP        0x08046975    0x96  Code  Lc  LCDDummy.o [5]
_DrawBitmap             0x08044565    0x12  Code  Lc  GUI_DRAW_BITMAP.o [5]
_DrawBitmap_M565        0x08050495   0x1ce  Code  Lc  LCD_DrawBitmap_M565.o [5]
_DrawNext               0x0803a949    0x4a  Code  Lc  WM.o [5]
_DrawPart               0x0803accb    0x2c  Code  Lc  PROGBAR.o [5]
_DrawRect               0x08042b29    0x34  Code  Lc  GUI2DLib.o [5]
_EffectRequiresRedraw   0x08038e31    0x6c  Code  Lc  WIDGET.o [5]
_Encode                 0x0803ab15     0x6  Code  Lc  GUI_UC_EncodeNone.o [5]
_Encode                 0x0803abdf    0x58  Code  Lc  GUI_UC_EncodeUTF8.o [5]
_EncodingSb_Mbtowc      0x08047633    0x30  Code  Gb  xencoding_sb.o [3]
_EncodingSb_Wctomb      0x08047619    0x1a  Code  Gb  xencoding_sb.o [3]
_FindFreeHandle         0x08043c43    0x24  Code  Lc  GUIAlloc.o [5]
_FindHole               0x08043c67    0x4c  Code  Lc  GUIAlloc.o [5]
_FindNext_IVR           0x0803a4b5   0x146  Code  Lc  WM.o [5]
_Findx0                 0x0803a0cb    0x8c  Code  Lc  WM.o [5]
_Findx1                 0x0803a157    0x78  Code  Lc  WM.o [5]
_Findy1                 0x0803a031    0x9a  Code  Lc  WM.o [5]
_Free                   0x08043bfb    0x48  Code  Lc  GUIAlloc.o [5]
_FreeAttached           0x08038cf5     0x6  Code  Lc  TEXT.o [5]
_FreeText               0x0803ac85    0x10  Code  Lc  PROGBAR.o [5]
_GenldFull              0x08041851   0x24a  Code  Lc  xprintffull.o [3]
_GetCharCode            0x0803ab09     0x4  Code  Lc  GUI_UC_EncodeNone.o [5]
_GetCharCode            0x0803ab49    0x4e  Code  Lc  GUI_UC_EncodeUTF8.o [5]
_GetCharSize            0x0803ab0d     0x4  Code  Lc  GUI_UC_EncodeNone.o [5]
_GetCharSize            0x0803ab97    0x2c  Code  Lc  GUI_UC_EncodeUTF8.o [5]
_GetColorIndex          0x080436dd     0xc  Code  Lc  LCD.o [5]
_GetLineDistX_SJIS      0x08051087    0x3a  Code  Lc  GUIEncJS.o [5]
_GetLineLen_SJIS        0x080510c1    0x22  Code  Lc  GUIEncJS.o [5]
_GetPixelIndex          0x0804fbf1    0x2c  Code  Lc  GUICurs.o [5]
_GetText                0x0803acf7    0x3e  Code  Lc  PROGBAR.o [5]
_GetTextRect            0x0803ad35    0x8e  Code  Lc  PROGBAR.o [5]
_GetXSize               0x08044577     0x6  Code  Lc  GUI_DRAW_BITMAP.o [5]
_GetYSize               0x0804457d     0x6  Code  Lc  GUI_DRAW_BITMAP.o [5]
_GethDrawWin            0x08039db5    0x16  Code  Lc  WM.o [5]
_GotoX                  0x080439f9     0x8  Code  Lc  GUI_Goto.o [5]
_GotoY                  0x080439f1     0x8  Code  Lc  GUI_Goto.o [5]
_InitContext            0x08033a25    0x3e  Code  Lc  GUICore.o [5]
_Invalidate1Abs         0x08039d3b    0x70  Code  Lc  WM.o [5]
_InvalidateWindowAndDescs
                        0x080442f1    0x16  Code  Lc  WM_BringToTop.o [5]
_IsInited               0x20010dfe     0x1  Data  Lc  WM.o [5]
_IsdstStr               0x20000dd4     0x4  Data  Gb  setlocale.o [3]
_Key                    0x200116ac     0x4  Data  Lc  GUI_OnKey.o [5]
_KeyMsg                 0x200115d4     0x8  Data  Lc  GUI_OnKey.o [5]
_KeyMsgCnt              0x200115dc     0x4  Data  Lc  GUI_OnKey.o [5]
_LdtobFull              0x080414c5   0x386  Code  Lc  xprintffull.o [3]
_LitobFull              0x08041373   0x106  Code  Lc  xprintffull.o [3]
_LocaleC_isalpha        0x0804804b    0x16  Code  Gb  xlocale_c.o [3]
_LocaleC_isspace        0x08048061    0x14  Code  Gb  xlocale_c.o [3]
_LocaleC_tolower        0x080481a5     0xc  Code  Gb  xlocale_c.o [3]
_LocaleEncoding         0x08047607     0xe  Code  Gb  setlocale.o [3]
_LocaleForCat           0x080475f5    0x12  Code  Gb  setlocale.o [3]
_LocaleReturnString     0x20000df4    0x50  Data  Lc  setlocale.o [3]
_Locale_Profile         0x20000dd8    0x1c  Data  Gb  setlocale.o [3]
_Locale_aeabi_lconv     0x20000d18    0x38  Data  Gb  localeconv.o [3]
_Locale_lconv           0x20000cc8    0x50  Data  Gb  localeconv.o [3]
_Log2Phys               0x0804fc1d    0x20  Code  Lc  GUICurs.o [5]
_Mbtowc                 0x08045461    0x20  Code  Gb  xmbtowc.o [3]
_MoveDescendents        0x08046f99    0x44  Code  Lc  WM_Move.o [5]
_OnTouch                0x08039b1f    0x40  Code  Lc  BUTTON.o [5]
_PID_Load               0x08048159     0x8  Code  Lc  GUI_PID.o [5]
_PROGBAR_Callback       0x0803ae71    0x38  Code  Lc  PROGBAR.o [5]
_Paint                  0x08039947   0x166  Code  Lc  BUTTON.o [5]
_Paint                  0x08038cfb    0x50  Code  Lc  TEXT.o [5]
_Paint                  0x0803a8f3    0x56  Code  Lc  WM.o [5]
_Paint                  0x0803adc3    0xac  Code  Lc  PROGBAR.o [5]
_Paint1                 0x0803a733    0x74  Code  Lc  WM.o [5]
_Paint1Trans            0x0803a7a7    0x68  Code  Lc  WM.o [5]
_PaintTransChildren     0x0803a80f    0x64  Code  Lc  WM.o [5]
_PaintTransTopSiblings  0x0803a873    0x4a  Code  Lc  WM.o [5]
_PrintfFull             0x080409dd   0x67c  Code  Gb  xprintffull.o [3]
_PutcharsFull           0x08041a9b    0x2e  Code  Lc  xprintffull.o [3]
_PutstrFull             0x08041071   0x2fc  Code  Lc  xprintffull.o [3]
_Rect                   0x200113c4     0x8  Data  Lc  GUICurs.o [5]
_SProut                 0x080269d7     0xa  Code  Gb  xsprout.o [3]
_Screen2Win             0x08050229    0x16  Code  Lc  WMTouch.o [5]
_Screen2hWin            0x080503d5    0x56  Code  Lc  WM_Screen2Win.o [5]
_SetClipRectUserIntersect
                        0x08039dcb    0x3c  Code  Lc  WM.o [5]
_SetPixelIndex          0x0804fbb9    0x38  Code  Lc  GUICurs.o [5]
_Size2LegalSize         0x08043bf1     0xa  Code  Lc  GUIAlloc.o [5]
_State                  0x200115ec     0xc  Data  Lc  GUI_PID.o [5]
_State                  0x20011604     0xc  Data  Lc  GUI_TOUCH.o [5]
_Stoflt                 0x080458f1   0x1b8  Code  Gb  xstoflt.o [3]
_Stopfx                 0x080457bb   0x134  Code  Gb  xstopfx.o [3]
_StoreUnstable          0x0802ba4d    0x36  Code  Lc  GUI_TOUCH_DriverAnalog.o [5]
_Stoxflt                0x08045ca9   0x1e2  Code  Gb  xstoxflt.o [3]
_TEXT_Callback          0x08038d4d    0x42  Code  Lc  TEXT.o [5]
_TzoneStr               0x20000dd0     0x4  Data  Gb  setlocale.o [3]
_UpdateChildPostions    0x08038e19    0x18  Code  Lc  WIDGET.o [5]
_Value2X                0x0803ac95    0x36  Code  Lc  PROGBAR.o [5]
_WIDGET_EFFECT_3D_DrawDown
                        0x08050941    0x12  Code  Lc  WIDGET_Effect_3D.o [5]
_WIDGET_EFFECT_3D_DrawDownRect
                        0x08050897    0x9c  Code  Lc  WIDGET_Effect_3D.o [5]
_WIDGET_EFFECT_3D_DrawUpRect
                        0x0805082d    0x6a  Code  Lc  WIDGET_Effect_3D.o [5]
_WIDGET_EFFECT_3D_GetRect
                        0x08050953    0x16  Code  Lc  WIDGET_Effect_3D.o [5]
_WIDGET_EFFECT_None_DrawDown
                        0x08051321     0x2  Code  Lc  WIDGET_Effect_None.o [5]
_WIDGET_EFFECT_None_DrawDownRect
                        0x08051325     0x2  Code  Lc  WIDGET_Effect_None.o [5]
_WIDGET_EFFECT_None_DrawUp
                        0x08051323     0x2  Code  Lc  WIDGET_Effect_None.o [5]
_WIDGET_EFFECT_None_DrawUpRect
                        0x08051327     0x2  Code  Lc  WIDGET_Effect_None.o [5]
_WIDGET_EFFECT_None_GetRect
                        0x08051329     0x4  Code  Lc  WIDGET_Effect_None.o [5]
_WIDGET_EFFECT_Simple_DrawDown
                        0x0805103f    0x12  Code  Lc  WIDGET_Effect_Simple.o [5]
_WIDGET_EFFECT_Simple_DrawDownRect
                        0x0805100f    0x30  Code  Lc  WIDGET_Effect_Simple.o [5]
_WIDGET_EFFECT_Simple_DrawUp
                        0x08050ffd    0x12  Code  Lc  WIDGET_Effect_Simple.o [5]
_WIDGET_EFFECT_Simple_DrawUpRect
                        0x08050fcd    0x30  Code  Lc  WIDGET_Effect_Simple.o [5]
_WIDGET_EFFECT_Simple_GetRect
                        0x08051051    0x16  Code  Lc  WIDGET_Effect_Simple.o [5]
_Wctomb                 0x080454e3    0x1a  Code  Gb  xwctomb.o [3]
__aeabi_cdcmpeq         0x0804767d          Code  Gb  DblCmpEq.o [4]
__aeabi_cdcmple         0x08032b39          Code  Gb  DblCmpLe.o [4]
__aeabi_cdrcmple        0x08032b09          Code  Gb  DblCmpGe.o [4]
__aeabi_d2f             0x08026c11          Code  Gb  DblToFlt.o [4]
__aeabi_d2iz            0x080304a5          Code  Gb  DblToI32.o [4]
__aeabi_d2uiz           0x080304d1          Code  Gb  DblToI32.o [4]
__aeabi_dadd            0x080297a1          Code  Gb  DblAdd.o [4]
__aeabi_ddiv            0x08032b69          Code  Gb  DblDiv.o [4]
__aeabi_dmul            0x08026a3d          Code  Gb  DblMul.o [4]
__aeabi_dsub            0x080298d5          Code  Gb  DblSub.o [4]
__aeabi_errno_addr      0x080449dd     0x6  Code  Gb  errno.o [3]
__aeabi_f2d             0x080269ed          Code  Gb  FltToDbl.o [4]
__aeabi_i2d             0x08026be1          Code  Gb  I32ToDbl.o [4]
__aeabi_ldiv0           0x08047679          Code  Gb  I64DivZer.o [6]
__aeabi_memclr4         0x080328bd          Code  Gb  ABImemclr4.o [6]
__aeabi_memset          0x08032905          Code  Gb  ABImemset.o [6]
__aeabi_ui2d            0x08026bf5          Code  Gb  I32ToDbl.o [4]
__aeabi_uldivmod        0x080454fd          Code  Gb  I64DivMod.o [6]
__call_ctors            0x08051435    0x18  Code  Gb  cppinit.o [3]
__cmain                 0x08051469          Code  Gb  cmain.o [6]
__data_GetMemChunk      0x08044cb9    0x2c  Code  Gb  xgetmemchunk.o [3]
__exit                  0x080475cd    0x14  Code  Gb  exit.o [7]
__iar_Dnorm             0x080455eb    0x42  Code  Gb  xdnorm.o [4]
__iar_Dscale            0x0804562d   0x114  Code  Gb  xdscale.o [4]
__iar_Dtentox           0x08045b05   0x13e  Code  Gb  xdtento.o [4]
__iar_Dunscale          0x0804769d    0x56  Code  Gb  xdunscal.o [4]
__iar_Errno             0x20001134     0x4  Data  Gb  errno.o [3]
__iar_FDint             0x08047417    0x50  Code  Gb  xfdint.o [4]
__iar_FQuad             0x080449e9    0xc2  Code  Gb  xfquad.o [4]
__iar_FSin              0x0803b4b5   0x12a  Code  Gb  xfsin.o [4]
__iar_Locale_lconv_init
                        0x08045741    0x3a  Code  Gb  localeconv.o [3]
__iar_Mbcurmax          0x080454d9     0xa  Code  Gb  xmbcurmax.o [3]
__iar_Memchr            0x08045481          Code  Gb  memchr.o [6]
__iar_Memset            0x08032905          Code  Gb  ABImemset.o [6]
__iar_Memset4_word      0x080435a5          Code  Gb  ABImemset48.o [6]
__iar_Memset8_word      0x080435a5          Code  Gb  ABImemset48.o [6]
__iar_Memset_word       0x0803290d          Code  Gb  ABImemset.o [6]
__iar_Stod              0x08042689     0x4  Code  Gb  xstod.o [4]
__iar_Stodx             0x08042525   0x14e  Code  Gb  xstod.o [4]
__iar_Stolx             0x080435fb    0x88  Code  Gb  xstol.o [3]
__iar_Stoul             0x0804540d     0x4  Code  Gb  xstoul.o [3]
__iar_Stoulx            0x080452c9   0x13e  Code  Gb  xstoul.o [3]
__iar_Strchr            0x080435d9          Code  Gb  strchr.o [6]
__iar_Strrchr           0x08043683    0x18  Code  Gb  strrchr.o [3]
__iar_Strstr            0x0803ce69    0x2c  Code  Gb  strstr.o [3]
__iar_cstart_call_ctors
                        0x08051415    0x20  Code  Gb  cmain_call_ctors.o [6]
__iar_d2uiz             0x080304dd          Code  Gb  DblToI32.o [4]
__iar_dadd              0x080297b5          Code  Gb  DblAdd.o [4]
__iar_data_init3        0x0805128d    0x28  Code  Gb  data_init.o [6]
__iar_dlfree            0x0803c94f   0x512  Code  Gb  dlmalloc.o [3]
__iar_dlib_perthread_access
                        0x08047415     0x2  Code  Gb  xtls.o [3]
__iar_dlmalloc          0x0803c691   0x2b2  Code  Gb  dlmalloc.o [3]
__iar_dsub              0x080298e9          Code  Gb  DblSub.o [4]
__iar_dsubStart         0x080298fb          Code  Gb  DblSub.o [4]
__iar_edom              0x0803b405          Code  Gb  iarEdom.o [6]
__iar_gm_               0x2000fb1c   0x1d8  Data  Gb  dlmalloc.o [3]
__iar_init_vfp          0x0805144d          Code  Gb  fpinit_M.o [4]
__iar_packbits_init3    0x08050e53    0xb2  Code  Gb  packbits_init.o [6]
__iar_program_start     0x080517fd          Code  Gb  cstartup_M.o [6]
__iar_sqrt              0x080338d9          Code  Gb  sqrt.o [4]
__iar_strcmp            0x08032dcd          Code  Gb  strcmp_unaligned.o [6]
__iar_ui2d              0x08026bf9          Code  Gb  I32ToDbl.o [4]
__iar_unaligned___aeabi_memcpy
                        0x0802e445          Code  Gb  ABImemcpy_unaligned.o [6]
__iar_unaligned___aeabi_memcpy4
                        0x0802e465          Code  Gb  ABImemcpy_unaligned.o [6]
__iar_unaligned___aeabi_memcpy8
                        0x0802e465          Code  Gb  ABImemcpy_unaligned.o [6]
__iar_unaligned___aeabi_memmove
                        0x08048075          Code  Gb  ABImemmove_unaligned.o [6]
__iar_unaligned___aeabi_memmove4
                        0x08048075          Code  Gb  ABImemmove_unaligned.o [6]
__iar_unaligned___aeabi_memmove8
                        0x08048075          Code  Gb  ABImemmove_unaligned.o [6]
__iar_unaligned_memcmp  0x0803b91d          Code  Gb  memcmp_unaligned.o [6]
__iar_unaligned_strcmp  0x08032dcd          Code  Gb  strcmp_unaligned.o [6]
__iar_unaligned_strcpy  0x0802e521          Code  Gb  strcpy_unaligned.o [6]
__iar_unaligned_strncpy
                        0x08025c29          Code  Gb  strncpy_unaligned.o [6]
__iar_vfp___iar_Dtest   0x08032ac1    0x38  Code  Gb  xdtest.o [4]
__iar_vfp_atof          0x0802f309    0x10  Code  Gb  atof.o [4]
__iar_vfp_ceilf         0x0803b625          Code  Gb  ceilf.o [4]
__iar_vfp_floorf        0x08029889          Code  Gb  floorf.o [4]
__iar_vfp_fmodf         0x08047469          Code  Gb  fmodf.o [4]
__iar_vfp_sqrt          0x080338c9          Code  Gb  sqrt.o [4]
__iar_vfp_sqrtl         0x080338c9          Code  Gb  sqrt.o [4]
__iar_vfp_strtod        0x0804369b     0xe  Code  Gb  strtod.o [4]
__iar_xatanf            0x0803b411          Code  Gb  xatanf.o [4]
__iar_zero_init3        0x08025c07    0x22  Code  Gb  zero_init3.o [6]
__low_level_init        0x08051483     0x4  Code  Gb  low_level_init.o [3]
__sti__routine          0x0802cf39     0x6  Code  Lc  endstops.o [1]
__sti__routine          0x0802009d    0x5a  Code  Lc  Marlin_main.o [1]
__sti__routine          0x0802a941    0x60  Code  Lc  planner.o [1]
__sti__routine          0x08025ce9    0x3a  Code  Lc  serial.o [1]
__vector_table          0x08010000          Data  Gb  startup_stm32f407xx.o [1]
_call_main              0x08051475          Code  Gb  cmain.o [6]
_cbInvalidateOne        0x080442ed     0x4  Code  Lc  WM_BringToTop.o [5]
_commit_command(bool)   0x0803296d    0x24  Code  Gb  Marlin_main.o [1]
_dwTickCount            0x2001168c     0x4  Data  Gb  tim.o [1]
_enqueuecommand(char const *, bool)
                        0x08025c95    0x38  Code  Gb  Marlin_main.o [1]
_exit                   0x0805148d          Code  Gb  cexit.o [6]
_hBuffer                0x200113cc     0x2  Data  Lc  GUICurs.o [5]
_main                   0x0805147f          Code  Gb  cmain.o [6]
_pCursor                0x200113e0     0x4  Data  Lc  GUICurs.o [5]
_pDefaultFont           0x20001118     0x4  Data  Lc  TEXT.o [5]
_pEffectDefault         0x2000112c     0x4  Data  Gb  WIDGET.o [5]
_x                      0x20011648     0x4  Data  Lc  GUI_TOUCH_StoreUnstable.o [5]
_x                      0x200113e8     0x4  Data  Lc  GUICurs.o [5]
_y                      0x2001164c     0x4  Data  Lc  GUI_TOUCH_StoreUnstable.o [5]
_y                      0x200113ec     0x4  Data  Lc  GUICurs.o [5]
aBlock                  0x2000b368   0x48c  Data  Lc  GUIAlloc.o [5]
abort                   0x08044cb1     0x6  Code  Gb  abort.o [3]
about_menu              0x2000e96c    0x44  Data  Gb  multi_language.o [1]
abs                     0x08044b13     0x8  Code  Gb  abs.o [3]
acFont13ASCII_0020      0x0804d94c    0x10  Data  Gb  F13_ASCII.o [5]
acFont13ASCII_0021      0x0804d95c    0x10  Data  Gb  F13_ASCII.o [5]
acFont13ASCII_0022      0x0804d96c    0x10  Data  Gb  F13_ASCII.o [5]
acFont13ASCII_0023      0x0804d97c    0x10  Data  Gb  F13_ASCII.o [5]
acFont13ASCII_0024      0x0804d98c    0x10  Data  Gb  F13_ASCII.o [5]
acFont13ASCII_0025      0x0804d99c    0x1c  Data  Gb  F13_ASCII.o [5]
acFont13ASCII_0026      0x0804d9b8    0x10  Data  Gb  F13_ASCII.o [5]
acFont13ASCII_0027      0x0804d9c8    0x10  Data  Gb  F13_ASCII.o [5]
acFont13ASCII_0028      0x0804d9d8    0x10  Data  Gb  F13_ASCII.o [5]
acFont13ASCII_0029      0x0804d9e8    0x10  Data  Gb  F13_ASCII.o [5]
acFont13ASCII_002A      0x0804d9f8    0x10  Data  Gb  F13_ASCII.o [5]
acFont13ASCII_002B      0x0804da08    0x10  Data  Gb  F13_ASCII.o [5]
acFont13ASCII_002C      0x0804da18    0x10  Data  Gb  F13_ASCII.o [5]
acFont13ASCII_002D      0x0804da28    0x10  Data  Gb  F13_ASCII.o [5]
acFont13ASCII_002E      0x0804da38    0x10  Data  Gb  F13_ASCII.o [5]
acFont13ASCII_002F      0x0804da48    0x10  Data  Gb  F13_ASCII.o [5]
acFont13ASCII_0030      0x0804da58    0x10  Data  Gb  F13_ASCII.o [5]
acFont13ASCII_0031      0x0804da68    0x10  Data  Gb  F13_ASCII.o [5]
acFont13ASCII_0032      0x0804da78    0x10  Data  Gb  F13_ASCII.o [5]
acFont13ASCII_0033      0x0804da88    0x10  Data  Gb  F13_ASCII.o [5]
acFont13ASCII_0034      0x0804da98    0x10  Data  Gb  F13_ASCII.o [5]
acFont13ASCII_0035      0x0804daa8    0x10  Data  Gb  F13_ASCII.o [5]
acFont13ASCII_0036      0x0804dab8    0x10  Data  Gb  F13_ASCII.o [5]
acFont13ASCII_0037      0x0804dac8    0x10  Data  Gb  F13_ASCII.o [5]
acFont13ASCII_0038      0x0804dad8    0x10  Data  Gb  F13_ASCII.o [5]
acFont13ASCII_0039      0x0804dae8    0x10  Data  Gb  F13_ASCII.o [5]
acFont13ASCII_003A      0x0804daf8    0x10  Data  Gb  F13_ASCII.o [5]
acFont13ASCII_003B      0x0804db08    0x10  Data  Gb  F13_ASCII.o [5]
acFont13ASCII_003C      0x0804db18    0x10  Data  Gb  F13_ASCII.o [5]
acFont13ASCII_003D      0x0804db28    0x10  Data  Gb  F13_ASCII.o [5]
acFont13ASCII_003E      0x0804db38    0x10  Data  Gb  F13_ASCII.o [5]
acFont13ASCII_003F      0x0804db48    0x10  Data  Gb  F13_ASCII.o [5]
acFont13ASCII_0040      0x0804db58    0x1c  Data  Gb  F13_ASCII.o [5]
acFont13ASCII_0041      0x0804db74    0x10  Data  Gb  F13_ASCII.o [5]
acFont13ASCII_0042      0x0804db84    0x10  Data  Gb  F13_ASCII.o [5]
acFont13ASCII_0043      0x0804db94    0x10  Data  Gb  F13_ASCII.o [5]
acFont13ASCII_0044      0x0804dba4    0x10  Data  Gb  F13_ASCII.o [5]
acFont13ASCII_0045      0x0804dbb4    0x10  Data  Gb  F13_ASCII.o [5]
acFont13ASCII_0046      0x0804dbc4    0x10  Data  Gb  F13_ASCII.o [5]
acFont13ASCII_0047      0x0804dbd4    0x10  Data  Gb  F13_ASCII.o [5]
acFont13ASCII_0048      0x0804dbe4    0x10  Data  Gb  F13_ASCII.o [5]
acFont13ASCII_0049      0x0804dbf4    0x10  Data  Gb  F13_ASCII.o [5]
acFont13ASCII_004A      0x0804dc04    0x10  Data  Gb  F13_ASCII.o [5]
acFont13ASCII_004B      0x0804dc14    0x10  Data  Gb  F13_ASCII.o [5]
acFont13ASCII_004C      0x0804dc24    0x10  Data  Gb  F13_ASCII.o [5]
acFont13ASCII_004D      0x0804dc34    0x10  Data  Gb  F13_ASCII.o [5]
acFont13ASCII_004E      0x0804dc44    0x10  Data  Gb  F13_ASCII.o [5]
acFont13ASCII_004F      0x0804dc54    0x10  Data  Gb  F13_ASCII.o [5]
acFont13ASCII_0050      0x0804dc64    0x10  Data  Gb  F13_ASCII.o [5]
acFont13ASCII_0051      0x0804dc74    0x10  Data  Gb  F13_ASCII.o [5]
acFont13ASCII_0052      0x0804dc84    0x10  Data  Gb  F13_ASCII.o [5]
acFont13ASCII_0053      0x0804dc94    0x10  Data  Gb  F13_ASCII.o [5]
acFont13ASCII_0054      0x0804dca4    0x10  Data  Gb  F13_ASCII.o [5]
acFont13ASCII_0055      0x0804dcb4    0x10  Data  Gb  F13_ASCII.o [5]
acFont13ASCII_0056      0x0804dcc4    0x10  Data  Gb  F13_ASCII.o [5]
acFont13ASCII_0057      0x0804dcd4    0x1c  Data  Gb  F13_ASCII.o [5]
acFont13ASCII_0058      0x0804dcf0    0x10  Data  Gb  F13_ASCII.o [5]
acFont13ASCII_0059      0x0804dd00    0x10  Data  Gb  F13_ASCII.o [5]
acFont13ASCII_005A      0x0804dd10    0x10  Data  Gb  F13_ASCII.o [5]
acFont13ASCII_005B      0x0804dd20    0x10  Data  Gb  F13_ASCII.o [5]
acFont13ASCII_005C      0x0804dd30    0x10  Data  Gb  F13_ASCII.o [5]
acFont13ASCII_005D      0x0804dd40    0x10  Data  Gb  F13_ASCII.o [5]
acFont13ASCII_005E      0x0804dd50    0x10  Data  Gb  F13_ASCII.o [5]
acFont13ASCII_005F      0x0804dd60    0x10  Data  Gb  F13_ASCII.o [5]
acFont13ASCII_0060      0x0804dd70    0x10  Data  Gb  F13_ASCII.o [5]
acFont13ASCII_0061      0x0804dd80    0x10  Data  Gb  F13_ASCII.o [5]
acFont13ASCII_0062      0x0804dd90    0x10  Data  Gb  F13_ASCII.o [5]
acFont13ASCII_0063      0x0804dda0    0x10  Data  Gb  F13_ASCII.o [5]
acFont13ASCII_0064      0x0804ddb0    0x10  Data  Gb  F13_ASCII.o [5]
acFont13ASCII_0065      0x0804ddc0    0x10  Data  Gb  F13_ASCII.o [5]
acFont13ASCII_0066      0x0804ddd0    0x10  Data  Gb  F13_ASCII.o [5]
acFont13ASCII_0067      0x0804dde0    0x10  Data  Gb  F13_ASCII.o [5]
acFont13ASCII_0068      0x0804ddf0    0x10  Data  Gb  F13_ASCII.o [5]
acFont13ASCII_0069      0x0804de00    0x10  Data  Gb  F13_ASCII.o [5]
acFont13ASCII_006A      0x0804de10    0x10  Data  Gb  F13_ASCII.o [5]
acFont13ASCII_006B      0x0804de20    0x10  Data  Gb  F13_ASCII.o [5]
acFont13ASCII_006C      0x0804de30    0x10  Data  Gb  F13_ASCII.o [5]
acFont13ASCII_006D      0x0804de40    0x10  Data  Gb  F13_ASCII.o [5]
acFont13ASCII_006E      0x0804de50    0x10  Data  Gb  F13_ASCII.o [5]
acFont13ASCII_006F      0x0804de60    0x10  Data  Gb  F13_ASCII.o [5]
acFont13ASCII_0070      0x0804de70    0x10  Data  Gb  F13_ASCII.o [5]
acFont13ASCII_0071      0x0804de80    0x10  Data  Gb  F13_ASCII.o [5]
acFont13ASCII_0072      0x0804de90    0x10  Data  Gb  F13_ASCII.o [5]
acFont13ASCII_0073      0x0804dea0    0x10  Data  Gb  F13_ASCII.o [5]
acFont13ASCII_0074      0x0804deb0    0x10  Data  Gb  F13_ASCII.o [5]
acFont13ASCII_0075      0x0804dec0    0x10  Data  Gb  F13_ASCII.o [5]
acFont13ASCII_0076      0x0804ded0    0x10  Data  Gb  F13_ASCII.o [5]
acFont13ASCII_0077      0x0804dee0    0x10  Data  Gb  F13_ASCII.o [5]
acFont13ASCII_0078      0x0804def0    0x10  Data  Gb  F13_ASCII.o [5]
acFont13ASCII_0079      0x0804df00    0x10  Data  Gb  F13_ASCII.o [5]
acFont13ASCII_007A      0x0804df10    0x10  Data  Gb  F13_ASCII.o [5]
acFont13ASCII_007B      0x0804df20    0x10  Data  Gb  F13_ASCII.o [5]
acFont13ASCII_007C      0x0804df30    0x10  Data  Gb  F13_ASCII.o [5]
acFont13ASCII_007D      0x0804df40    0x10  Data  Gb  F13_ASCII.o [5]
acFont13ASCII_007E      0x0804df50    0x10  Data  Gb  F13_ASCII.o [5]
acFont13_1_00A0         0x0804cfcc    0x10  Data  Gb  F13_1.o [5]
acFont13_1_00A1         0x0804cfdc    0x10  Data  Gb  F13_1.o [5]
acFont13_1_00A2         0x0804cfec    0x10  Data  Gb  F13_1.o [5]
acFont13_1_00A3         0x0804cffc    0x10  Data  Gb  F13_1.o [5]
acFont13_1_00A4         0x0804d00c    0x10  Data  Gb  F13_1.o [5]
acFont13_1_00A5         0x0804d01c    0x10  Data  Gb  F13_1.o [5]
acFont13_1_00A6         0x0804d02c    0x10  Data  Gb  F13_1.o [5]
acFont13_1_00A7         0x0804d03c    0x10  Data  Gb  F13_1.o [5]
acFont13_1_00A8         0x0804d04c    0x10  Data  Gb  F13_1.o [5]
acFont13_1_00A9         0x0804d05c    0x1c  Data  Gb  F13_1.o [5]
acFont13_1_00AA         0x0804d078    0x10  Data  Gb  F13_1.o [5]
acFont13_1_00AB         0x0804d088    0x10  Data  Gb  F13_1.o [5]
acFont13_1_00AC         0x0804d098    0x10  Data  Gb  F13_1.o [5]
acFont13_1_00AD         0x0804d0a8    0x10  Data  Gb  F13_1.o [5]
acFont13_1_00AE         0x0804d0b8    0x1c  Data  Gb  F13_1.o [5]
acFont13_1_00AF         0x0804d0d4    0x10  Data  Gb  F13_1.o [5]
acFont13_1_00B0         0x0804d0e4    0x10  Data  Gb  F13_1.o [5]
acFont13_1_00B1         0x0804d0f4    0x10  Data  Gb  F13_1.o [5]
acFont13_1_00B2         0x0804d104    0x10  Data  Gb  F13_1.o [5]
acFont13_1_00B3         0x0804d114    0x10  Data  Gb  F13_1.o [5]
acFont13_1_00B4         0x0804d124    0x10  Data  Gb  F13_1.o [5]
acFont13_1_00B5         0x0804d134    0x10  Data  Gb  F13_1.o [5]
acFont13_1_00B6         0x0804d144    0x10  Data  Gb  F13_1.o [5]
acFont13_1_00B7         0x0804d154    0x10  Data  Gb  F13_1.o [5]
acFont13_1_00B8         0x0804d164    0x10  Data  Gb  F13_1.o [5]
acFont13_1_00B9         0x0804d174    0x10  Data  Gb  F13_1.o [5]
acFont13_1_00BA         0x0804d184    0x10  Data  Gb  F13_1.o [5]
acFont13_1_00BB         0x0804d194    0x10  Data  Gb  F13_1.o [5]
acFont13_1_00BC         0x0804d1a4    0x1c  Data  Gb  F13_1.o [5]
acFont13_1_00BD         0x0804d1c0    0x1c  Data  Gb  F13_1.o [5]
acFont13_1_00BE         0x0804d1dc    0x1c  Data  Gb  F13_1.o [5]
acFont13_1_00BF         0x0804d1f8    0x10  Data  Gb  F13_1.o [5]
acFont13_1_00C0         0x0804d208    0x10  Data  Gb  F13_1.o [5]
acFont13_1_00C1         0x0804d218    0x10  Data  Gb  F13_1.o [5]
acFont13_1_00C2         0x0804d228    0x10  Data  Gb  F13_1.o [5]
acFont13_1_00C3         0x0804d238    0x10  Data  Gb  F13_1.o [5]
acFont13_1_00C4         0x0804d248    0x10  Data  Gb  F13_1.o [5]
acFont13_1_00C5         0x0804d258    0x10  Data  Gb  F13_1.o [5]
acFont13_1_00C6         0x0804d268    0x1c  Data  Gb  F13_1.o [5]
acFont13_1_00C7         0x0804d284    0x10  Data  Gb  F13_1.o [5]
acFont13_1_00C8         0x0804d294    0x10  Data  Gb  F13_1.o [5]
acFont13_1_00C9         0x0804d2a4    0x10  Data  Gb  F13_1.o [5]
acFont13_1_00CA         0x0804d2b4    0x10  Data  Gb  F13_1.o [5]
acFont13_1_00CB         0x0804d2c4    0x10  Data  Gb  F13_1.o [5]
acFont13_1_00CC         0x0804d2d4    0x10  Data  Gb  F13_1.o [5]
acFont13_1_00CD         0x0804d2e4    0x10  Data  Gb  F13_1.o [5]
acFont13_1_00CE         0x0804d2f4    0x10  Data  Gb  F13_1.o [5]
acFont13_1_00CF         0x0804d304    0x10  Data  Gb  F13_1.o [5]
acFont13_1_00D0         0x0804d314    0x10  Data  Gb  F13_1.o [5]
acFont13_1_00D1         0x0804d324    0x10  Data  Gb  F13_1.o [5]
acFont13_1_00D2         0x0804d334    0x10  Data  Gb  F13_1.o [5]
acFont13_1_00D3         0x0804d344    0x10  Data  Gb  F13_1.o [5]
acFont13_1_00D4         0x0804d354    0x10  Data  Gb  F13_1.o [5]
acFont13_1_00D5         0x0804d364    0x10  Data  Gb  F13_1.o [5]
acFont13_1_00D6         0x0804d374    0x10  Data  Gb  F13_1.o [5]
acFont13_1_00D7         0x0804d384    0x10  Data  Gb  F13_1.o [5]
acFont13_1_00D8         0x0804d394    0x10  Data  Gb  F13_1.o [5]
acFont13_1_00D9         0x0804d3a4    0x10  Data  Gb  F13_1.o [5]
acFont13_1_00DA         0x0804d3b4    0x10  Data  Gb  F13_1.o [5]
acFont13_1_00DB         0x0804d3c4    0x10  Data  Gb  F13_1.o [5]
acFont13_1_00DC         0x0804d3d4    0x10  Data  Gb  F13_1.o [5]
acFont13_1_00DD         0x0804d3e4    0x10  Data  Gb  F13_1.o [5]
acFont13_1_00DE         0x0804d3f4    0x10  Data  Gb  F13_1.o [5]
acFont13_1_00DF         0x0804d404    0x10  Data  Gb  F13_1.o [5]
acFont13_1_00E0         0x0804d414    0x10  Data  Gb  F13_1.o [5]
acFont13_1_00E1         0x0804d424    0x10  Data  Gb  F13_1.o [5]
acFont13_1_00E2         0x0804d434    0x10  Data  Gb  F13_1.o [5]
acFont13_1_00E3         0x0804d444    0x10  Data  Gb  F13_1.o [5]
acFont13_1_00E4         0x0804d454    0x10  Data  Gb  F13_1.o [5]
acFont13_1_00E5         0x0804d464    0x10  Data  Gb  F13_1.o [5]
acFont13_1_00E6         0x0804d474    0x1c  Data  Gb  F13_1.o [5]
acFont13_1_00E7         0x0804d490    0x10  Data  Gb  F13_1.o [5]
acFont13_1_00E8         0x0804d4a0    0x10  Data  Gb  F13_1.o [5]
acFont13_1_00E9         0x0804d4b0    0x10  Data  Gb  F13_1.o [5]
acFont13_1_00EA         0x0804d4c0    0x10  Data  Gb  F13_1.o [5]
acFont13_1_00EB         0x0804d4d0    0x10  Data  Gb  F13_1.o [5]
acFont13_1_00EC         0x0804d4e0    0x10  Data  Gb  F13_1.o [5]
acFont13_1_00ED         0x0804d4f0    0x10  Data  Gb  F13_1.o [5]
acFont13_1_00EE         0x0804d500    0x10  Data  Gb  F13_1.o [5]
acFont13_1_00EF         0x0804d510    0x10  Data  Gb  F13_1.o [5]
acFont13_1_00F0         0x0804d520    0x10  Data  Gb  F13_1.o [5]
acFont13_1_00F1         0x0804d530    0x10  Data  Gb  F13_1.o [5]
acFont13_1_00F2         0x0804d540    0x10  Data  Gb  F13_1.o [5]
acFont13_1_00F3         0x0804d550    0x10  Data  Gb  F13_1.o [5]
acFont13_1_00F4         0x0804d560    0x10  Data  Gb  F13_1.o [5]
acFont13_1_00F5         0x0804d570    0x10  Data  Gb  F13_1.o [5]
acFont13_1_00F6         0x0804d580    0x10  Data  Gb  F13_1.o [5]
acFont13_1_00F7         0x0804d590    0x10  Data  Gb  F13_1.o [5]
acFont13_1_00F8         0x0804d5a0    0x10  Data  Gb  F13_1.o [5]
acFont13_1_00F9         0x0804d5b0    0x10  Data  Gb  F13_1.o [5]
acFont13_1_00FA         0x0804d5c0    0x10  Data  Gb  F13_1.o [5]
acFont13_1_00FB         0x0804d5d0    0x10  Data  Gb  F13_1.o [5]
acFont13_1_00FC         0x0804d5e0    0x10  Data  Gb  F13_1.o [5]
acFont13_1_00FD         0x0804d5f0    0x10  Data  Gb  F13_1.o [5]
acFont13_1_00FE         0x0804d600    0x10  Data  Gb  F13_1.o [5]
acFont13_1_00FF         0x0804d610    0x10  Data  Gb  F13_1.o [5]
acGUI_FontHZ_fontHz14_0020
                        0x08010188    0x18  Data  Gb  Font24_MS.o [1]
acGUI_FontHZ_fontHz14_0021
                        0x080101a0    0x18  Data  Gb  Font24_MS.o [1]
acGUI_FontHZ_fontHz14_0022
                        0x080101b8    0x18  Data  Gb  Font24_MS.o [1]
acGUI_FontHZ_fontHz14_0023
                        0x080101d0    0x30  Data  Gb  Font24_MS.o [1]
acGUI_FontHZ_fontHz14_0024
                        0x08010200    0x30  Data  Gb  Font24_MS.o [1]
acGUI_FontHZ_fontHz14_0025
                        0x08010230    0x30  Data  Gb  Font24_MS.o [1]
acGUI_FontHZ_fontHz14_0026
                        0x08010260    0x30  Data  Gb  Font24_MS.o [1]
acGUI_FontHZ_fontHz14_0027
                        0x08010290    0x18  Data  Gb  Font24_MS.o [1]
acGUI_FontHZ_fontHz14_0028
                        0x080102a8    0x18  Data  Gb  Font24_MS.o [1]
acGUI_FontHZ_fontHz14_0029
                        0x080102c0    0x18  Data  Gb  Font24_MS.o [1]
acGUI_FontHZ_fontHz14_002A
                        0x080102d8    0x18  Data  Gb  Font24_MS.o [1]
acGUI_FontHZ_fontHz14_002B
                        0x080102f0    0x30  Data  Gb  Font24_MS.o [1]
acGUI_FontHZ_fontHz14_002C
                        0x08010320    0x18  Data  Gb  Font24_MS.o [1]
acGUI_FontHZ_fontHz14_002D
                        0x08010338    0x18  Data  Gb  Font24_MS.o [1]
acGUI_FontHZ_fontHz14_002E
                        0x08010350    0x18  Data  Gb  Font24_MS.o [1]
acGUI_FontHZ_fontHz14_002F
                        0x08010368    0x18  Data  Gb  Font24_MS.o [1]
acGUI_FontHZ_fontHz14_0030
                        0x08010380    0x30  Data  Gb  Font24_MS.o [1]
acGUI_FontHZ_fontHz14_0031
                        0x080103b0    0x30  Data  Gb  Font24_MS.o [1]
acGUI_FontHZ_fontHz14_0032
                        0x080103e0    0x30  Data  Gb  Font24_MS.o [1]
acGUI_FontHZ_fontHz14_0033
                        0x08010410    0x30  Data  Gb  Font24_MS.o [1]
acGUI_FontHZ_fontHz14_0034
                        0x08010440    0x30  Data  Gb  Font24_MS.o [1]
acGUI_FontHZ_fontHz14_0035
                        0x08010470    0x30  Data  Gb  Font24_MS.o [1]
acGUI_FontHZ_fontHz14_0036
                        0x080104a0    0x30  Data  Gb  Font24_MS.o [1]
acGUI_FontHZ_fontHz14_0037
                        0x080104d0    0x30  Data  Gb  Font24_MS.o [1]
acGUI_FontHZ_fontHz14_0038
                        0x08010500    0x30  Data  Gb  Font24_MS.o [1]
acGUI_FontHZ_fontHz14_0039
                        0x08010530    0x30  Data  Gb  Font24_MS.o [1]
acGUI_FontHZ_fontHz14_003A
                        0x08010560    0x18  Data  Gb  Font24_MS.o [1]
acGUI_FontHZ_fontHz14_003B
                        0x08010578    0x18  Data  Gb  Font24_MS.o [1]
acGUI_FontHZ_fontHz14_003C
                        0x08010590    0x30  Data  Gb  Font24_MS.o [1]
acGUI_FontHZ_fontHz14_003D
                        0x080105c0    0x30  Data  Gb  Font24_MS.o [1]
acGUI_FontHZ_fontHz14_003E
                        0x080105f0    0x30  Data  Gb  Font24_MS.o [1]
acGUI_FontHZ_fontHz14_003F
                        0x08010620    0x30  Data  Gb  Font24_MS.o [1]
acGUI_FontHZ_fontHz14_0040
                        0x08010650    0x48  Data  Gb  Font24_MS.o [1]
acGUI_FontHZ_fontHz14_0041
                        0x08010698    0x30  Data  Gb  Font24_MS.o [1]
acGUI_FontHZ_fontHz14_0042
                        0x080106c8    0x30  Data  Gb  Font24_MS.o [1]
acGUI_FontHZ_fontHz14_0043
                        0x080106f8    0x30  Data  Gb  Font24_MS.o [1]
acGUI_FontHZ_fontHz14_0044
                        0x08010728    0x30  Data  Gb  Font24_MS.o [1]
acGUI_FontHZ_fontHz14_0045
                        0x08010758    0x30  Data  Gb  Font24_MS.o [1]
acGUI_FontHZ_fontHz14_0046
                        0x08010788    0x30  Data  Gb  Font24_MS.o [1]
acGUI_FontHZ_fontHz14_0047
                        0x080107b8    0x30  Data  Gb  Font24_MS.o [1]
acGUI_FontHZ_fontHz14_0048
                        0x080107e8    0x30  Data  Gb  Font24_MS.o [1]
acGUI_FontHZ_fontHz14_0049
                        0x08010818    0x18  Data  Gb  Font24_MS.o [1]
acGUI_FontHZ_fontHz14_004A
                        0x08010830    0x18  Data  Gb  Font24_MS.o [1]
acGUI_FontHZ_fontHz14_004B
                        0x08010848    0x30  Data  Gb  Font24_MS.o [1]
acGUI_FontHZ_fontHz14_004C
                        0x08010878    0x30  Data  Gb  Font24_MS.o [1]
acGUI_FontHZ_fontHz14_004D
                        0x080108a8    0x48  Data  Gb  Font24_MS.o [1]
acGUI_FontHZ_fontHz14_004E
                        0x080108f0    0x30  Data  Gb  Font24_MS.o [1]
acGUI_FontHZ_fontHz14_004F
                        0x08010920    0x30  Data  Gb  Font24_MS.o [1]
acGUI_FontHZ_fontHz14_0050
                        0x08010950    0x30  Data  Gb  Font24_MS.o [1]
acGUI_FontHZ_fontHz14_0051
                        0x08010980    0x30  Data  Gb  Font24_MS.o [1]
acGUI_FontHZ_fontHz14_0052
                        0x080109b0    0x30  Data  Gb  Font24_MS.o [1]
acGUI_FontHZ_fontHz14_0053
                        0x080109e0    0x30  Data  Gb  Font24_MS.o [1]
acGUI_FontHZ_fontHz14_0054
                        0x08010a10    0x30  Data  Gb  Font24_MS.o [1]
acGUI_FontHZ_fontHz14_0055
                        0x08010a40    0x30  Data  Gb  Font24_MS.o [1]
acGUI_FontHZ_fontHz14_0056
                        0x08010a70    0x30  Data  Gb  Font24_MS.o [1]
acGUI_FontHZ_fontHz14_0057
                        0x08010aa0    0x48  Data  Gb  Font24_MS.o [1]
acGUI_FontHZ_fontHz14_0058
                        0x08010ae8    0x30  Data  Gb  Font24_MS.o [1]
acGUI_FontHZ_fontHz14_0059
                        0x08010b18    0x30  Data  Gb  Font24_MS.o [1]
acGUI_FontHZ_fontHz14_005A
                        0x08010b48    0x30  Data  Gb  Font24_MS.o [1]
acGUI_FontHZ_fontHz14_005B
                        0x08010b78    0x18  Data  Gb  Font24_MS.o [1]
acGUI_FontHZ_fontHz14_005C
                        0x08010b90    0x18  Data  Gb  Font24_MS.o [1]
acGUI_FontHZ_fontHz14_005D
                        0x08010ba8    0x18  Data  Gb  Font24_MS.o [1]
acGUI_FontHZ_fontHz14_005E
                        0x08010bc0    0x30  Data  Gb  Font24_MS.o [1]
acGUI_FontHZ_fontHz14_005F
                        0x08010bf0    0x18  Data  Gb  Font24_MS.o [1]
acGUI_FontHZ_fontHz14_0060
                        0x08010c08    0x18  Data  Gb  Font24_MS.o [1]
acGUI_FontHZ_fontHz14_0061
                        0x08010c20    0x30  Data  Gb  Font24_MS.o [1]
acGUI_FontHZ_fontHz14_0062
                        0x08010c50    0x30  Data  Gb  Font24_MS.o [1]
acGUI_FontHZ_fontHz14_0063
                        0x08010c80    0x30  Data  Gb  Font24_MS.o [1]
acGUI_FontHZ_fontHz14_0064
                        0x08010cb0    0x30  Data  Gb  Font24_MS.o [1]
acGUI_FontHZ_fontHz14_0065
                        0x08010ce0    0x30  Data  Gb  Font24_MS.o [1]
acGUI_FontHZ_fontHz14_0066
                        0x08010d10    0x18  Data  Gb  Font24_MS.o [1]
acGUI_FontHZ_fontHz14_0067
                        0x08010d28    0x30  Data  Gb  Font24_MS.o [1]
acGUI_FontHZ_fontHz14_0068
                        0x08010d58    0x30  Data  Gb  Font24_MS.o [1]
acGUI_FontHZ_fontHz14_0069
                        0x08010d88    0x18  Data  Gb  Font24_MS.o [1]
acGUI_FontHZ_fontHz14_006A
                        0x08010da0    0x18  Data  Gb  Font24_MS.o [1]
acGUI_FontHZ_fontHz14_006B
                        0x08010db8    0x30  Data  Gb  Font24_MS.o [1]
acGUI_FontHZ_fontHz14_006C
                        0x08010de8    0x18  Data  Gb  Font24_MS.o [1]
acGUI_FontHZ_fontHz14_006D
                        0x08010e00    0x48  Data  Gb  Font24_MS.o [1]
acGUI_FontHZ_fontHz14_006E
                        0x08010e48    0x30  Data  Gb  Font24_MS.o [1]
acGUI_FontHZ_fontHz14_006F
                        0x08010e78    0x30  Data  Gb  Font24_MS.o [1]
acGUI_FontHZ_fontHz14_0070
                        0x08010ea8    0x30  Data  Gb  Font24_MS.o [1]
acGUI_FontHZ_fontHz14_0071
                        0x08010ed8    0x30  Data  Gb  Font24_MS.o [1]
acGUI_FontHZ_fontHz14_0072
                        0x08010f08    0x18  Data  Gb  Font24_MS.o [1]
acGUI_FontHZ_fontHz14_0073
                        0x08010f20    0x18  Data  Gb  Font24_MS.o [1]
acGUI_FontHZ_fontHz14_0074
                        0x08010f38    0x18  Data  Gb  Font24_MS.o [1]
acGUI_FontHZ_fontHz14_0075
                        0x08010f50    0x30  Data  Gb  Font24_MS.o [1]
acGUI_FontHZ_fontHz14_0076
                        0x08010f80    0x30  Data  Gb  Font24_MS.o [1]
acGUI_FontHZ_fontHz14_0077
                        0x08010fb0    0x30  Data  Gb  Font24_MS.o [1]
acGUI_FontHZ_fontHz14_0078
                        0x08010fe0    0x30  Data  Gb  Font24_MS.o [1]
acGUI_FontHZ_fontHz14_0079
                        0x08011010    0x30  Data  Gb  Font24_MS.o [1]
acGUI_FontHZ_fontHz14_007A
                        0x08011040    0x30  Data  Gb  Font24_MS.o [1]
acGUI_FontHZ_fontHz14_007B
                        0x08011070    0x18  Data  Gb  Font24_MS.o [1]
acGUI_FontHZ_fontHz14_007C
                        0x08011088    0x18  Data  Gb  Font24_MS.o [1]
acGUI_FontHZ_fontHz14_007D
                        0x080110a0    0x18  Data  Gb  Font24_MS.o [1]
acGUI_FontHZ_fontHz14_007E
                        0x080110b8    0x30  Data  Gb  Font24_MS.o [1]
acGUI_FontHZ_fontHz14_007F
                        0x080110e8    0x18  Data  Gb  Font24_MS.o [1]
acGUI_FontHZ_fontHz14_00A0
                        0x08011100    0x18  Data  Gb  Font24_MS.o [1]
acGUI_FontHZ_fontHz14_00A1
                        0x08011118    0x18  Data  Gb  Font24_MS.o [1]
acGUI_FontHZ_fontHz14_00A2
                        0x08011130    0x30  Data  Gb  Font24_MS.o [1]
acGUI_FontHZ_fontHz14_00A3
                        0x08011160    0x30  Data  Gb  Font24_MS.o [1]
acGUI_FontHZ_fontHz14_00A4
                        0x08011190    0x30  Data  Gb  Font24_MS.o [1]
acGUI_FontHZ_fontHz14_00A5
                        0x080111c0    0x30  Data  Gb  Font24_MS.o [1]
acGUI_FontHZ_fontHz14_00A6
                        0x080111f0    0x18  Data  Gb  Font24_MS.o [1]
acGUI_FontHZ_fontHz14_00A7
                        0x08011208    0x30  Data  Gb  Font24_MS.o [1]
acGUI_FontHZ_fontHz14_00A8
                        0x08011238    0x18  Data  Gb  Font24_MS.o [1]
acGUI_FontHZ_fontHz14_00A9
                        0x08011250    0x48  Data  Gb  Font24_MS.o [1]
acGUI_FontHZ_fontHz14_00AA
                        0x08011298    0x18  Data  Gb  Font24_MS.o [1]
acGUI_FontHZ_fontHz14_00AB
                        0x080112b0    0x30  Data  Gb  Font24_MS.o [1]
acGUI_FontHZ_fontHz14_00AC
                        0x080112e0    0x30  Data  Gb  Font24_MS.o [1]
acGUI_FontHZ_fontHz14_00AD
                        0x08011310    0x18  Data  Gb  Font24_MS.o [1]
acGUI_FontHZ_fontHz14_00AE
                        0x08011328    0x48  Data  Gb  Font24_MS.o [1]
acGUI_FontHZ_fontHz14_00AF
                        0x08011370    0x18  Data  Gb  Font24_MS.o [1]
acGUI_FontHZ_fontHz14_00B0
                        0x08011388    0x18  Data  Gb  Font24_MS.o [1]
acGUI_FontHZ_fontHz14_00B1
                        0x080113a0    0x30  Data  Gb  Font24_MS.o [1]
acGUI_FontHZ_fontHz14_00B2
                        0x080113d0    0x18  Data  Gb  Font24_MS.o [1]
acGUI_FontHZ_fontHz14_00B3
                        0x080113e8    0x18  Data  Gb  Font24_MS.o [1]
acGUI_FontHZ_fontHz14_00B4
                        0x08011400    0x18  Data  Gb  Font24_MS.o [1]
acGUI_FontHZ_fontHz14_00B5
                        0x08011418    0x30  Data  Gb  Font24_MS.o [1]
acGUI_FontHZ_fontHz14_00B6
                        0x08011448    0x30  Data  Gb  Font24_MS.o [1]
acGUI_FontHZ_fontHz14_00B7
                        0x08011478    0x18  Data  Gb  Font24_MS.o [1]
acGUI_FontHZ_fontHz14_00B8
                        0x08011490    0x18  Data  Gb  Font24_MS.o [1]
acGUI_FontHZ_fontHz14_00B9
                        0x080114a8    0x18  Data  Gb  Font24_MS.o [1]
acGUI_FontHZ_fontHz14_00BA
                        0x080114c0    0x18  Data  Gb  Font24_MS.o [1]
acGUI_FontHZ_fontHz14_00BB
                        0x080114d8    0x30  Data  Gb  Font24_MS.o [1]
acGUI_FontHZ_fontHz14_00BC
                        0x08011508    0x48  Data  Gb  Font24_MS.o [1]
acGUI_FontHZ_fontHz14_00BD
                        0x08011550    0x48  Data  Gb  Font24_MS.o [1]
acGUI_FontHZ_fontHz14_00BE
                        0x08011598    0x48  Data  Gb  Font24_MS.o [1]
acGUI_FontHZ_fontHz14_00BF
                        0x080115e0    0x30  Data  Gb  Font24_MS.o [1]
acGUI_FontHZ_fontHz14_00C0
                        0x08011610    0x30  Data  Gb  Font24_MS.o [1]
acGUI_FontHZ_fontHz14_00C1
                        0x08011640    0x30  Data  Gb  Font24_MS.o [1]
acGUI_FontHZ_fontHz14_00C2
                        0x08011670    0x30  Data  Gb  Font24_MS.o [1]
acGUI_FontHZ_fontHz14_00C3
                        0x080116a0    0x30  Data  Gb  Font24_MS.o [1]
acGUI_FontHZ_fontHz14_00C4
                        0x080116d0    0x30  Data  Gb  Font24_MS.o [1]
acGUI_FontHZ_fontHz14_00C5
                        0x08011700    0x30  Data  Gb  Font24_MS.o [1]
acGUI_FontHZ_fontHz14_00C6
                        0x08011730    0x48  Data  Gb  Font24_MS.o [1]
acGUI_FontHZ_fontHz14_00C7
                        0x08011778    0x30  Data  Gb  Font24_MS.o [1]
acGUI_FontHZ_fontHz14_00C8
                        0x080117a8    0x30  Data  Gb  Font24_MS.o [1]
acGUI_FontHZ_fontHz14_00C9
                        0x080117d8    0x30  Data  Gb  Font24_MS.o [1]
acGUI_FontHZ_fontHz14_00CA
                        0x08011808    0x30  Data  Gb  Font24_MS.o [1]
acGUI_FontHZ_fontHz14_00CB
                        0x08011838    0x30  Data  Gb  Font24_MS.o [1]
acGUI_FontHZ_fontHz14_00CC
                        0x08011868    0x18  Data  Gb  Font24_MS.o [1]
acGUI_FontHZ_fontHz14_00CD
                        0x08011880    0x18  Data  Gb  Font24_MS.o [1]
acGUI_FontHZ_fontHz14_00CE
                        0x08011898    0x18  Data  Gb  Font24_MS.o [1]
acGUI_FontHZ_fontHz14_00CF
                        0x080118b0    0x18  Data  Gb  Font24_MS.o [1]
acGUI_FontHZ_fontHz14_00D0
                        0x080118c8    0x30  Data  Gb  Font24_MS.o [1]
acGUI_FontHZ_fontHz14_00D1
                        0x080118f8    0x30  Data  Gb  Font24_MS.o [1]
acGUI_FontHZ_fontHz14_00D2
                        0x08011928    0x30  Data  Gb  Font24_MS.o [1]
acGUI_FontHZ_fontHz14_00D3
                        0x08011958    0x30  Data  Gb  Font24_MS.o [1]
acGUI_FontHZ_fontHz14_00D4
                        0x08011988    0x30  Data  Gb  Font24_MS.o [1]
acGUI_FontHZ_fontHz14_00D5
                        0x080119b8    0x30  Data  Gb  Font24_MS.o [1]
acGUI_FontHZ_fontHz14_00D6
                        0x080119e8    0x30  Data  Gb  Font24_MS.o [1]
acGUI_FontHZ_fontHz14_00D7
                        0x08011a18    0x30  Data  Gb  Font24_MS.o [1]
acGUI_FontHZ_fontHz14_00D8
                        0x08011a48    0x30  Data  Gb  Font24_MS.o [1]
acGUI_FontHZ_fontHz14_00D9
                        0x08011a78    0x30  Data  Gb  Font24_MS.o [1]
acGUI_FontHZ_fontHz14_00DA
                        0x08011aa8    0x30  Data  Gb  Font24_MS.o [1]
acGUI_FontHZ_fontHz14_00DB
                        0x08011ad8    0x30  Data  Gb  Font24_MS.o [1]
acGUI_FontHZ_fontHz14_00DC
                        0x08011b08    0x30  Data  Gb  Font24_MS.o [1]
acGUI_FontHZ_fontHz14_00DD
                        0x08011b38    0x30  Data  Gb  Font24_MS.o [1]
acGUI_FontHZ_fontHz14_00DE
                        0x08011b68    0x30  Data  Gb  Font24_MS.o [1]
acGUI_FontHZ_fontHz14_00DF
                        0x08011b98    0x30  Data  Gb  Font24_MS.o [1]
acGUI_FontHZ_fontHz14_00E0
                        0x08011bc8    0x30  Data  Gb  Font24_MS.o [1]
acGUI_FontHZ_fontHz14_00E1
                        0x08011bf8    0x30  Data  Gb  Font24_MS.o [1]
acGUI_FontHZ_fontHz14_00E2
                        0x08011c28    0x30  Data  Gb  Font24_MS.o [1]
acGUI_FontHZ_fontHz14_00E3
                        0x08011c58    0x30  Data  Gb  Font24_MS.o [1]
acGUI_FontHZ_fontHz14_00E4
                        0x08011c88    0x30  Data  Gb  Font24_MS.o [1]
acGUI_FontHZ_fontHz14_00E5
                        0x08011cb8    0x30  Data  Gb  Font24_MS.o [1]
acGUI_FontHZ_fontHz14_00E6
                        0x08011ce8    0x30  Data  Gb  Font24_MS.o [1]
acGUI_FontHZ_fontHz14_00E7
                        0x08011d18    0x30  Data  Gb  Font24_MS.o [1]
acGUI_FontHZ_fontHz14_00E8
                        0x08011d48    0x30  Data  Gb  Font24_MS.o [1]
acGUI_FontHZ_fontHz14_00E9
                        0x08011d78    0x30  Data  Gb  Font24_MS.o [1]
acGUI_FontHZ_fontHz14_00EA
                        0x08011da8    0x30  Data  Gb  Font24_MS.o [1]
acGUI_FontHZ_fontHz14_00EB
                        0x08011dd8    0x30  Data  Gb  Font24_MS.o [1]
acGUI_FontHZ_fontHz14_00EC
                        0x08011e08    0x18  Data  Gb  Font24_MS.o [1]
acGUI_FontHZ_fontHz14_00ED
                        0x08011e20    0x18  Data  Gb  Font24_MS.o [1]
acGUI_FontHZ_fontHz14_00EE
                        0x08011e38    0x18  Data  Gb  Font24_MS.o [1]
acGUI_FontHZ_fontHz14_00EF
                        0x08011e50    0x18  Data  Gb  Font24_MS.o [1]
acGUI_FontHZ_fontHz14_00F0
                        0x08011e68    0x30  Data  Gb  Font24_MS.o [1]
acGUI_FontHZ_fontHz14_00F1
                        0x08011e98    0x30  Data  Gb  Font24_MS.o [1]
acGUI_FontHZ_fontHz14_00F2
                        0x08011ec8    0x30  Data  Gb  Font24_MS.o [1]
acGUI_FontHZ_fontHz14_00F3
                        0x08011ef8    0x30  Data  Gb  Font24_MS.o [1]
acGUI_FontHZ_fontHz14_00F4
                        0x08011f28    0x30  Data  Gb  Font24_MS.o [1]
acGUI_FontHZ_fontHz14_00F5
                        0x08011f58    0x30  Data  Gb  Font24_MS.o [1]
acGUI_FontHZ_fontHz14_00F6
                        0x08011f88    0x30  Data  Gb  Font24_MS.o [1]
acGUI_FontHZ_fontHz14_00F7
                        0x08011fb8    0x30  Data  Gb  Font24_MS.o [1]
acGUI_FontHZ_fontHz14_00F8
                        0x08011fe8    0x30  Data  Gb  Font24_MS.o [1]
acGUI_FontHZ_fontHz14_00F9
                        0x08012018    0x30  Data  Gb  Font24_MS.o [1]
acGUI_FontHZ_fontHz14_00FA
                        0x08012048    0x30  Data  Gb  Font24_MS.o [1]
acGUI_FontHZ_fontHz14_00FB
                        0x08012078    0x30  Data  Gb  Font24_MS.o [1]
acGUI_FontHZ_fontHz14_00FC
                        0x080120a8    0x30  Data  Gb  Font24_MS.o [1]
acGUI_FontHZ_fontHz14_00FD
                        0x080120d8    0x30  Data  Gb  Font24_MS.o [1]
acGUI_FontHZ_fontHz14_00FE
                        0x08012108    0x30  Data  Gb  Font24_MS.o [1]
acGUI_FontHZ_fontHz14_00FF
                        0x08012138    0x30  Data  Gb  Font24_MS.o [1]
acGUI_FontHZ_fontHz14_0100
                        0x08012168    0x30  Data  Gb  Font24_MS.o [1]
acGUI_FontHZ_fontHz14_0101
                        0x08012198    0x30  Data  Gb  Font24_MS.o [1]
acGUI_FontHZ_fontHz14_0102
                        0x080121c8    0x30  Data  Gb  Font24_MS.o [1]
acGUI_FontHZ_fontHz14_0103
                        0x080121f8    0x30  Data  Gb  Font24_MS.o [1]
acGUI_FontHZ_fontHz14_0104
                        0x08012228    0x30  Data  Gb  Font24_MS.o [1]
acGUI_FontHZ_fontHz14_0105
                        0x08012258    0x30  Data  Gb  Font24_MS.o [1]
acGUI_FontHZ_fontHz14_0106
                        0x08012288    0x30  Data  Gb  Font24_MS.o [1]
acGUI_FontHZ_fontHz14_0107
                        0x080122b8    0x30  Data  Gb  Font24_MS.o [1]
acGUI_FontHZ_fontHz14_0108
                        0x080122e8    0x30  Data  Gb  Font24_MS.o [1]
acGUI_FontHZ_fontHz14_0109
                        0x08012318    0x30  Data  Gb  Font24_MS.o [1]
acGUI_FontHZ_fontHz14_010A
                        0x08012348    0x30  Data  Gb  Font24_MS.o [1]
acGUI_FontHZ_fontHz14_010B
                        0x08012378    0x30  Data  Gb  Font24_MS.o [1]
acGUI_FontHZ_fontHz14_010C
                        0x080123a8    0x30  Data  Gb  Font24_MS.o [1]
acGUI_FontHZ_fontHz14_010D
                        0x080123d8    0x30  Data  Gb  Font24_MS.o [1]
acGUI_FontHZ_fontHz14_010E
                        0x08012408    0x30  Data  Gb  Font24_MS.o [1]
acGUI_FontHZ_fontHz14_010F
                        0x08012438    0x30  Data  Gb  Font24_MS.o [1]
acGUI_FontHZ_fontHz14_0110
                        0x08012468    0x30  Data  Gb  Font24_MS.o [1]
acGUI_FontHZ_fontHz14_0111
                        0x08012498    0x30  Data  Gb  Font24_MS.o [1]
acGUI_FontHZ_fontHz14_0112
                        0x080124c8    0x30  Data  Gb  Font24_MS.o [1]
acGUI_FontHZ_fontHz14_0113
                        0x080124f8    0x30  Data  Gb  Font24_MS.o [1]
acGUI_FontHZ_fontHz14_0114
                        0x08012528    0x30  Data  Gb  Font24_MS.o [1]
acGUI_FontHZ_fontHz14_0115
                        0x08012558    0x30  Data  Gb  Font24_MS.o [1]
acGUI_FontHZ_fontHz14_0116
                        0x08012588    0x30  Data  Gb  Font24_MS.o [1]
acGUI_FontHZ_fontHz14_0117
                        0x080125b8    0x30  Data  Gb  Font24_MS.o [1]
acGUI_FontHZ_fontHz14_0118
                        0x080125e8    0x30  Data  Gb  Font24_MS.o [1]
acGUI_FontHZ_fontHz14_0119
                        0x08012618    0x30  Data  Gb  Font24_MS.o [1]
acGUI_FontHZ_fontHz14_011A
                        0x08012648    0x30  Data  Gb  Font24_MS.o [1]
acGUI_FontHZ_fontHz14_011B
                        0x08012678    0x30  Data  Gb  Font24_MS.o [1]
acGUI_FontHZ_fontHz14_011C
                        0x080126a8    0x30  Data  Gb  Font24_MS.o [1]
acGUI_FontHZ_fontHz14_011D
                        0x080126d8    0x30  Data  Gb  Font24_MS.o [1]
acGUI_FontHZ_fontHz14_011E
                        0x08012708    0x30  Data  Gb  Font24_MS.o [1]
acGUI_FontHZ_fontHz14_011F
                        0x08012738    0x30  Data  Gb  Font24_MS.o [1]
acGUI_FontHZ_fontHz14_0120
                        0x08012768    0x30  Data  Gb  Font24_MS.o [1]
acGUI_FontHZ_fontHz14_0121
                        0x08012798    0x30  Data  Gb  Font24_MS.o [1]
acGUI_FontHZ_fontHz14_0122
                        0x080127c8    0x30  Data  Gb  Font24_MS.o [1]
acGUI_FontHZ_fontHz14_0123
                        0x080127f8    0x30  Data  Gb  Font24_MS.o [1]
acGUI_FontHZ_fontHz14_0124
                        0x08012828    0x30  Data  Gb  Font24_MS.o [1]
acGUI_FontHZ_fontHz14_0125
                        0x08012858    0x30  Data  Gb  Font24_MS.o [1]
acGUI_FontHZ_fontHz14_0126
                        0x08012888    0x30  Data  Gb  Font24_MS.o [1]
acGUI_FontHZ_fontHz14_0127
                        0x080128b8    0x30  Data  Gb  Font24_MS.o [1]
acGUI_FontHZ_fontHz14_012B
                        0x080128e8    0x18  Data  Gb  Font24_MS.o [1]
acGUI_FontHZ_fontHz14_012E
                        0x08012900    0x18  Data  Gb  Font24_MS.o [1]
acGUI_FontHZ_fontHz14_012F
                        0x08012918    0x18  Data  Gb  Font24_MS.o [1]
acGUI_FontHZ_fontHz14_0130
                        0x08012930    0x18  Data  Gb  Font24_MS.o [1]
acGUI_FontHZ_fontHz14_0131
                        0x08012948    0x18  Data  Gb  Font24_MS.o [1]
acGUI_FontHZ_fontHz14_0132
                        0x08012960    0x30  Data  Gb  Font24_MS.o [1]
acGUI_FontHZ_fontHz14_0133
                        0x08012990    0x30  Data  Gb  Font24_MS.o [1]
acGUI_FontHZ_fontHz14_0134
                        0x080129c0    0x18  Data  Gb  Font24_MS.o [1]
acGUI_FontHZ_fontHz14_0135
                        0x080129d8    0x18  Data  Gb  Font24_MS.o [1]
acGUI_FontHZ_fontHz14_0136
                        0x080129f0    0x30  Data  Gb  Font24_MS.o [1]
acGUI_FontHZ_fontHz14_0137
                        0x08012a20    0x30  Data  Gb  Font24_MS.o [1]
acGUI_FontHZ_fontHz14_0138
                        0x08012a50    0x30  Data  Gb  Font24_MS.o [1]
acGUI_FontHZ_fontHz14_0139
                        0x08012a80    0x30  Data  Gb  Font24_MS.o [1]
acGUI_FontHZ_fontHz14_013A
                        0x08012ab0    0x18  Data  Gb  Font24_MS.o [1]
acGUI_FontHZ_fontHz14_013C
                        0x08012ac8    0x18  Data  Gb  Font24_MS.o [1]
acGUI_FontHZ_fontHz14_013D
                        0x08012ae0    0x30  Data  Gb  Font24_MS.o [1]
acGUI_FontHZ_fontHz14_013E
                        0x08012b10    0x18  Data  Gb  Font24_MS.o [1]
acGUI_FontHZ_fontHz14_013F
                        0x08012b28    0x30  Data  Gb  Font24_MS.o [1]
acGUI_FontHZ_fontHz14_0140
                        0x08012b58    0x18  Data  Gb  Font24_MS.o [1]
acGUI_FontHZ_fontHz14_0141
                        0x08012b70    0x30  Data  Gb  Font24_MS.o [1]
acGUI_FontHZ_fontHz14_0142
                        0x08012ba0    0x18  Data  Gb  Font24_MS.o [1]
acGUI_FontHZ_fontHz14_0143
                        0x08012bb8    0x30  Data  Gb  Font24_MS.o [1]
acGUI_FontHZ_fontHz14_0144
                        0x08012be8    0x30  Data  Gb  Font24_MS.o [1]
acGUI_FontHZ_fontHz14_0145
                        0x08012c18    0x30  Data  Gb  Font24_MS.o [1]
acGUI_FontHZ_fontHz14_0146
                        0x08012c48    0x30  Data  Gb  Font24_MS.o [1]
acGUI_FontHZ_fontHz14_0147
                        0x08012c78    0x30  Data  Gb  Font24_MS.o [1]
acGUI_FontHZ_fontHz14_0148
                        0x08012ca8    0x30  Data  Gb  Font24_MS.o [1]
acGUI_FontHZ_fontHz14_0149
                        0x08012cd8    0x30  Data  Gb  Font24_MS.o [1]
acGUI_FontHZ_fontHz14_014A
                        0x08012d08    0x30  Data  Gb  Font24_MS.o [1]
acGUI_FontHZ_fontHz14_014B
                        0x08012d38    0x30  Data  Gb  Font24_MS.o [1]
acGUI_FontHZ_fontHz14_014C
                        0x08012d68    0x30  Data  Gb  Font24_MS.o [1]
acGUI_FontHZ_fontHz14_014D
                        0x08012d98    0x30  Data  Gb  Font24_MS.o [1]
acGUI_FontHZ_fontHz14_014E
                        0x08012dc8    0x30  Data  Gb  Font24_MS.o [1]
acGUI_FontHZ_fontHz14_014F
                        0x08012df8    0x30  Data  Gb  Font24_MS.o [1]
acGUI_FontHZ_fontHz14_0150
                        0x08012e28    0x30  Data  Gb  Font24_MS.o [1]
acGUI_FontHZ_fontHz14_0151
                        0x08012e58    0x30  Data  Gb  Font24_MS.o [1]
acGUI_FontHZ_fontHz14_0152
                        0x08012e88    0x48  Data  Gb  Font24_MS.o [1]
acGUI_FontHZ_fontHz14_0153
                        0x08012ed0    0x48  Data  Gb  Font24_MS.o [1]
acGUI_FontHZ_fontHz14_0154
                        0x08012f18    0x30  Data  Gb  Font24_MS.o [1]
acGUI_FontHZ_fontHz14_0155
                        0x08012f48    0x18  Data  Gb  Font24_MS.o [1]
acGUI_FontHZ_fontHz14_0156
                        0x08012f60    0x30  Data  Gb  Font24_MS.o [1]
acGUI_FontHZ_fontHz14_0157
                        0x08012f90    0x18  Data  Gb  Font24_MS.o [1]
acGUI_FontHZ_fontHz14_0158
                        0x08012fa8    0x30  Data  Gb  Font24_MS.o [1]
acGUI_FontHZ_fontHz14_0159
                        0x08012fd8    0x18  Data  Gb  Font24_MS.o [1]
acGUI_FontHZ_fontHz14_015A
                        0x08012ff0    0x30  Data  Gb  Font24_MS.o [1]
acGUI_FontHZ_fontHz14_015B
                        0x08013020    0x18  Data  Gb  Font24_MS.o [1]
acGUI_FontHZ_fontHz14_015C
                        0x08013038    0x30  Data  Gb  Font24_MS.o [1]
acGUI_FontHZ_fontHz14_015D
                        0x08013068    0x18  Data  Gb  Font24_MS.o [1]
acGUI_FontHZ_fontHz14_015E
                        0x08013080    0x30  Data  Gb  Font24_MS.o [1]
acGUI_FontHZ_fontHz14_015F
                        0x080130b0    0x18  Data  Gb  Font24_MS.o [1]
acGUI_FontHZ_fontHz14_0160
                        0x080130c8    0x30  Data  Gb  Font24_MS.o [1]
acGUI_FontHZ_fontHz14_0161
                        0x080130f8    0x18  Data  Gb  Font24_MS.o [1]
acGUI_FontHZ_fontHz14_0162
                        0x08013110    0x30  Data  Gb  Font24_MS.o [1]
acGUI_FontHZ_fontHz14_0163
                        0x08013140    0x18  Data  Gb  Font24_MS.o [1]
acGUI_FontHZ_fontHz14_0164
                        0x08013158    0x30  Data  Gb  Font24_MS.o [1]
acGUI_FontHZ_fontHz14_0165
                        0x08013188    0x18  Data  Gb  Font24_MS.o [1]
acGUI_FontHZ_fontHz14_0166
                        0x080131a0    0x30  Data  Gb  Font24_MS.o [1]
acGUI_FontHZ_fontHz14_0167
                        0x080131d0    0x18  Data  Gb  Font24_MS.o [1]
acGUI_FontHZ_fontHz14_0168
                        0x080131e8    0x30  Data  Gb  Font24_MS.o [1]
acGUI_FontHZ_fontHz14_0169
                        0x08013218    0x30  Data  Gb  Font24_MS.o [1]
acGUI_FontHZ_fontHz14_016A
                        0x08013248    0x30  Data  Gb  Font24_MS.o [1]
acGUI_FontHZ_fontHz14_016B
                        0x08013278    0x30  Data  Gb  Font24_MS.o [1]
acGUI_FontHZ_fontHz14_016C
                        0x080132a8    0x30  Data  Gb  Font24_MS.o [1]
acGUI_FontHZ_fontHz14_016D
                        0x080132d8    0x30  Data  Gb  Font24_MS.o [1]
acGUI_FontHZ_fontHz14_016E
                        0x08013308    0x30  Data  Gb  Font24_MS.o [1]
acGUI_FontHZ_fontHz14_016F
                        0x08013338    0x30  Data  Gb  Font24_MS.o [1]
acGUI_FontHZ_fontHz14_0170
                        0x08013368    0x30  Data  Gb  Font24_MS.o [1]
acGUI_FontHZ_fontHz14_0171
                        0x08013398    0x30  Data  Gb  Font24_MS.o [1]
acGUI_FontHZ_fontHz14_0172
                        0x080133c8    0x30  Data  Gb  Font24_MS.o [1]
acGUI_FontHZ_fontHz14_0173
                        0x080133f8    0x30  Data  Gb  Font24_MS.o [1]
acGUI_FontHZ_fontHz14_0174
                        0x08013428    0x48  Data  Gb  Font24_MS.o [1]
acGUI_FontHZ_fontHz14_0175
                        0x08013470    0x30  Data  Gb  Font24_MS.o [1]
acGUI_FontHZ_fontHz14_0176
                        0x080134a0    0x30  Data  Gb  Font24_MS.o [1]
acGUI_FontHZ_fontHz14_0177
                        0x080134d0    0x30  Data  Gb  Font24_MS.o [1]
acGUI_FontHZ_fontHz14_0178
                        0x08013500    0x30  Data  Gb  Font24_MS.o [1]
acGUI_FontHZ_fontHz14_0179
                        0x08013530    0x30  Data  Gb  Font24_MS.o [1]
acGUI_FontHZ_fontHz14_017A
                        0x08013560    0x30  Data  Gb  Font24_MS.o [1]
acGUI_FontHZ_fontHz14_017B
                        0x08013590    0x30  Data  Gb  Font24_MS.o [1]
acGUI_FontHZ_fontHz14_017C
                        0x080135c0    0x30  Data  Gb  Font24_MS.o [1]
acGUI_FontHZ_fontHz14_017D
                        0x080135f0    0x30  Data  Gb  Font24_MS.o [1]
acGUI_FontHZ_fontHz14_017E
                        0x08013620    0x30  Data  Gb  Font24_MS.o [1]
acGUI_FontHZ_fontHz14_017F
                        0x08013650    0x18  Data  Gb  Font24_MS.o [1]
acGUI_FontHZ_fontHz14_01CE
                        0x08013668    0x30  Data  Gb  Font24_MS.o [1]
acGUI_FontHZ_fontHz14_01D0
                        0x08013698    0x18  Data  Gb  Font24_MS.o [1]
acGUI_FontHZ_fontHz14_01D2
                        0x080136b0    0x30  Data  Gb  Font24_MS.o [1]
acGUI_FontHZ_fontHz14_01D4
                        0x080136e0    0x30  Data  Gb  Font24_MS.o [1]
acGUI_FontHZ_fontHz14_01D6
                        0x08013710    0x30  Data  Gb  Font24_MS.o [1]
acGUI_FontHZ_fontHz14_01D8
                        0x08013740    0x30  Data  Gb  Font24_MS.o [1]
acGUI_FontHZ_fontHz14_01DA
                        0x08013770    0x30  Data  Gb  Font24_MS.o [1]
acGUI_FontHZ_fontHz14_01DC
                        0x080137a0    0x30  Data  Gb  Font24_MS.o [1]
acGUI_FontHZ_fontHz14_01F9
                        0x080137d0    0x30  Data  Gb  Font24_MS.o [1]
acGUI_FontHZ_fontHz14_01FB
                        0x08013800    0x30  Data  Gb  Font24_MS.o [1]
acGUI_FontHZ_fontHz14_01FC
                        0x08013830    0x48  Data  Gb  Font24_MS.o [1]
acGUI_FontHZ_fontHz14_01FD
                        0x08013878    0x30  Data  Gb  Font24_MS.o [1]
acGUI_FontHZ_fontHz14_01FE
                        0x080138a8    0x30  Data  Gb  Font24_MS.o [1]
acGUI_FontHZ_fontHz14_0218
                        0x080138d8    0x30  Data  Gb  Font24_MS.o [1]
acGUI_FontHZ_fontHz14_0219
                        0x08013908    0x18  Data  Gb  Font24_MS.o [1]
acGUI_FontHZ_fontHz14_0251
                        0x08013920    0x30  Data  Gb  Font24_MS.o [1]
acGUI_FontHZ_fontHz14_0261
                        0x08013950    0x30  Data  Gb  Font24_MS.o [1]
acGUI_FontHZ_fontHz14_0401
                        0x08013980    0x30  Data  Gb  Font24_MS.o [1]
acGUI_FontHZ_fontHz14_0402
                        0x080139b0    0x30  Data  Gb  Font24_MS.o [1]
acGUI_FontHZ_fontHz14_0403
                        0x080139e0    0x30  Data  Gb  Font24_MS.o [1]
acGUI_FontHZ_fontHz14_0404
                        0x08013a10    0x30  Data  Gb  Font24_MS.o [1]
acGUI_FontHZ_fontHz14_0405
                        0x08013a40    0x30  Data  Gb  Font24_MS.o [1]
acGUI_FontHZ_fontHz14_0406
                        0x08013a70    0x18  Data  Gb  Font24_MS.o [1]
acGUI_FontHZ_fontHz14_0407
                        0x08013a88    0x18  Data  Gb  Font24_MS.o [1]
acGUI_FontHZ_fontHz14_0408
                        0x08013aa0    0x18  Data  Gb  Font24_MS.o [1]
acGUI_FontHZ_fontHz14_0409
                        0x08013ab8    0x48  Data  Gb  Font24_MS.o [1]
acGUI_FontHZ_fontHz14_040A
                        0x08013b00    0x48  Data  Gb  Font24_MS.o [1]
acGUI_FontHZ_fontHz14_040B
                        0x08013b48    0x30  Data  Gb  Font24_MS.o [1]
acGUI_FontHZ_fontHz14_040C
                        0x08013b78    0x30  Data  Gb  Font24_MS.o [1]
acGUI_FontHZ_fontHz14_040E
                        0x08013ba8    0x30  Data  Gb  Font24_MS.o [1]
acGUI_FontHZ_fontHz14_040F
                        0x08013bd8    0x30  Data  Gb  Font24_MS.o [1]
acGUI_FontHZ_fontHz14_0410
                        0x08013c08    0x30  Data  Gb  Font24_MS.o [1]
acGUI_FontHZ_fontHz14_0411
                        0x08013c38    0x30  Data  Gb  Font24_MS.o [1]
acGUI_FontHZ_fontHz14_0412
                        0x08013c68    0x30  Data  Gb  Font24_MS.o [1]
acGUI_FontHZ_fontHz14_0413
                        0x08013c98    0x30  Data  Gb  Font24_MS.o [1]
acGUI_FontHZ_fontHz14_0414
                        0x08013cc8    0x30  Data  Gb  Font24_MS.o [1]
acGUI_FontHZ_fontHz14_0415
                        0x08013cf8    0x30  Data  Gb  Font24_MS.o [1]
acGUI_FontHZ_fontHz14_0416
                        0x08013d28    0x48  Data  Gb  Font24_MS.o [1]
acGUI_FontHZ_fontHz14_0417
                        0x08013d70    0x30  Data  Gb  Font24_MS.o [1]
acGUI_FontHZ_fontHz14_0418
                        0x08013da0    0x30  Data  Gb  Font24_MS.o [1]
acGUI_FontHZ_fontHz14_0419
                        0x08013dd0    0x30  Data  Gb  Font24_MS.o [1]
acGUI_FontHZ_fontHz14_041A
                        0x08013e00    0x30  Data  Gb  Font24_MS.o [1]
acGUI_FontHZ_fontHz14_041B
                        0x08013e30    0x30  Data  Gb  Font24_MS.o [1]
acGUI_FontHZ_fontHz14_041C
                        0x08013e60    0x48  Data  Gb  Font24_MS.o [1]
acGUI_FontHZ_fontHz14_041D
                        0x08013ea8    0x30  Data  Gb  Font24_MS.o [1]
acGUI_FontHZ_fontHz14_041E
                        0x08013ed8    0x30  Data  Gb  Font24_MS.o [1]
acGUI_FontHZ_fontHz14_041F
                        0x08013f08    0x30  Data  Gb  Font24_MS.o [1]
acGUI_FontHZ_fontHz14_0420
                        0x08013f38    0x30  Data  Gb  Font24_MS.o [1]
acGUI_FontHZ_fontHz14_0421
                        0x08013f68    0x30  Data  Gb  Font24_MS.o [1]
acGUI_FontHZ_fontHz14_0422
                        0x08013f98    0x30  Data  Gb  Font24_MS.o [1]
acGUI_FontHZ_fontHz14_0423
                        0x08013fc8    0x30  Data  Gb  Font24_MS.o [1]
acGUI_FontHZ_fontHz14_0424
                        0x08013ff8    0x30  Data  Gb  Font24_MS.o [1]
acGUI_FontHZ_fontHz14_0425
                        0x08014028    0x30  Data  Gb  Font24_MS.o [1]
acGUI_FontHZ_fontHz14_0426
                        0x08014058    0x30  Data  Gb  Font24_MS.o [1]
acGUI_FontHZ_fontHz14_0427
                        0x08014088    0x30  Data  Gb  Font24_MS.o [1]
acGUI_FontHZ_fontHz14_0428
                        0x080140b8    0x48  Data  Gb  Font24_MS.o [1]
acGUI_FontHZ_fontHz14_0429
                        0x08014100    0x48  Data  Gb  Font24_MS.o [1]
acGUI_FontHZ_fontHz14_042A
                        0x08014148    0x30  Data  Gb  Font24_MS.o [1]
acGUI_FontHZ_fontHz14_042B
                        0x08014178    0x30  Data  Gb  Font24_MS.o [1]
acGUI_FontHZ_fontHz14_042C
                        0x080141a8    0x30  Data  Gb  Font24_MS.o [1]
acGUI_FontHZ_fontHz14_042D
                        0x080141d8    0x30  Data  Gb  Font24_MS.o [1]
acGUI_FontHZ_fontHz14_042E
                        0x08014208    0x48  Data  Gb  Font24_MS.o [1]
acGUI_FontHZ_fontHz14_042F
                        0x08014250    0x30  Data  Gb  Font24_MS.o [1]
acGUI_FontHZ_fontHz14_0430
                        0x08014280    0x30  Data  Gb  Font24_MS.o [1]
acGUI_FontHZ_fontHz14_0431
                        0x080142b0    0x30  Data  Gb  Font24_MS.o [1]
acGUI_FontHZ_fontHz14_0432
                        0x080142e0    0x30  Data  Gb  Font24_MS.o [1]
acGUI_FontHZ_fontHz14_0433
                        0x08014310    0x18  Data  Gb  Font24_MS.o [1]
acGUI_FontHZ_fontHz14_0434
                        0x08014328    0x30  Data  Gb  Font24_MS.o [1]
acGUI_FontHZ_fontHz14_0435
                        0x08014358    0x30  Data  Gb  Font24_MS.o [1]
acGUI_FontHZ_fontHz14_0436
                        0x08014388    0x30  Data  Gb  Font24_MS.o [1]
acGUI_FontHZ_fontHz14_0437
                        0x080143b8    0x30  Data  Gb  Font24_MS.o [1]
acGUI_FontHZ_fontHz14_0438
                        0x080143e8    0x30  Data  Gb  Font24_MS.o [1]
acGUI_FontHZ_fontHz14_0439
                        0x08014418    0x30  Data  Gb  Font24_MS.o [1]
acGUI_FontHZ_fontHz14_043A
                        0x08014448    0x30  Data  Gb  Font24_MS.o [1]
acGUI_FontHZ_fontHz14_043B
                        0x08014478    0x30  Data  Gb  Font24_MS.o [1]
acGUI_FontHZ_fontHz14_043C
                        0x080144a8    0x30  Data  Gb  Font24_MS.o [1]
acGUI_FontHZ_fontHz14_043D
                        0x080144d8    0x30  Data  Gb  Font24_MS.o [1]
acGUI_FontHZ_fontHz14_043E
                        0x08014508    0x30  Data  Gb  Font24_MS.o [1]
acGUI_FontHZ_fontHz14_043F
                        0x08014538    0x30  Data  Gb  Font24_MS.o [1]
acGUI_FontHZ_fontHz14_0440
                        0x08014568    0x30  Data  Gb  Font24_MS.o [1]
acGUI_FontHZ_fontHz14_0441
                        0x08014598    0x30  Data  Gb  Font24_MS.o [1]
acGUI_FontHZ_fontHz14_0442
                        0x080145c8    0x18  Data  Gb  Font24_MS.o [1]
acGUI_FontHZ_fontHz14_0443
                        0x080145e0    0x30  Data  Gb  Font24_MS.o [1]
acGUI_FontHZ_fontHz14_0444
                        0x08014610    0x30  Data  Gb  Font24_MS.o [1]
acGUI_FontHZ_fontHz14_0445
                        0x08014640    0x30  Data  Gb  Font24_MS.o [1]
acGUI_FontHZ_fontHz14_0446
                        0x08014670    0x30  Data  Gb  Font24_MS.o [1]
acGUI_FontHZ_fontHz14_0447
                        0x080146a0    0x30  Data  Gb  Font24_MS.o [1]
acGUI_FontHZ_fontHz14_0448
                        0x080146d0    0x30  Data  Gb  Font24_MS.o [1]
acGUI_FontHZ_fontHz14_0449
                        0x08014700    0x30  Data  Gb  Font24_MS.o [1]
acGUI_FontHZ_fontHz14_044A
                        0x08014730    0x30  Data  Gb  Font24_MS.o [1]
acGUI_FontHZ_fontHz14_044B
                        0x08014760    0x30  Data  Gb  Font24_MS.o [1]
acGUI_FontHZ_fontHz14_044C
                        0x08014790    0x30  Data  Gb  Font24_MS.o [1]
acGUI_FontHZ_fontHz14_044D
                        0x080147c0    0x30  Data  Gb  Font24_MS.o [1]
acGUI_FontHZ_fontHz14_044E
                        0x080147f0    0x30  Data  Gb  Font24_MS.o [1]
acGUI_FontHZ_fontHz14_044F
                        0x08014820    0x30  Data  Gb  Font24_MS.o [1]
acGUI_FontHZ_fontHz14_0451
                        0x08014850    0x30  Data  Gb  Font24_MS.o [1]
acGUI_FontHZ_fontHz14_0452
                        0x08014880    0x30  Data  Gb  Font24_MS.o [1]
acGUI_FontHZ_fontHz14_0453
                        0x080148b0    0x18  Data  Gb  Font24_MS.o [1]
acGUI_FontHZ_fontHz14_0454
                        0x080148c8    0x30  Data  Gb  Font24_MS.o [1]
acGUI_FontHZ_fontHz14_0455
                        0x080148f8    0x18  Data  Gb  Font24_MS.o [1]
acGUI_FontHZ_fontHz14_0456
                        0x08014910    0x18  Data  Gb  Font24_MS.o [1]
acGUI_FontHZ_fontHz14_0457
                        0x08014928    0x18  Data  Gb  Font24_MS.o [1]
acGUI_FontHZ_fontHz14_0458
                        0x08014940    0x18  Data  Gb  Font24_MS.o [1]
acGUI_FontHZ_fontHz14_0459
                        0x08014958    0x30  Data  Gb  Font24_MS.o [1]
acGUI_FontHZ_fontHz14_045A
                        0x08014988    0x30  Data  Gb  Font24_MS.o [1]
acGUI_FontHZ_fontHz14_045B
                        0x080149b8    0x30  Data  Gb  Font24_MS.o [1]
acGUI_FontHZ_fontHz14_045C
                        0x080149e8    0x30  Data  Gb  Font24_MS.o [1]
acGUI_FontHZ_fontHz14_045E
                        0x08014a18    0x30  Data  Gb  Font24_MS.o [1]
acGUI_FontHZ_fontHz14_045F
                        0x08014a48    0x30  Data  Gb  Font24_MS.o [1]
acGUI_FontHZ_fontHz14_1EF2
                        0x08014a78    0x30  Data  Gb  Font24_MS.o [1]
acGUI_FontHZ_fontHz14_1EF3
                        0x08014aa8    0x30  Data  Gb  Font24_MS.o [1]
acGUI_FontHZ_fontHz14_2103
                        0x08014ad8    0x48  Data  Gb  Font24_MS.o [1]
acGUI_FontHZ_fontHz14_3041
                        0x08014b20    0x48  Data  Gb  Font24_MS.o [1]
acGUI_FontHZ_fontHz14_3042
                        0x08014b68    0x48  Data  Gb  Font24_MS.o [1]
acGUI_FontHZ_fontHz14_3043
                        0x08014bb0    0x48  Data  Gb  Font24_MS.o [1]
acGUI_FontHZ_fontHz14_3044
                        0x08014bf8    0x48  Data  Gb  Font24_MS.o [1]
acGUI_FontHZ_fontHz14_3045
                        0x08014c40    0x48  Data  Gb  Font24_MS.o [1]
acGUI_FontHZ_fontHz14_3046
                        0x08014c88    0x48  Data  Gb  Font24_MS.o [1]
acGUI_FontHZ_fontHz14_3047
                        0x08014cd0    0x48  Data  Gb  Font24_MS.o [1]
acGUI_FontHZ_fontHz14_3048
                        0x08014d18    0x48  Data  Gb  Font24_MS.o [1]
acGUI_FontHZ_fontHz14_3049
                        0x08014d60    0x48  Data  Gb  Font24_MS.o [1]
acGUI_FontHZ_fontHz14_304A
                        0x08014da8    0x48  Data  Gb  Font24_MS.o [1]
acGUI_FontHZ_fontHz14_304B
                        0x08014df0    0x48  Data  Gb  Font24_MS.o [1]
acGUI_FontHZ_fontHz14_304C
                        0x08014e38    0x48  Data  Gb  Font24_MS.o [1]
acGUI_FontHZ_fontHz14_304D
                        0x08014e80    0x48  Data  Gb  Font24_MS.o [1]
acGUI_FontHZ_fontHz14_304E
                        0x08014ec8    0x48  Data  Gb  Font24_MS.o [1]
acGUI_FontHZ_fontHz14_304F
                        0x08014f10    0x48  Data  Gb  Font24_MS.o [1]
acGUI_FontHZ_fontHz14_3050
                        0x08014f58    0x48  Data  Gb  Font24_MS.o [1]
acGUI_FontHZ_fontHz14_3051
                        0x08014fa0    0x48  Data  Gb  Font24_MS.o [1]
acGUI_FontHZ_fontHz14_3052
                        0x08014fe8    0x48  Data  Gb  Font24_MS.o [1]
acGUI_FontHZ_fontHz14_3053
                        0x08015030    0x48  Data  Gb  Font24_MS.o [1]
acGUI_FontHZ_fontHz14_3054
                        0x08015078    0x48  Data  Gb  Font24_MS.o [1]
acGUI_FontHZ_fontHz14_3055
                        0x080150c0    0x48  Data  Gb  Font24_MS.o [1]
acGUI_FontHZ_fontHz14_3056
                        0x08015108    0x48  Data  Gb  Font24_MS.o [1]
acGUI_FontHZ_fontHz14_3057
                        0x08015150    0x48  Data  Gb  Font24_MS.o [1]
acGUI_FontHZ_fontHz14_3058
                        0x08015198    0x48  Data  Gb  Font24_MS.o [1]
acGUI_FontHZ_fontHz14_3059
                        0x080151e0    0x48  Data  Gb  Font24_MS.o [1]
acGUI_FontHZ_fontHz14_305A
                        0x08015228    0x48  Data  Gb  Font24_MS.o [1]
acGUI_FontHZ_fontHz14_305B
                        0x08015270    0x48  Data  Gb  Font24_MS.o [1]
acGUI_FontHZ_fontHz14_305C
                        0x080152b8    0x48  Data  Gb  Font24_MS.o [1]
acGUI_FontHZ_fontHz14_305D
                        0x08015300    0x48  Data  Gb  Font24_MS.o [1]
acGUI_FontHZ_fontHz14_305E
                        0x08015348    0x48  Data  Gb  Font24_MS.o [1]
acGUI_FontHZ_fontHz14_305F
                        0x08015390    0x48  Data  Gb  Font24_MS.o [1]
acGUI_FontHZ_fontHz14_3060
                        0x080153d8    0x48  Data  Gb  Font24_MS.o [1]
acGUI_FontHZ_fontHz14_3061
                        0x08015420    0x48  Data  Gb  Font24_MS.o [1]
acGUI_FontHZ_fontHz14_3062
                        0x08015468    0x48  Data  Gb  Font24_MS.o [1]
acGUI_FontHZ_fontHz14_3063
                        0x080154b0    0x48  Data  Gb  Font24_MS.o [1]
acGUI_FontHZ_fontHz14_3064
                        0x080154f8    0x48  Data  Gb  Font24_MS.o [1]
acGUI_FontHZ_fontHz14_3065
                        0x08015540    0x48  Data  Gb  Font24_MS.o [1]
acGUI_FontHZ_fontHz14_3066
                        0x08015588    0x48  Data  Gb  Font24_MS.o [1]
acGUI_FontHZ_fontHz14_3067
                        0x080155d0    0x48  Data  Gb  Font24_MS.o [1]
acGUI_FontHZ_fontHz14_3068
                        0x08015618    0x48  Data  Gb  Font24_MS.o [1]
acGUI_FontHZ_fontHz14_3069
                        0x08015660    0x48  Data  Gb  Font24_MS.o [1]
acGUI_FontHZ_fontHz14_306A
                        0x080156a8    0x48  Data  Gb  Font24_MS.o [1]
acGUI_FontHZ_fontHz14_306B
                        0x080156f0    0x48  Data  Gb  Font24_MS.o [1]
acGUI_FontHZ_fontHz14_306C
                        0x08015738    0x48  Data  Gb  Font24_MS.o [1]
acGUI_FontHZ_fontHz14_306D
                        0x08015780    0x48  Data  Gb  Font24_MS.o [1]
acGUI_FontHZ_fontHz14_306E
                        0x080157c8    0x48  Data  Gb  Font24_MS.o [1]
acGUI_FontHZ_fontHz14_306F
                        0x08015810    0x48  Data  Gb  Font24_MS.o [1]
acGUI_FontHZ_fontHz14_3070
                        0x08015858    0x48  Data  Gb  Font24_MS.o [1]
acGUI_FontHZ_fontHz14_3071
                        0x080158a0    0x48  Data  Gb  Font24_MS.o [1]
acGUI_FontHZ_fontHz14_3072
                        0x080158e8    0x48  Data  Gb  Font24_MS.o [1]
acGUI_FontHZ_fontHz14_3073
                        0x08015930    0x48  Data  Gb  Font24_MS.o [1]
acGUI_FontHZ_fontHz14_3074
                        0x08015978    0x48  Data  Gb  Font24_MS.o [1]
acGUI_FontHZ_fontHz14_3075
                        0x080159c0    0x48  Data  Gb  Font24_MS.o [1]
acGUI_FontHZ_fontHz14_3076
                        0x08015a08    0x48  Data  Gb  Font24_MS.o [1]
acGUI_FontHZ_fontHz14_3077
                        0x08015a50    0x48  Data  Gb  Font24_MS.o [1]
acGUI_FontHZ_fontHz14_3078
                        0x08015a98    0x48  Data  Gb  Font24_MS.o [1]
acGUI_FontHZ_fontHz14_3079
                        0x08015ae0    0x48  Data  Gb  Font24_MS.o [1]
acGUI_FontHZ_fontHz14_307A
                        0x08015b28    0x48  Data  Gb  Font24_MS.o [1]
acGUI_FontHZ_fontHz14_307B
                        0x08015b70    0x48  Data  Gb  Font24_MS.o [1]
acGUI_FontHZ_fontHz14_307C
                        0x08015bb8    0x48  Data  Gb  Font24_MS.o [1]
acGUI_FontHZ_fontHz14_307D
                        0x08015c00    0x48  Data  Gb  Font24_MS.o [1]
acGUI_FontHZ_fontHz14_307E
                        0x08015c48    0x48  Data  Gb  Font24_MS.o [1]
acGUI_FontHZ_fontHz14_307F
                        0x08015c90    0x48  Data  Gb  Font24_MS.o [1]
acGUI_FontHZ_fontHz14_3080
                        0x08015cd8    0x48  Data  Gb  Font24_MS.o [1]
acGUI_FontHZ_fontHz14_3081
                        0x08015d20    0x48  Data  Gb  Font24_MS.o [1]
acGUI_FontHZ_fontHz14_3082
                        0x08015d68    0x48  Data  Gb  Font24_MS.o [1]
acGUI_FontHZ_fontHz14_3083
                        0x08015db0    0x48  Data  Gb  Font24_MS.o [1]
acGUI_FontHZ_fontHz14_3084
                        0x08015df8    0x48  Data  Gb  Font24_MS.o [1]
acGUI_FontHZ_fontHz14_3085
                        0x08015e40    0x48  Data  Gb  Font24_MS.o [1]
acGUI_FontHZ_fontHz14_3086
                        0x08015e88    0x48  Data  Gb  Font24_MS.o [1]
acGUI_FontHZ_fontHz14_3087
                        0x08015ed0    0x48  Data  Gb  Font24_MS.o [1]
acGUI_FontHZ_fontHz14_3088
                        0x08015f18    0x48  Data  Gb  Font24_MS.o [1]
acGUI_FontHZ_fontHz14_3089
                        0x08015f60    0x48  Data  Gb  Font24_MS.o [1]
acGUI_FontHZ_fontHz14_308A
                        0x08015fa8    0x48  Data  Gb  Font24_MS.o [1]
acGUI_FontHZ_fontHz14_308B
                        0x08015ff0    0x48  Data  Gb  Font24_MS.o [1]
acGUI_FontHZ_fontHz14_308C
                        0x08016038    0x48  Data  Gb  Font24_MS.o [1]
acGUI_FontHZ_fontHz14_308D
                        0x08016080    0x48  Data  Gb  Font24_MS.o [1]
acGUI_FontHZ_fontHz14_308E
                        0x080160c8    0x48  Data  Gb  Font24_MS.o [1]
acGUI_FontHZ_fontHz14_308F
                        0x08016110    0x48  Data  Gb  Font24_MS.o [1]
acGUI_FontHZ_fontHz14_3090
                        0x08016158    0x48  Data  Gb  Font24_MS.o [1]
acGUI_FontHZ_fontHz14_3091
                        0x080161a0    0x48  Data  Gb  Font24_MS.o [1]
acGUI_FontHZ_fontHz14_3092
                        0x080161e8    0x48  Data  Gb  Font24_MS.o [1]
acGUI_FontHZ_fontHz14_3093
                        0x08016230    0x48  Data  Gb  Font24_MS.o [1]
acGUI_FontHZ_fontHz14_3094
                        0x08016278    0x48  Data  Gb  Font24_MS.o [1]
acGUI_FontHZ_fontHz14_3095
                        0x080162c0    0x48  Data  Gb  Font24_MS.o [1]
acGUI_FontHZ_fontHz14_3096
                        0x08016308    0x48  Data  Gb  Font24_MS.o [1]
acGUI_FontHZ_fontHz14_309B
                        0x08016350    0x48  Data  Gb  Font24_MS.o [1]
acGUI_FontHZ_fontHz14_309C
                        0x08016398    0x48  Data  Gb  Font24_MS.o [1]
acGUI_FontHZ_fontHz14_309D
                        0x080163e0    0x48  Data  Gb  Font24_MS.o [1]
acGUI_FontHZ_fontHz14_309E
                        0x08016428    0x48  Data  Gb  Font24_MS.o [1]
acGUI_FontHZ_fontHz14_309F
                        0x08016470    0x48  Data  Gb  Font24_MS.o [1]
acGUI_FontHZ_fontHz14_30A0
                        0x080164b8    0x48  Data  Gb  Font24_MS.o [1]
acGUI_FontHZ_fontHz14_30A1
                        0x08016500    0x48  Data  Gb  Font24_MS.o [1]
acGUI_FontHZ_fontHz14_30A2
                        0x08016548    0x48  Data  Gb  Font24_MS.o [1]
acGUI_FontHZ_fontHz14_30A3
                        0x08016590    0x48  Data  Gb  Font24_MS.o [1]
acGUI_FontHZ_fontHz14_30A4
                        0x080165d8    0x48  Data  Gb  Font24_MS.o [1]
acGUI_FontHZ_fontHz14_30A5
                        0x08016620    0x48  Data  Gb  Font24_MS.o [1]
acGUI_FontHZ_fontHz14_30A6
                        0x08016668    0x48  Data  Gb  Font24_MS.o [1]
acGUI_FontHZ_fontHz14_30A7
                        0x080166b0    0x48  Data  Gb  Font24_MS.o [1]
acGUI_FontHZ_fontHz14_30A8
                        0x080166f8    0x48  Data  Gb  Font24_MS.o [1]
acGUI_FontHZ_fontHz14_30A9
                        0x08016740    0x48  Data  Gb  Font24_MS.o [1]
acGUI_FontHZ_fontHz14_30AA
                        0x08016788    0x48  Data  Gb  Font24_MS.o [1]
acGUI_FontHZ_fontHz14_30AB
                        0x080167d0    0x48  Data  Gb  Font24_MS.o [1]
acGUI_FontHZ_fontHz14_30AC
                        0x08016818    0x48  Data  Gb  Font24_MS.o [1]
acGUI_FontHZ_fontHz14_30AD
                        0x08016860    0x48  Data  Gb  Font24_MS.o [1]
acGUI_FontHZ_fontHz14_30AE
                        0x080168a8    0x48  Data  Gb  Font24_MS.o [1]
acGUI_FontHZ_fontHz14_30AF
                        0x080168f0    0x48  Data  Gb  Font24_MS.o [1]
acGUI_FontHZ_fontHz14_30B0
                        0x08016938    0x48  Data  Gb  Font24_MS.o [1]
acGUI_FontHZ_fontHz14_30B1
                        0x08016980    0x48  Data  Gb  Font24_MS.o [1]
acGUI_FontHZ_fontHz14_30B2
                        0x080169c8    0x48  Data  Gb  Font24_MS.o [1]
acGUI_FontHZ_fontHz14_30B3
                        0x08016a10    0x48  Data  Gb  Font24_MS.o [1]
acGUI_FontHZ_fontHz14_30B4
                        0x08016a58    0x48  Data  Gb  Font24_MS.o [1]
acGUI_FontHZ_fontHz14_30B5
                        0x08016aa0    0x48  Data  Gb  Font24_MS.o [1]
acGUI_FontHZ_fontHz14_30B6
                        0x08016ae8    0x48  Data  Gb  Font24_MS.o [1]
acGUI_FontHZ_fontHz14_30B7
                        0x08016b30    0x48  Data  Gb  Font24_MS.o [1]
acGUI_FontHZ_fontHz14_30B8
                        0x08016b78    0x48  Data  Gb  Font24_MS.o [1]
acGUI_FontHZ_fontHz14_30B9
                        0x08016bc0    0x48  Data  Gb  Font24_MS.o [1]
acGUI_FontHZ_fontHz14_30BA
                        0x08016c08    0x48  Data  Gb  Font24_MS.o [1]
acGUI_FontHZ_fontHz14_30BB
                        0x08016c50    0x48  Data  Gb  Font24_MS.o [1]
acGUI_FontHZ_fontHz14_30BC
                        0x08016c98    0x48  Data  Gb  Font24_MS.o [1]
acGUI_FontHZ_fontHz14_30BD
                        0x08016ce0    0x48  Data  Gb  Font24_MS.o [1]
acGUI_FontHZ_fontHz14_30BE
                        0x08016d28    0x48  Data  Gb  Font24_MS.o [1]
acGUI_FontHZ_fontHz14_30BF
                        0x08016d70    0x48  Data  Gb  Font24_MS.o [1]
acGUI_FontHZ_fontHz14_30C0
                        0x08016db8    0x48  Data  Gb  Font24_MS.o [1]
acGUI_FontHZ_fontHz14_30C1
                        0x08016e00    0x48  Data  Gb  Font24_MS.o [1]
acGUI_FontHZ_fontHz14_30C2
                        0x08016e48    0x48  Data  Gb  Font24_MS.o [1]
acGUI_FontHZ_fontHz14_30C3
                        0x08016e90    0x48  Data  Gb  Font24_MS.o [1]
acGUI_FontHZ_fontHz14_30C4
                        0x08016ed8    0x48  Data  Gb  Font24_MS.o [1]
acGUI_FontHZ_fontHz14_30C5
                        0x08016f20    0x48  Data  Gb  Font24_MS.o [1]
acGUI_FontHZ_fontHz14_30C6
                        0x08016f68    0x48  Data  Gb  Font24_MS.o [1]
acGUI_FontHZ_fontHz14_30C7
                        0x08016fb0    0x48  Data  Gb  Font24_MS.o [1]
acGUI_FontHZ_fontHz14_30C8
                        0x08016ff8    0x48  Data  Gb  Font24_MS.o [1]
acGUI_FontHZ_fontHz14_30C9
                        0x08017040    0x48  Data  Gb  Font24_MS.o [1]
acGUI_FontHZ_fontHz14_30CA
                        0x08017088    0x48  Data  Gb  Font24_MS.o [1]
acGUI_FontHZ_fontHz14_30CB
                        0x080170d0    0x48  Data  Gb  Font24_MS.o [1]
acGUI_FontHZ_fontHz14_30CC
                        0x08017118    0x48  Data  Gb  Font24_MS.o [1]
acGUI_FontHZ_fontHz14_30CD
                        0x08017160    0x48  Data  Gb  Font24_MS.o [1]
acGUI_FontHZ_fontHz14_30CE
                        0x080171a8    0x48  Data  Gb  Font24_MS.o [1]
acGUI_FontHZ_fontHz14_30CF
                        0x080171f0    0x48  Data  Gb  Font24_MS.o [1]
acGUI_FontHZ_fontHz14_30D0
                        0x08017238    0x48  Data  Gb  Font24_MS.o [1]
acGUI_FontHZ_fontHz14_30D1
                        0x08017280    0x48  Data  Gb  Font24_MS.o [1]
acGUI_FontHZ_fontHz14_30D2
                        0x080172c8    0x48  Data  Gb  Font24_MS.o [1]
acGUI_FontHZ_fontHz14_30D3
                        0x08017310    0x48  Data  Gb  Font24_MS.o [1]
acGUI_FontHZ_fontHz14_30D4
                        0x08017358    0x48  Data  Gb  Font24_MS.o [1]
acGUI_FontHZ_fontHz14_30D5
                        0x080173a0    0x48  Data  Gb  Font24_MS.o [1]
acGUI_FontHZ_fontHz14_30D6
                        0x080173e8    0x48  Data  Gb  Font24_MS.o [1]
acGUI_FontHZ_fontHz14_30D7
                        0x08017430    0x48  Data  Gb  Font24_MS.o [1]
acGUI_FontHZ_fontHz14_30D8
                        0x08017478    0x48  Data  Gb  Font24_MS.o [1]
acGUI_FontHZ_fontHz14_30D9
                        0x080174c0    0x48  Data  Gb  Font24_MS.o [1]
acGUI_FontHZ_fontHz14_30DA
                        0x08017508    0x48  Data  Gb  Font24_MS.o [1]
acGUI_FontHZ_fontHz14_30DB
                        0x08017550    0x48  Data  Gb  Font24_MS.o [1]
acGUI_FontHZ_fontHz14_30DC
                        0x08017598    0x48  Data  Gb  Font24_MS.o [1]
acGUI_FontHZ_fontHz14_30DD
                        0x080175e0    0x48  Data  Gb  Font24_MS.o [1]
acGUI_FontHZ_fontHz14_30DE
                        0x08017628    0x48  Data  Gb  Font24_MS.o [1]
acGUI_FontHZ_fontHz14_30DF
                        0x08017670    0x48  Data  Gb  Font24_MS.o [1]
acGUI_FontHZ_fontHz14_30E0
                        0x080176b8    0x48  Data  Gb  Font24_MS.o [1]
acGUI_FontHZ_fontHz14_30E1
                        0x08017700    0x48  Data  Gb  Font24_MS.o [1]
acGUI_FontHZ_fontHz14_30E2
                        0x08017748    0x48  Data  Gb  Font24_MS.o [1]
acGUI_FontHZ_fontHz14_30E3
                        0x08017790    0x48  Data  Gb  Font24_MS.o [1]
acGUI_FontHZ_fontHz14_30E4
                        0x080177d8    0x48  Data  Gb  Font24_MS.o [1]
acGUI_FontHZ_fontHz14_30E5
                        0x08017820    0x48  Data  Gb  Font24_MS.o [1]
acGUI_FontHZ_fontHz14_30E6
                        0x08017868    0x48  Data  Gb  Font24_MS.o [1]
acGUI_FontHZ_fontHz14_30E7
                        0x080178b0    0x48  Data  Gb  Font24_MS.o [1]
acGUI_FontHZ_fontHz14_30E8
                        0x080178f8    0x48  Data  Gb  Font24_MS.o [1]
acGUI_FontHZ_fontHz14_30E9
                        0x08017940    0x48  Data  Gb  Font24_MS.o [1]
acGUI_FontHZ_fontHz14_30EA
                        0x08017988    0x48  Data  Gb  Font24_MS.o [1]
acGUI_FontHZ_fontHz14_30EB
                        0x080179d0    0x48  Data  Gb  Font24_MS.o [1]
acGUI_FontHZ_fontHz14_30EC
                        0x08017a18    0x48  Data  Gb  Font24_MS.o [1]
acGUI_FontHZ_fontHz14_30ED
                        0x08017a60    0x48  Data  Gb  Font24_MS.o [1]
acGUI_FontHZ_fontHz14_30EE
                        0x08017aa8    0x48  Data  Gb  Font24_MS.o [1]
acGUI_FontHZ_fontHz14_30EF
                        0x08017af0    0x48  Data  Gb  Font24_MS.o [1]
acGUI_FontHZ_fontHz14_30F0
                        0x08017b38    0x48  Data  Gb  Font24_MS.o [1]
acGUI_FontHZ_fontHz14_30F1
                        0x08017b80    0x48  Data  Gb  Font24_MS.o [1]
acGUI_FontHZ_fontHz14_30F2
                        0x08017bc8    0x48  Data  Gb  Font24_MS.o [1]
acGUI_FontHZ_fontHz14_30F3
                        0x08017c10    0x48  Data  Gb  Font24_MS.o [1]
acGUI_FontHZ_fontHz14_30F4
                        0x08017c58    0x48  Data  Gb  Font24_MS.o [1]
acGUI_FontHZ_fontHz14_30F5
                        0x08017ca0    0x48  Data  Gb  Font24_MS.o [1]
acGUI_FontHZ_fontHz14_30F6
                        0x08017ce8    0x48  Data  Gb  Font24_MS.o [1]
acGUI_FontHZ_fontHz14_30F7
                        0x08017d30    0x48  Data  Gb  Font24_MS.o [1]
acGUI_FontHZ_fontHz14_30F8
                        0x08017d78    0x48  Data  Gb  Font24_MS.o [1]
acGUI_FontHZ_fontHz14_30F9
                        0x08017dc0    0x48  Data  Gb  Font24_MS.o [1]
acGUI_FontHZ_fontHz14_30FA
                        0x08017e08    0x48  Data  Gb  Font24_MS.o [1]
acGUI_FontHZ_fontHz14_30FB
                        0x08017e50    0x48  Data  Gb  Font24_MS.o [1]
acGUI_FontHZ_fontHz14_30FC
                        0x08017e98    0x48  Data  Gb  Font24_MS.o [1]
acGUI_FontHZ_fontHz14_30FD
                        0x08017ee0    0x48  Data  Gb  Font24_MS.o [1]
acGUI_FontHZ_fontHz14_30FE
                        0x08017f28    0x48  Data  Gb  Font24_MS.o [1]
acGUI_FontHZ_fontHz14_30FF
                        0x08017f70    0x48  Data  Gb  Font24_MS.o [1]
acGUI_FontHZ_fontHz14_3105
                        0x08017fb8    0x48  Data  Gb  Font24_MS.o [1]
acGUI_FontHZ_fontHz14_3106
                        0x08018000    0x48  Data  Gb  Font24_MS.o [1]
acGUI_FontHZ_fontHz14_3107
                        0x08018048    0x48  Data  Gb  Font24_MS.o [1]
acGUI_FontHZ_fontHz14_3108
                        0x08018090    0x48  Data  Gb  Font24_MS.o [1]
acGUI_FontHZ_fontHz14_3109
                        0x080180d8    0x48  Data  Gb  Font24_MS.o [1]
acGUI_FontHZ_fontHz14_310A
                        0x08018120    0x48  Data  Gb  Font24_MS.o [1]
acGUI_FontHZ_fontHz14_310B
                        0x08018168    0x48  Data  Gb  Font24_MS.o [1]
acGUI_FontHZ_fontHz14_310C
                        0x080181b0    0x48  Data  Gb  Font24_MS.o [1]
acGUI_FontHZ_fontHz14_310D
                        0x080181f8    0x48  Data  Gb  Font24_MS.o [1]
acGUI_FontHZ_fontHz14_310E
                        0x08018240    0x48  Data  Gb  Font24_MS.o [1]
acGUI_FontHZ_fontHz14_310F
                        0x08018288    0x48  Data  Gb  Font24_MS.o [1]
acGUI_FontHZ_fontHz14_3110
                        0x080182d0    0x48  Data  Gb  Font24_MS.o [1]
acGUI_FontHZ_fontHz14_3111
                        0x08018318    0x48  Data  Gb  Font24_MS.o [1]
acGUI_FontHZ_fontHz14_3112
                        0x08018360    0x48  Data  Gb  Font24_MS.o [1]
acGUI_FontHZ_fontHz14_3113
                        0x080183a8    0x48  Data  Gb  Font24_MS.o [1]
acGUI_FontHZ_fontHz14_3114
                        0x080183f0    0x48  Data  Gb  Font24_MS.o [1]
acGUI_FontHZ_fontHz14_3115
                        0x08018438    0x48  Data  Gb  Font24_MS.o [1]
acGUI_FontHZ_fontHz14_3116
                        0x08018480    0x48  Data  Gb  Font24_MS.o [1]
acGUI_FontHZ_fontHz14_3117
                        0x080184c8    0x48  Data  Gb  Font24_MS.o [1]
acGUI_FontHZ_fontHz14_3118
                        0x08018510    0x48  Data  Gb  Font24_MS.o [1]
acGUI_FontHZ_fontHz14_3119
                        0x08018558    0x48  Data  Gb  Font24_MS.o [1]
acGUI_FontHZ_fontHz14_311A
                        0x080185a0    0x48  Data  Gb  Font24_MS.o [1]
acGUI_FontHZ_fontHz14_311B
                        0x080185e8    0x48  Data  Gb  Font24_MS.o [1]
acGUI_FontHZ_fontHz14_311C
                        0x08018630    0x48  Data  Gb  Font24_MS.o [1]
acGUI_FontHZ_fontHz14_311D
                        0x08018678    0x48  Data  Gb  Font24_MS.o [1]
acGUI_FontHZ_fontHz14_311E
                        0x080186c0    0x48  Data  Gb  Font24_MS.o [1]
acGUI_FontHZ_fontHz14_311F
                        0x08018708    0x48  Data  Gb  Font24_MS.o [1]
acGUI_FontHZ_fontHz14_3120
                        0x08018750    0x48  Data  Gb  Font24_MS.o [1]
acGUI_FontHZ_fontHz14_3121
                        0x08018798    0x48  Data  Gb  Font24_MS.o [1]
acGUI_FontHZ_fontHz14_3122
                        0x080187e0    0x48  Data  Gb  Font24_MS.o [1]
acGUI_FontHZ_fontHz14_3123
                        0x08018828    0x48  Data  Gb  Font24_MS.o [1]
acGUI_FontHZ_fontHz14_3124
                        0x08018870    0x48  Data  Gb  Font24_MS.o [1]
acGUI_FontHZ_fontHz14_3125
                        0x080188b8    0x48  Data  Gb  Font24_MS.o [1]
acGUI_FontHZ_fontHz14_3126
                        0x08018900    0x48  Data  Gb  Font24_MS.o [1]
acGUI_FontHZ_fontHz14_3127
                        0x08018948    0x48  Data  Gb  Font24_MS.o [1]
acGUI_FontHZ_fontHz14_3128
                        0x08018990    0x48  Data  Gb  Font24_MS.o [1]
acGUI_FontHZ_fontHz14_3129
                        0x080189d8    0x48  Data  Gb  Font24_MS.o [1]
acGUI_FontHZ_fontHz14_312A
                        0x08018a20    0x48  Data  Gb  Font24_MS.o [1]
acGUI_FontHZ_fontHz14_312B
                        0x08018a68    0x48  Data  Gb  Font24_MS.o [1]
acGUI_FontHZ_fontHz14_4E00
                        0x08018ab0    0x48  Data  Gb  Font24_MS.o [1]
acGUI_FontHZ_fontHz14_4E09
                        0x08018af8    0x48  Data  Gb  Font24_MS.o [1]
acGUI_FontHZ_fontHz14_4E0A
                        0x08018b40    0x48  Data  Gb  Font24_MS.o [1]
acGUI_FontHZ_fontHz14_4E0B
                        0x08018b88    0x48  Data  Gb  Font24_MS.o [1]
acGUI_FontHZ_fontHz14_4E0D
                        0x08018bd0    0x48  Data  Gb  Font24_MS.o [1]
acGUI_FontHZ_fontHz14_4E2D
                        0x08018c18    0x48  Data  Gb  Font24_MS.o [1]
acGUI_FontHZ_fontHz14_4E3B
                        0x08018c60    0x48  Data  Gb  Font24_MS.o [1]
acGUI_FontHZ_fontHz14_4E8C
                        0x08018ca8    0x48  Data  Gb  Font24_MS.o [1]
acGUI_FontHZ_fontHz14_4E8E
                        0x08018cf0    0x48  Data  Gb  Font24_MS.o [1]
acGUI_FontHZ_fontHz14_4E91
                        0x08018d38    0x48  Data  Gb  Font24_MS.o [1]
acGUI_FontHZ_fontHz14_4E94
                        0x08018d80    0x48  Data  Gb  Font24_MS.o [1]
acGUI_FontHZ_fontHz14_4ECE
                        0x08018dc8    0x48  Data  Gb  Font24_MS.o [1]
acGUI_FontHZ_fontHz14_4EF6
                        0x08018e10    0x48  Data  Gb  Font24_MS.o [1]
acGUI_FontHZ_fontHz14_4F20
                        0x08018e58    0x48  Data  Gb  Font24_MS.o [1]
acGUI_FontHZ_fontHz14_4F4D
                        0x08018ea0    0x48  Data  Gb  Font24_MS.o [1]
acGUI_FontHZ_fontHz14_4F4E
                        0x08018ee8    0x48  Data  Gb  Font24_MS.o [1]
acGUI_FontHZ_fontHz14_4F53
                        0x08018f30    0x48  Data  Gb  Font24_MS.o [1]
acGUI_FontHZ_fontHz14_4F5C
                        0x08018f78    0x48  Data  Gb  Font24_MS.o [1]
acGUI_FontHZ_fontHz14_4FE1
                        0x08018fc0    0x48  Data  Gb  Font24_MS.o [1]
acGUI_FontHZ_fontHz14_505C
                        0x08019008    0x48  Data  Gb  Font24_MS.o [1]
acGUI_FontHZ_fontHz14_5099
                        0x08019050    0x48  Data  Gb  Font24_MS.o [1]
acGUI_FontHZ_fontHz14_50B3
                        0x08019098    0x48  Data  Gb  Font24_MS.o [1]
acGUI_FontHZ_fontHz14_5148
                        0x080190e0    0x48  Data  Gb  Font24_MS.o [1]
acGUI_FontHZ_fontHz14_5149
                        0x08019128    0x48  Data  Gb  Font24_MS.o [1]
acGUI_FontHZ_fontHz14_5165
                        0x08019170    0x48  Data  Gb  Font24_MS.o [1]
acGUI_FontHZ_fontHz14_5168
                        0x080191b8    0x48  Data  Gb  Font24_MS.o [1]
acGUI_FontHZ_fontHz14_5173
                        0x08019200    0x48  Data  Gb  Font24_MS.o [1]
acGUI_FontHZ_fontHz14_5177
                        0x08019248    0x48  Data  Gb  Font24_MS.o [1]
acGUI_FontHZ_fontHz14_51C6
                        0x08019290    0x48  Data  Gb  Font24_MS.o [1]
acGUI_FontHZ_fontHz14_51CF
                        0x080192d8    0x48  Data  Gb  Font24_MS.o [1]
acGUI_FontHZ_fontHz14_51FA
                        0x08019320    0x48  Data  Gb  Font24_MS.o [1]
acGUI_FontHZ_fontHz14_5220
                        0x08019368    0x48  Data  Gb  Font24_MS.o [1]
acGUI_FontHZ_fontHz14_522A
                        0x080193b0    0x48  Data  Gb  Font24_MS.o [1]
acGUI_FontHZ_fontHz14_5230
                        0x080193f8    0x48  Data  Gb  Font24_MS.o [1]
acGUI_FontHZ_fontHz14_52A0
                        0x08019440    0x48  Data  Gb  Font24_MS.o [1]
acGUI_FontHZ_fontHz14_52A1
                        0x08019488    0x48  Data  Gb  Font24_MS.o [1]
acGUI_FontHZ_fontHz14_52A8
                        0x080194d0    0x48  Data  Gb  Font24_MS.o [1]
acGUI_FontHZ_fontHz14_52D5
                        0x08019518    0x48  Data  Gb  Font24_MS.o [1]
acGUI_FontHZ_fontHz14_52D9
                        0x08019560    0x48  Data  Gb  Font24_MS.o [1]
acGUI_FontHZ_fontHz14_534A
                        0x080195a8    0x48  Data  Gb  Font24_MS.o [1]
acGUI_FontHZ_fontHz14_5361
                        0x080195f0    0x48  Data  Gb  Font24_MS.o [1]
acGUI_FontHZ_fontHz14_5370
                        0x08019638    0x48  Data  Gb  Font24_MS.o [1]
acGUI_FontHZ_fontHz14_5378
                        0x08019680    0x48  Data  Gb  Font24_MS.o [1]
acGUI_FontHZ_fontHz14_53D6
                        0x080196c8    0x48  Data  Gb  Font24_MS.o [1]
acGUI_FontHZ_fontHz14_53D8
                        0x08019710    0x48  Data  Gb  Font24_MS.o [1]
acGUI_FontHZ_fontHz14_53E3
                        0x08019758    0x48  Data  Gb  Font24_MS.o [1]
acGUI_FontHZ_fontHz14_540E
                        0x080197a0    0x48  Data  Gb  Font24_MS.o [1]
acGUI_FontHZ_fontHz14_5426
                        0x080197e8    0x48  Data  Gb  Font24_MS.o [1]
acGUI_FontHZ_fontHz14_54CD
                        0x08019830    0x48  Data  Gb  Font24_MS.o [1]
acGUI_FontHZ_fontHz14_55B7
                        0x08019878    0x48  Data  Gb  Font24_MS.o [1]
acGUI_FontHZ_fontHz14_5674
                        0x080198c0    0x48  Data  Gb  Font24_MS.o [1]
acGUI_FontHZ_fontHz14_56DB
                        0x08019908    0x48  Data  Gb  Font24_MS.o [1]
acGUI_FontHZ_fontHz14_56DE
                        0x08019950    0x48  Data  Gb  Font24_MS.o [1]
acGUI_FontHZ_fontHz14_56FA
                        0x08019998    0x48  Data  Gb  Font24_MS.o [1]
acGUI_FontHZ_fontHz14_56FE
                        0x080199e0    0x48  Data  Gb  Font24_MS.o [1]
acGUI_FontHZ_fontHz14_5716
                        0x08019a28    0x48  Data  Gb  Font24_MS.o [1]
acGUI_FontHZ_fontHz14_5728
                        0x08019a70    0x48  Data  Gb  Font24_MS.o [1]
acGUI_FontHZ_fontHz14_5740
                        0x08019ab8    0x48  Data  Gb  Font24_MS.o [1]
acGUI_FontHZ_fontHz14_5757
                        0x08019b00    0x48  Data  Gb  Font24_MS.o [1]
acGUI_FontHZ_fontHz14_578B
                        0x08019b48    0x48  Data  Gb  Font24_MS.o [1]
acGUI_FontHZ_fontHz14_584A
                        0x08019b90    0x48  Data  Gb  Font24_MS.o [1]
acGUI_FontHZ_fontHz14_589E
                        0x08019bd8    0x48  Data  Gb  Font24_MS.o [1]
acGUI_FontHZ_fontHz14_5907
                        0x08019c20    0x48  Data  Gb  Font24_MS.o [1]
acGUI_FontHZ_fontHz14_590D
                        0x08019c68    0x48  Data  Gb  Font24_MS.o [1]
acGUI_FontHZ_fontHz14_591A
                        0x08019cb0    0x48  Data  Gb  Font24_MS.o [1]
acGUI_FontHZ_fontHz14_592A
                        0x08019cf8    0x48  Data  Gb  Font24_MS.o [1]
acGUI_FontHZ_fontHz14_5931
                        0x08019d40    0x48  Data  Gb  Font24_MS.o [1]
acGUI_FontHZ_fontHz14_5934
                        0x08019d88    0x48  Data  Gb  Font24_MS.o [1]
acGUI_FontHZ_fontHz14_59CB
                        0x08019dd0    0x48  Data  Gb  Font24_MS.o [1]
acGUI_FontHZ_fontHz14_5B8C
                        0x08019e18    0x48  Data  Gb  Font24_MS.o [1]
acGUI_FontHZ_fontHz14_5B9A
                        0x08019e60    0x48  Data  Gb  Font24_MS.o [1]
acGUI_FontHZ_fontHz14_5C06
                        0x08019ea8    0x48  Data  Gb  Font24_MS.o [1]
acGUI_FontHZ_fontHz14_5C07
                        0x08019ef0    0x48  Data  Gb  Font24_MS.o [1]
acGUI_FontHZ_fontHz14_5C11
                        0x08019f38    0x48  Data  Gb  Font24_MS.o [1]
acGUI_FontHZ_fontHz14_5C42
                        0x08019f80    0x48  Data  Gb  Font24_MS.o [1]
acGUI_FontHZ_fontHz14_5C64
                        0x08019fc8    0x48  Data  Gb  Font24_MS.o [1]
acGUI_FontHZ_fontHz14_5DE5
                        0x0801a010    0x48  Data  Gb  Font24_MS.o [1]
acGUI_FontHZ_fontHz14_5E38
                        0x0801a058    0x48  Data  Gb  Font24_MS.o [1]
acGUI_FontHZ_fontHz14_5E73
                        0x0801a0a0    0x48  Data  Gb  Font24_MS.o [1]
acGUI_FontHZ_fontHz14_5E8A
                        0x0801a0e8    0x48  Data  Gb  Font24_MS.o [1]
acGUI_FontHZ_fontHz14_5E95
                        0x0801a130    0x48  Data  Gb  Font24_MS.o [1]
acGUI_FontHZ_fontHz14_5EA6
                        0x0801a178    0x48  Data  Gb  Font24_MS.o [1]
acGUI_FontHZ_fontHz14_5F00
                        0x0801a1c0    0x48  Data  Gb  Font24_MS.o [1]
acGUI_FontHZ_fontHz14_5F02
                        0x0801a208    0x48  Data  Gb  Font24_MS.o [1]
acGUI_FontHZ_fontHz14_5F52
                        0x0801a250    0x48  Data  Gb  Font24_MS.o [1]
acGUI_FontHZ_fontHz14_5F71
                        0x0801a298    0x48  Data  Gb  Font24_MS.o [1]
acGUI_FontHZ_fontHz14_5F84
                        0x0801a2e0    0x48  Data  Gb  Font24_MS.o [1]
acGUI_FontHZ_fontHz14_5F85
                        0x0801a328    0x48  Data  Gb  Font24_MS.o [1]
acGUI_FontHZ_fontHz14_5F91
                        0x0801a370    0x48  Data  Gb  Font24_MS.o [1]
acGUI_FontHZ_fontHz14_5F9E
                        0x0801a3b8    0x48  Data  Gb  Font24_MS.o [1]
acGUI_FontHZ_fontHz14_5FA9
                        0x0801a400    0x48  Data  Gb  Font24_MS.o [1]
acGUI_FontHZ_fontHz14_6001
                        0x0801a448    0x48  Data  Gb  Font24_MS.o [1]
acGUI_FontHZ_fontHz14_6025
                        0x0801a490    0x48  Data  Gb  Font24_MS.o [1]
acGUI_FontHZ_fontHz14_6062
                        0x0801a4d8    0x48  Data  Gb  Font24_MS.o [1]
acGUI_FontHZ_fontHz14_606F
                        0x0801a520    0x48  Data  Gb  Font24_MS.o [1]
acGUI_FontHZ_fontHz14_614B
                        0x0801a568    0x48  Data  Gb  Font24_MS.o [1]
acGUI_FontHZ_fontHz14_6210
                        0x0801a5b0    0x48  Data  Gb  Font24_MS.o [1]
acGUI_FontHZ_fontHz14_6216
                        0x0801a5f8    0x48  Data  Gb  Font24_MS.o [1]
acGUI_FontHZ_fontHz14_6247
                        0x0801a640    0x48  Data  Gb  Font24_MS.o [1]
acGUI_FontHZ_fontHz14_624B
                        0x0801a688    0x48  Data  Gb  Font24_MS.o [1]
acGUI_FontHZ_fontHz14_6253
                        0x0801a6d0    0x48  Data  Gb  Font24_MS.o [1]
acGUI_FontHZ_fontHz14_627E
                        0x0801a718    0x48  Data  Gb  Font24_MS.o [1]
acGUI_FontHZ_fontHz14_62E9
                        0x0801a760    0x48  Data  Gb  Font24_MS.o [1]
acGUI_FontHZ_fontHz14_6309
                        0x0801a7a8    0x48  Data  Gb  Font24_MS.o [1]
acGUI_FontHZ_fontHz14_6324
                        0x0801a7f0    0x48  Data  Gb  Font24_MS.o [1]
acGUI_FontHZ_fontHz14_6362
                        0x0801a838    0x48  Data  Gb  Font24_MS.o [1]
acGUI_FontHZ_fontHz14_636E
                        0x0801a880    0x48  Data  Gb  Font24_MS.o [1]
acGUI_FontHZ_fontHz14_63D2
                        0x0801a8c8    0x48  Data  Gb  Font24_MS.o [1]
acGUI_FontHZ_fontHz14_63DB
                        0x0801a910    0x48  Data  Gb  Font24_MS.o [1]
acGUI_FontHZ_fontHz14_64C7
                        0x0801a958    0x48  Data  Gb  Font24_MS.o [1]
acGUI_FontHZ_fontHz14_64CD
                        0x0801a9a0    0x48  Data  Gb  Font24_MS.o [1]
acGUI_FontHZ_fontHz14_64DA
                        0x0801a9e8    0x48  Data  Gb  Font24_MS.o [1]
acGUI_FontHZ_fontHz14_64E0
                        0x0801aa30    0x48  Data  Gb  Font24_MS.o [1]
acGUI_FontHZ_fontHz14_6557
                        0x0801aa78    0x48  Data  Gb  Font24_MS.o [1]
acGUI_FontHZ_fontHz14_6570
                        0x0801aac0    0x48  Data  Gb  Font24_MS.o [1]
acGUI_FontHZ_fontHz14_6574
                        0x0801ab08    0x48  Data  Gb  Font24_MS.o [1]
acGUI_FontHZ_fontHz14_6578
                        0x0801ab50    0x48  Data  Gb  Font24_MS.o [1]
acGUI_FontHZ_fontHz14_6587
                        0x0801ab98    0x48  Data  Gb  Font24_MS.o [1]
acGUI_FontHZ_fontHz14_6599
                        0x0801abe0    0x48  Data  Gb  Font24_MS.o [1]
acGUI_FontHZ_fontHz14_65AD
                        0x0801ac28    0x48  Data  Gb  Font24_MS.o [1]
acGUI_FontHZ_fontHz14_65B0
                        0x0801ac70    0x48  Data  Gb  Font24_MS.o [1]
acGUI_FontHZ_fontHz14_65B7
                        0x0801acb8    0x48  Data  Gb  Font24_MS.o [1]
acGUI_FontHZ_fontHz14_65BC
                        0x0801ad00    0x48  Data  Gb  Font24_MS.o [1]
acGUI_FontHZ_fontHz14_65E0
                        0x0801ad48    0x48  Data  Gb  Font24_MS.o [1]
acGUI_FontHZ_fontHz14_65F6
                        0x0801ad90    0x48  Data  Gb  Font24_MS.o [1]
acGUI_FontHZ_fontHz14_662F
                        0x0801add8    0x48  Data  Gb  Font24_MS.o [1]
acGUI_FontHZ_fontHz14_6642
                        0x0801ae20    0x48  Data  Gb  Font24_MS.o [1]
acGUI_FontHZ_fontHz14_6682
                        0x0801ae68    0x48  Data  Gb  Font24_MS.o [1]
acGUI_FontHZ_fontHz14_66AB
                        0x0801aeb0    0x48  Data  Gb  Font24_MS.o [1]
acGUI_FontHZ_fontHz14_66DD
                        0x0801aef8    0x48  Data  Gb  Font24_MS.o [1]
acGUI_FontHZ_fontHz14_66F4
                        0x0801af40    0x48  Data  Gb  Font24_MS.o [1]
acGUI_FontHZ_fontHz14_670D
                        0x0801af88    0x48  Data  Gb  Font24_MS.o [1]
acGUI_FontHZ_fontHz14_672C
                        0x0801afd0    0x48  Data  Gb  Font24_MS.o [1]
acGUI_FontHZ_fontHz14_673A
                        0x0801b018    0x48  Data  Gb  Font24_MS.o [1]
acGUI_FontHZ_fontHz14_6750
                        0x0801b060    0x48  Data  Gb  Font24_MS.o [1]
acGUI_FontHZ_fontHz14_675F
                        0x0801b0a8    0x48  Data  Gb  Font24_MS.o [1]
acGUI_FontHZ_fontHz14_677F
                        0x0801b0f0    0x48  Data  Gb  Font24_MS.o [1]
acGUI_FontHZ_fontHz14_67E5
                        0x0801b138    0x48  Data  Gb  Font24_MS.o [1]
acGUI_FontHZ_fontHz14_68C0
                        0x0801b180    0x48  Data  Gb  Font24_MS.o [1]
acGUI_FontHZ_fontHz14_6A21
                        0x0801b1c8    0x48  Data  Gb  Font24_MS.o [1]
acGUI_FontHZ_fontHz14_6A5F
                        0x0801b210    0x48  Data  Gb  Font24_MS.o [1]
acGUI_FontHZ_fontHz14_6AA2
                        0x0801b258    0x48  Data  Gb  Font24_MS.o [1]
acGUI_FontHZ_fontHz14_6B62
                        0x0801b2a0    0x48  Data  Gb  Font24_MS.o [1]
acGUI_FontHZ_fontHz14_6B63
                        0x0801b2e8    0x48  Data  Gb  Font24_MS.o [1]
acGUI_FontHZ_fontHz14_6B64
                        0x0801b330    0x48  Data  Gb  Font24_MS.o [1]
acGUI_FontHZ_fontHz14_6B78
                        0x0801b378    0x48  Data  Gb  Font24_MS.o [1]
acGUI_FontHZ_fontHz14_6CE2
                        0x0801b3c0    0x48  Data  Gb  Font24_MS.o [1]
acGUI_FontHZ_fontHz14_6D4B
                        0x0801b408    0x48  Data  Gb  Font24_MS.o [1]
acGUI_FontHZ_fontHz14_6D88
                        0x0801b450    0x48  Data  Gb  Font24_MS.o [1]
acGUI_FontHZ_fontHz14_6E1B
                        0x0801b498    0x48  Data  Gb  Font24_MS.o [1]
acGUI_FontHZ_fontHz14_6E29
                        0x0801b4e0    0x48  Data  Gb  Font24_MS.o [1]
acGUI_FontHZ_fontHz14_6E2C
                        0x0801b528    0x48  Data  Gb  Font24_MS.o [1]
acGUI_FontHZ_fontHz14_6E96
                        0x0801b570    0x48  Data  Gb  Font24_MS.o [1]
acGUI_FontHZ_fontHz14_6EAB
                        0x0801b5b8    0x48  Data  Gb  Font24_MS.o [1]
acGUI_FontHZ_fontHz14_6EC5
                        0x0801b600    0x48  Data  Gb  Font24_MS.o [1]
acGUI_FontHZ_fontHz14_706D
                        0x0801b648    0x48  Data  Gb  Font24_MS.o [1]
acGUI_FontHZ_fontHz14_706F
                        0x0801b690    0x48  Data  Gb  Font24_MS.o [1]
acGUI_FontHZ_fontHz14_70B9
                        0x0801b6d8    0x48  Data  Gb  Font24_MS.o [1]
acGUI_FontHZ_fontHz14_70ED
                        0x0801b720    0x48  Data  Gb  Font24_MS.o [1]
acGUI_FontHZ_fontHz14_7121
                        0x0801b768    0x48  Data  Gb  Font24_MS.o [1]
acGUI_FontHZ_fontHz14_7136
                        0x0801b7b0    0x48  Data  Gb  Font24_MS.o [1]
acGUI_FontHZ_fontHz14_71B1
                        0x0801b7f8    0x48  Data  Gb  Font24_MS.o [1]
acGUI_FontHZ_fontHz14_71C8
                        0x0801b840    0x48  Data  Gb  Font24_MS.o [1]
acGUI_FontHZ_fontHz14_7247
                        0x0801b888    0x48  Data  Gb  Font24_MS.o [1]
acGUI_FontHZ_fontHz14_7248
                        0x0801b8d0    0x48  Data  Gb  Font24_MS.o [1]
acGUI_FontHZ_fontHz14_7279
                        0x0801b918    0x48  Data  Gb  Font24_MS.o [1]
acGUI_FontHZ_fontHz14_72B6
                        0x0801b960    0x48  Data  Gb  Font24_MS.o [1]
acGUI_FontHZ_fontHz14_72C0
                        0x0801b9a8    0x48  Data  Gb  Font24_MS.o [1]
acGUI_FontHZ_fontHz14_7387
                        0x0801b9f0    0x48  Data  Gb  Font24_MS.o [1]
acGUI_FontHZ_fontHz14_7528
                        0x0801ba38    0x48  Data  Gb  Font24_MS.o [1]
acGUI_FontHZ_fontHz14_7535
                        0x0801ba80    0x48  Data  Gb  Font24_MS.o [1]
acGUI_FontHZ_fontHz14_754C
                        0x0801bac8    0x48  Data  Gb  Font24_MS.o [1]
acGUI_FontHZ_fontHz14_7570
                        0x0801bb10    0x48  Data  Gb  Font24_MS.o [1]
acGUI_FontHZ_fontHz14_76D8
                        0x0801bb58    0x48  Data  Gb  Font24_MS.o [1]
acGUI_FontHZ_fontHz14_76E4
                        0x0801bba0    0x48  Data  Gb  Font24_MS.o [1]
acGUI_FontHZ_fontHz14_786C
                        0x0801bbe8    0x48  Data  Gb  Font24_MS.o [1]
acGUI_FontHZ_fontHz14_786E
                        0x0801bc30    0x48  Data  Gb  Font24_MS.o [1]
acGUI_FontHZ_fontHz14_78BA
                        0x0801bc78    0x48  Data  Gb  Font24_MS.o [1]
acGUI_FontHZ_fontHz14_7981
                        0x0801bcc0    0x48  Data  Gb  Font24_MS.o [1]
acGUI_FontHZ_fontHz14_79FB
                        0x0801bd08    0x48  Data  Gb  Font24_MS.o [1]
acGUI_FontHZ_fontHz14_7A0D
                        0x0801bd50    0x48  Data  Gb  Font24_MS.o [1]
acGUI_FontHZ_fontHz14_7AEF
                        0x0801bd98    0x48  Data  Gb  Font24_MS.o [1]
acGUI_FontHZ_fontHz14_7B2C
                        0x0801bde0    0x48  Data  Gb  Font24_MS.o [1]
acGUI_FontHZ_fontHz14_7B49
                        0x0801be28    0x48  Data  Gb  Font24_MS.o [1]
acGUI_FontHZ_fontHz14_7B80
                        0x0801be70    0x48  Data  Gb  Font24_MS.o [1]
acGUI_FontHZ_fontHz14_7BB1
                        0x0801beb8    0x48  Data  Gb  Font24_MS.o [1]
acGUI_FontHZ_fontHz14_7CFB
                        0x0801bf00    0x48  Data  Gb  Font24_MS.o [1]
acGUI_FontHZ_fontHz14_7D50
                        0x0801bf48    0x48  Data  Gb  Font24_MS.o [1]
acGUI_FontHZ_fontHz14_7D71
                        0x0801bf90    0x48  Data  Gb  Font24_MS.o [1]
acGUI_FontHZ_fontHz14_7D81
                        0x0801bfd8    0x48  Data  Gb  Font24_MS.o [1]
acGUI_FontHZ_fontHz14_7DB2
                        0x0801c020    0x48  Data  Gb  Font24_MS.o [1]
acGUI_FontHZ_fontHz14_7E41
                        0x0801c068    0x48  Data  Gb  Font24_MS.o [1]
acGUI_FontHZ_fontHz14_7E7C
                        0x0801c0b0    0x48  Data  Gb  Font24_MS.o [1]
acGUI_FontHZ_fontHz14_7E8C
                        0x0801c0f8    0x48  Data  Gb  Font24_MS.o [1]
acGUI_FontHZ_fontHz14_7ED1
                        0x0801c140    0x48  Data  Gb  Font24_MS.o [1]
acGUI_FontHZ_fontHz14_7ED3
                        0x0801c188    0x48  Data  Gb  Font24_MS.o [1]
acGUI_FontHZ_fontHz14_7EDF
                        0x0801c1d0    0x48  Data  Gb  Font24_MS.o [1]
acGUI_FontHZ_fontHz14_7EE7
                        0x0801c218    0x48  Data  Gb  Font24_MS.o [1]
acGUI_FontHZ_fontHz14_7EED
                        0x0801c260    0x48  Data  Gb  Font24_MS.o [1]
acGUI_FontHZ_fontHz14_7F51
                        0x0801c2a8    0x48  Data  Gb  Font24_MS.o [1]
acGUI_FontHZ_fontHz14_7F6E
                        0x0801c2f0    0x48  Data  Gb  Font24_MS.o [1]
acGUI_FontHZ_fontHz14_8017
                        0x0801c338    0x48  Data  Gb  Font24_MS.o [1]
acGUI_FontHZ_fontHz14_81EA
                        0x0801c380    0x48  Data  Gb  Font24_MS.o [1]
acGUI_FontHZ_fontHz14_884C
                        0x0801c3c8    0x48  Data  Gb  Font24_MS.o [1]
acGUI_FontHZ_fontHz14_88C5
                        0x0801c410    0x48  Data  Gb  Font24_MS.o [1]
acGUI_FontHZ_fontHz14_88DD
                        0x0801c458    0x48  Data  Gb  Font24_MS.o [1]
acGUI_FontHZ_fontHz14_8981
                        0x0801c4a0    0x48  Data  Gb  Font24_MS.o [1]
acGUI_FontHZ_fontHz14_89E3
                        0x0801c4e8    0x48  Data  Gb  Font24_MS.o [1]
acGUI_FontHZ_fontHz14_8A00
                        0x0801c530    0x48  Data  Gb  Font24_MS.o [1]
acGUI_FontHZ_fontHz14_8A2D
                        0x0801c578    0x48  Data  Gb  Font24_MS.o [1]
acGUI_FontHZ_fontHz14_8A66
                        0x0801c5c0    0x48  Data  Gb  Font24_MS.o [1]
acGUI_FontHZ_fontHz14_8A72
                        0x0801c608    0x48  Data  Gb  Font24_MS.o [1]
acGUI_FontHZ_fontHz14_8A8D
                        0x0801c650    0x48  Data  Gb  Font24_MS.o [1]
acGUI_FontHZ_fontHz14_8A9E
                        0x0801c698    0x48  Data  Gb  Font24_MS.o [1]
acGUI_FontHZ_fontHz14_8AA4
                        0x0801c6e0    0x48  Data  Gb  Font24_MS.o [1]
acGUI_FontHZ_fontHz14_8ABF
                        0x0801c728    0x48  Data  Gb  Font24_MS.o [1]
acGUI_FontHZ_fontHz14_8ACB
                        0x0801c770    0x48  Data  Gb  Font24_MS.o [1]
acGUI_FontHZ_fontHz14_8B8A
                        0x0801c7b8    0x48  Data  Gb  Font24_MS.o [1]
acGUI_FontHZ_fontHz14_8BA4
                        0x0801c800    0x48  Data  Gb  Font24_MS.o [1]
acGUI_FontHZ_fontHz14_8BBE
                        0x0801c848    0x48  Data  Gb  Font24_MS.o [1]
acGUI_FontHZ_fontHz14_8BD5
                        0x0801c890    0x48  Data  Gb  Font24_MS.o [1]
acGUI_FontHZ_fontHz14_8BE5
                        0x0801c8d8    0x48  Data  Gb  Font24_MS.o [1]
acGUI_FontHZ_fontHz14_8BED
                        0x0801c920    0x48  Data  Gb  Font24_MS.o [1]
acGUI_FontHZ_fontHz14_8BEF
                        0x0801c968    0x48  Data  Gb  Font24_MS.o [1]
acGUI_FontHZ_fontHz14_8BF7
                        0x0801c9b0    0x48  Data  Gb  Font24_MS.o [1]
acGUI_FontHZ_fontHz14_8C03
                        0x0801c9f8    0x48  Data  Gb  Font24_MS.o [1]
acGUI_FontHZ_fontHz14_8D25
                        0x0801ca40    0x48  Data  Gb  Font24_MS.o [1]
acGUI_FontHZ_fontHz14_8DEF
                        0x0801ca88    0x48  Data  Gb  Font24_MS.o [1]
acGUI_FontHZ_fontHz14_8EF8
                        0x0801cad0    0x48  Data  Gb  Font24_MS.o [1]
acGUI_FontHZ_fontHz14_8F09
                        0x0801cb18    0x48  Data  Gb  Font24_MS.o [1]
acGUI_FontHZ_fontHz14_8F74
                        0x0801cb60    0x48  Data  Gb  Font24_MS.o [1]
acGUI_FontHZ_fontHz14_8F7D
                        0x0801cba8    0x48  Data  Gb  Font24_MS.o [1]
acGUI_FontHZ_fontHz14_8FD4
                        0x0801cbf0    0x48  Data  Gb  Font24_MS.o [1]
acGUI_FontHZ_fontHz14_8FDB
                        0x0801cc38    0x48  Data  Gb  Font24_MS.o [1]
acGUI_FontHZ_fontHz14_9000
                        0x0801cc80    0x48  Data  Gb  Font24_MS.o [1]
acGUI_FontHZ_fontHz14_9001
                        0x0801ccc8    0x48  Data  Gb  Font24_MS.o [1]
acGUI_FontHZ_fontHz14_9009
                        0x0801cd10    0x48  Data  Gb  Font24_MS.o [1]
acGUI_FontHZ_fontHz14_901A
                        0x0801cd58    0x48  Data  Gb  Font24_MS.o [1]
acGUI_FontHZ_fontHz14_901F
                        0x0801cda0    0x48  Data  Gb  Font24_MS.o [1]
acGUI_FontHZ_fontHz14_9032
                        0x0801cde8    0x48  Data  Gb  Font24_MS.o [1]
acGUI_FontHZ_fontHz14_9078
                        0x0801ce30    0x48  Data  Gb  Font24_MS.o [1]
acGUI_FontHZ_fontHz14_90AE
                        0x0801ce78    0x48  Data  Gb  Font24_MS.o [1]
acGUI_FontHZ_fontHz14_90F5
                        0x0801cec0    0x48  Data  Gb  Font24_MS.o [1]
acGUI_FontHZ_fontHz14_91CD
                        0x0801cf08    0x48  Data  Gb  Font24_MS.o [1]
acGUI_FontHZ_fontHz14_932F
                        0x0801cf50    0x48  Data  Gb  Font24_MS.o [1]
acGUI_FontHZ_fontHz14_9519
                        0x0801cf98    0x48  Data  Gb  Font24_MS.o [1]
acGUI_FontHZ_fontHz14_9577
                        0x0801cfe0    0x48  Data  Gb  Font24_MS.o [1]
acGUI_FontHZ_fontHz14_957F
                        0x0801d028    0x48  Data  Gb  Font24_MS.o [1]
acGUI_FontHZ_fontHz14_9589
                        0x0801d070    0x48  Data  Gb  Font24_MS.o [1]
acGUI_FontHZ_fontHz14_958B
                        0x0801d0b8    0x48  Data  Gb  Font24_MS.o [1]
acGUI_FontHZ_fontHz14_9593
                        0x0801d100    0x48  Data  Gb  Font24_MS.o [1]
acGUI_FontHZ_fontHz14_95DC
                        0x0801d148    0x48  Data  Gb  Font24_MS.o [1]
acGUI_FontHZ_fontHz14_95ED
                        0x0801d190    0x48  Data  Gb  Font24_MS.o [1]
acGUI_FontHZ_fontHz14_95F4
                        0x0801d1d8    0x48  Data  Gb  Font24_MS.o [1]
acGUI_FontHZ_fontHz14_9664
                        0x0801d220    0x48  Data  Gb  Font24_MS.o [1]
acGUI_FontHZ_fontHz14_96F2
                        0x0801d268    0x48  Data  Gb  Font24_MS.o [1]
acGUI_FontHZ_fontHz14_96F6
                        0x0801d2b0    0x48  Data  Gb  Font24_MS.o [1]
acGUI_FontHZ_fontHz14_96FB
                        0x0801d2f8    0x48  Data  Gb  Font24_MS.o [1]
acGUI_FontHZ_fontHz14_9762
                        0x0801d340    0x48  Data  Gb  Font24_MS.o [1]
acGUI_FontHZ_fontHz14_97FF
                        0x0801d388    0x48  Data  Gb  Font24_MS.o [1]
acGUI_FontHZ_fontHz14_9801
                        0x0801d3d0    0x48  Data  Gb  Font24_MS.o [1]
acGUI_FontHZ_fontHz14_9810
                        0x0801d418    0x48  Data  Gb  Font24_MS.o [1]
acGUI_FontHZ_fontHz14_982D
                        0x0801d460    0x48  Data  Gb  Font24_MS.o [1]
acGUI_FontHZ_fontHz14_9875
                        0x0801d4a8    0x48  Data  Gb  Font24_MS.o [1]
acGUI_FontHZ_fontHz14_9884
                        0x0801d4f0    0x48  Data  Gb  Font24_MS.o [1]
acGUI_FontHZ_fontHz14_98A8
                        0x0801d538    0x48  Data  Gb  Font24_MS.o [1]
acGUI_FontHZ_fontHz14_98CE
                        0x0801d580    0x48  Data  Gb  Font24_MS.o [1]
acGUI_FontHZ_fontHz14_9AD8
                        0x0801d5c8    0x48  Data  Gb  Font24_MS.o [1]
acGUI_FontHZ_fontHz14_9EDE
                        0x0801d610    0x48  Data  Gb  Font24_MS.o [1]
acGUI_Fontmks_fontHz14_0020
                        0x0804ad2c    0x10  Data  Gb  mks_fontHz14.o [1]
acGUI_Fontmks_fontHz14_0021
                        0x0804ad3c    0x10  Data  Gb  mks_fontHz14.o [1]
acGUI_Fontmks_fontHz14_0022
                        0x0804ad4c    0x10  Data  Gb  mks_fontHz14.o [1]
acGUI_Fontmks_fontHz14_0023
                        0x0804ad5c    0x10  Data  Gb  mks_fontHz14.o [1]
acGUI_Fontmks_fontHz14_0024
                        0x0804ad6c    0x10  Data  Gb  mks_fontHz14.o [1]
acGUI_Fontmks_fontHz14_0025
                        0x0804ad7c    0x10  Data  Gb  mks_fontHz14.o [1]
acGUI_Fontmks_fontHz14_0026
                        0x0804ad8c    0x10  Data  Gb  mks_fontHz14.o [1]
acGUI_Fontmks_fontHz14_0027
                        0x0804ad9c    0x10  Data  Gb  mks_fontHz14.o [1]
acGUI_Fontmks_fontHz14_0028
                        0x0804adac    0x10  Data  Gb  mks_fontHz14.o [1]
acGUI_Fontmks_fontHz14_0029
                        0x0804adbc    0x10  Data  Gb  mks_fontHz14.o [1]
acGUI_Fontmks_fontHz14_002A
                        0x0804adcc    0x10  Data  Gb  mks_fontHz14.o [1]
acGUI_Fontmks_fontHz14_002B
                        0x0804addc    0x10  Data  Gb  mks_fontHz14.o [1]
acGUI_Fontmks_fontHz14_002C
                        0x0804adec    0x10  Data  Gb  mks_fontHz14.o [1]
acGUI_Fontmks_fontHz14_002D
                        0x0804adfc    0x10  Data  Gb  mks_fontHz14.o [1]
acGUI_Fontmks_fontHz14_002E
                        0x0804ae0c    0x10  Data  Gb  mks_fontHz14.o [1]
acGUI_Fontmks_fontHz14_002F
                        0x0804ae1c    0x10  Data  Gb  mks_fontHz14.o [1]
acGUI_Fontmks_fontHz14_0030
                        0x0804ae2c    0x10  Data  Gb  mks_fontHz14.o [1]
acGUI_Fontmks_fontHz14_0031
                        0x0804ae3c    0x10  Data  Gb  mks_fontHz14.o [1]
acGUI_Fontmks_fontHz14_0032
                        0x0804ae4c    0x10  Data  Gb  mks_fontHz14.o [1]
acGUI_Fontmks_fontHz14_0033
                        0x0804ae5c    0x10  Data  Gb  mks_fontHz14.o [1]
acGUI_Fontmks_fontHz14_0034
                        0x0804ae6c    0x10  Data  Gb  mks_fontHz14.o [1]
acGUI_Fontmks_fontHz14_0035
                        0x0804ae7c    0x10  Data  Gb  mks_fontHz14.o [1]
acGUI_Fontmks_fontHz14_0036
                        0x0804ae8c    0x10  Data  Gb  mks_fontHz14.o [1]
acGUI_Fontmks_fontHz14_0037
                        0x0804ae9c    0x10  Data  Gb  mks_fontHz14.o [1]
acGUI_Fontmks_fontHz14_0038
                        0x0804aeac    0x10  Data  Gb  mks_fontHz14.o [1]
acGUI_Fontmks_fontHz14_0039
                        0x0804aebc    0x10  Data  Gb  mks_fontHz14.o [1]
acGUI_Fontmks_fontHz14_003A
                        0x0804aecc    0x10  Data  Gb  mks_fontHz14.o [1]
acGUI_Fontmks_fontHz14_003B
                        0x0804aedc    0x10  Data  Gb  mks_fontHz14.o [1]
acGUI_Fontmks_fontHz14_003C
                        0x0804aeec    0x10  Data  Gb  mks_fontHz14.o [1]
acGUI_Fontmks_fontHz14_003D
                        0x0804aefc    0x10  Data  Gb  mks_fontHz14.o [1]
acGUI_Fontmks_fontHz14_003E
                        0x0804af0c    0x10  Data  Gb  mks_fontHz14.o [1]
acGUI_Fontmks_fontHz14_003F
                        0x0804af1c    0x10  Data  Gb  mks_fontHz14.o [1]
acGUI_Fontmks_fontHz14_0040
                        0x0804af2c    0x10  Data  Gb  mks_fontHz14.o [1]
acGUI_Fontmks_fontHz14_0041
                        0x0804af3c    0x10  Data  Gb  mks_fontHz14.o [1]
acGUI_Fontmks_fontHz14_0042
                        0x0804af4c    0x10  Data  Gb  mks_fontHz14.o [1]
acGUI_Fontmks_fontHz14_0043
                        0x0804af5c    0x10  Data  Gb  mks_fontHz14.o [1]
acGUI_Fontmks_fontHz14_0044
                        0x0804af6c    0x10  Data  Gb  mks_fontHz14.o [1]
acGUI_Fontmks_fontHz14_0045
                        0x0804af7c    0x10  Data  Gb  mks_fontHz14.o [1]
acGUI_Fontmks_fontHz14_0046
                        0x0804af8c    0x10  Data  Gb  mks_fontHz14.o [1]
acGUI_Fontmks_fontHz14_0047
                        0x0804af9c    0x10  Data  Gb  mks_fontHz14.o [1]
acGUI_Fontmks_fontHz14_0048
                        0x0804afac    0x10  Data  Gb  mks_fontHz14.o [1]
acGUI_Fontmks_fontHz14_0049
                        0x0804afbc    0x10  Data  Gb  mks_fontHz14.o [1]
acGUI_Fontmks_fontHz14_004A
                        0x0804afcc    0x10  Data  Gb  mks_fontHz14.o [1]
acGUI_Fontmks_fontHz14_004B
                        0x0804afdc    0x10  Data  Gb  mks_fontHz14.o [1]
acGUI_Fontmks_fontHz14_004C
                        0x0804afec    0x10  Data  Gb  mks_fontHz14.o [1]
acGUI_Fontmks_fontHz14_004D
                        0x0804affc    0x10  Data  Gb  mks_fontHz14.o [1]
acGUI_Fontmks_fontHz14_004E
                        0x0804b00c    0x10  Data  Gb  mks_fontHz14.o [1]
acGUI_Fontmks_fontHz14_004F
                        0x0804b01c    0x10  Data  Gb  mks_fontHz14.o [1]
acGUI_Fontmks_fontHz14_0050
                        0x0804b02c    0x10  Data  Gb  mks_fontHz14.o [1]
acGUI_Fontmks_fontHz14_0051
                        0x0804b03c    0x10  Data  Gb  mks_fontHz14.o [1]
acGUI_Fontmks_fontHz14_0052
                        0x0804b04c    0x10  Data  Gb  mks_fontHz14.o [1]
acGUI_Fontmks_fontHz14_0053
                        0x0804b05c    0x10  Data  Gb  mks_fontHz14.o [1]
acGUI_Fontmks_fontHz14_0054
                        0x0804b06c    0x10  Data  Gb  mks_fontHz14.o [1]
acGUI_Fontmks_fontHz14_0055
                        0x0804b07c    0x10  Data  Gb  mks_fontHz14.o [1]
acGUI_Fontmks_fontHz14_0056
                        0x0804b08c    0x10  Data  Gb  mks_fontHz14.o [1]
acGUI_Fontmks_fontHz14_0057
                        0x0804b09c    0x10  Data  Gb  mks_fontHz14.o [1]
acGUI_Fontmks_fontHz14_0058
                        0x0804b0ac    0x10  Data  Gb  mks_fontHz14.o [1]
acGUI_Fontmks_fontHz14_0059
                        0x0804b0bc    0x10  Data  Gb  mks_fontHz14.o [1]
acGUI_Fontmks_fontHz14_005A
                        0x0804b0cc    0x10  Data  Gb  mks_fontHz14.o [1]
acGUI_Fontmks_fontHz14_005B
                        0x0804b0dc    0x10  Data  Gb  mks_fontHz14.o [1]
acGUI_Fontmks_fontHz14_005C
                        0x0804b0ec    0x10  Data  Gb  mks_fontHz14.o [1]
acGUI_Fontmks_fontHz14_005D
                        0x0804b0fc    0x10  Data  Gb  mks_fontHz14.o [1]
acGUI_Fontmks_fontHz14_005E
                        0x0804b10c    0x10  Data  Gb  mks_fontHz14.o [1]
acGUI_Fontmks_fontHz14_005F
                        0x0804b11c    0x10  Data  Gb  mks_fontHz14.o [1]
acGUI_Fontmks_fontHz14_0060
                        0x0804b12c    0x10  Data  Gb  mks_fontHz14.o [1]
acGUI_Fontmks_fontHz14_0061
                        0x0804b13c    0x10  Data  Gb  mks_fontHz14.o [1]
acGUI_Fontmks_fontHz14_0062
                        0x0804b14c    0x10  Data  Gb  mks_fontHz14.o [1]
acGUI_Fontmks_fontHz14_0063
                        0x0804b15c    0x10  Data  Gb  mks_fontHz14.o [1]
acGUI_Fontmks_fontHz14_0064
                        0x0804b16c    0x10  Data  Gb  mks_fontHz14.o [1]
acGUI_Fontmks_fontHz14_0065
                        0x0804b17c    0x10  Data  Gb  mks_fontHz14.o [1]
acGUI_Fontmks_fontHz14_0066
                        0x0804b18c    0x10  Data  Gb  mks_fontHz14.o [1]
acGUI_Fontmks_fontHz14_0067
                        0x0804b19c    0x10  Data  Gb  mks_fontHz14.o [1]
acGUI_Fontmks_fontHz14_0068
                        0x0804b1ac    0x10  Data  Gb  mks_fontHz14.o [1]
acGUI_Fontmks_fontHz14_0069
                        0x0804b1bc    0x10  Data  Gb  mks_fontHz14.o [1]
acGUI_Fontmks_fontHz14_006A
                        0x0804b1cc    0x10  Data  Gb  mks_fontHz14.o [1]
acGUI_Fontmks_fontHz14_006B
                        0x0804b1dc    0x10  Data  Gb  mks_fontHz14.o [1]
acGUI_Fontmks_fontHz14_006C
                        0x0804b1ec    0x10  Data  Gb  mks_fontHz14.o [1]
acGUI_Fontmks_fontHz14_006D
                        0x0804b1fc    0x10  Data  Gb  mks_fontHz14.o [1]
acGUI_Fontmks_fontHz14_006E
                        0x0804b20c    0x10  Data  Gb  mks_fontHz14.o [1]
acGUI_Fontmks_fontHz14_006F
                        0x0804b21c    0x10  Data  Gb  mks_fontHz14.o [1]
acGUI_Fontmks_fontHz14_0070
                        0x0804b22c    0x10  Data  Gb  mks_fontHz14.o [1]
acGUI_Fontmks_fontHz14_0071
                        0x0804b23c    0x10  Data  Gb  mks_fontHz14.o [1]
acGUI_Fontmks_fontHz14_0072
                        0x0804b24c    0x10  Data  Gb  mks_fontHz14.o [1]
acGUI_Fontmks_fontHz14_0073
                        0x0804b25c    0x10  Data  Gb  mks_fontHz14.o [1]
acGUI_Fontmks_fontHz14_0074
                        0x0804b26c    0x10  Data  Gb  mks_fontHz14.o [1]
acGUI_Fontmks_fontHz14_0075
                        0x0804b27c    0x10  Data  Gb  mks_fontHz14.o [1]
acGUI_Fontmks_fontHz14_0076
                        0x0804b28c    0x10  Data  Gb  mks_fontHz14.o [1]
acGUI_Fontmks_fontHz14_0077
                        0x0804b29c    0x10  Data  Gb  mks_fontHz14.o [1]
acGUI_Fontmks_fontHz14_0078
                        0x0804b2ac    0x10  Data  Gb  mks_fontHz14.o [1]
acGUI_Fontmks_fontHz14_0079
                        0x0804b2bc    0x10  Data  Gb  mks_fontHz14.o [1]
acGUI_Fontmks_fontHz14_007A
                        0x0804b2cc    0x10  Data  Gb  mks_fontHz14.o [1]
acGUI_Fontmks_fontHz14_007B
                        0x0804b2dc    0x10  Data  Gb  mks_fontHz14.o [1]
acGUI_Fontmks_fontHz14_007C
                        0x0804b2ec    0x10  Data  Gb  mks_fontHz14.o [1]
acGUI_Fontmks_fontHz14_007D
                        0x0804b2fc    0x10  Data  Gb  mks_fontHz14.o [1]
acGUI_Fontmks_fontHz14_007E
                        0x0804b30c    0x10  Data  Gb  mks_fontHz14.o [1]
acGUI_Fontmks_fontHz14_007F
                        0x0804b31c    0x10  Data  Gb  mks_fontHz14.o [1]
acGUI_Fontmks_fontHz14_00A0
                        0x0804b32c    0x20  Data  Gb  mks_fontHz14.o [1]
acGUI_Fontmks_fontHz14_00A1
                        0x0804b34c    0x10  Data  Gb  mks_fontHz14.o [1]
acGUI_Fontmks_fontHz14_00A2
                        0x0804b35c    0x10  Data  Gb  mks_fontHz14.o [1]
acGUI_Fontmks_fontHz14_00A3
                        0x0804b36c    0x10  Data  Gb  mks_fontHz14.o [1]
acGUI_Fontmks_fontHz14_00A4
                        0x0804b37c    0x20  Data  Gb  mks_fontHz14.o [1]
acGUI_Fontmks_fontHz14_00A5
                        0x0804b39c    0x10  Data  Gb  mks_fontHz14.o [1]
acGUI_Fontmks_fontHz14_00A6
                        0x0804b3ac    0x10  Data  Gb  mks_fontHz14.o [1]
acGUI_Fontmks_fontHz14_00A7
                        0x0804b3bc    0x20  Data  Gb  mks_fontHz14.o [1]
acGUI_Fontmks_fontHz14_00A8
                        0x0804b3dc    0x20  Data  Gb  mks_fontHz14.o [1]
acGUI_Fontmks_fontHz14_00A9
                        0x0804b3fc    0x10  Data  Gb  mks_fontHz14.o [1]
acGUI_Fontmks_fontHz14_00AA
                        0x0804b40c    0x10  Data  Gb  mks_fontHz14.o [1]
acGUI_Fontmks_fontHz14_00AB
                        0x0804b41c    0x10  Data  Gb  mks_fontHz14.o [1]
acGUI_Fontmks_fontHz14_00AC
                        0x0804b42c    0x10  Data  Gb  mks_fontHz14.o [1]
acGUI_Fontmks_fontHz14_00AD
                        0x0804b43c    0x10  Data  Gb  mks_fontHz14.o [1]
acGUI_Fontmks_fontHz14_00AE
                        0x0804b44c    0x10  Data  Gb  mks_fontHz14.o [1]
acGUI_Fontmks_fontHz14_00AF
                        0x0804b45c    0x10  Data  Gb  mks_fontHz14.o [1]
acGUI_Fontmks_fontHz14_00B0
                        0x0804b46c    0x20  Data  Gb  mks_fontHz14.o [1]
acGUI_Fontmks_fontHz14_00B1
                        0x0804b48c    0x20  Data  Gb  mks_fontHz14.o [1]
acGUI_Fontmks_fontHz14_00B2
                        0x0804b4ac    0x10  Data  Gb  mks_fontHz14.o [1]
acGUI_Fontmks_fontHz14_00B3
                        0x0804b4bc    0x10  Data  Gb  mks_fontHz14.o [1]
acGUI_Fontmks_fontHz14_00B4
                        0x0804b4cc    0x10  Data  Gb  mks_fontHz14.o [1]
acGUI_Fontmks_fontHz14_00B5
                        0x0804b4dc    0x10  Data  Gb  mks_fontHz14.o [1]
acGUI_Fontmks_fontHz14_00B6
                        0x0804b4ec    0x10  Data  Gb  mks_fontHz14.o [1]
acGUI_Fontmks_fontHz14_00B7
                        0x0804b4fc    0x20  Data  Gb  mks_fontHz14.o [1]
acGUI_Fontmks_fontHz14_00B8
                        0x0804b51c    0x10  Data  Gb  mks_fontHz14.o [1]
acGUI_Fontmks_fontHz14_00B9
                        0x0804b52c    0x10  Data  Gb  mks_fontHz14.o [1]
acGUI_Fontmks_fontHz14_00BA
                        0x0804b53c    0x10  Data  Gb  mks_fontHz14.o [1]
acGUI_Fontmks_fontHz14_00BB
                        0x0804b54c    0x10  Data  Gb  mks_fontHz14.o [1]
acGUI_Fontmks_fontHz14_00BC
                        0x0804b55c    0x10  Data  Gb  mks_fontHz14.o [1]
acGUI_Fontmks_fontHz14_00BD
                        0x0804b56c    0x10  Data  Gb  mks_fontHz14.o [1]
acGUI_Fontmks_fontHz14_00BE
                        0x0804b57c    0x10  Data  Gb  mks_fontHz14.o [1]
acGUI_Fontmks_fontHz14_00BF
                        0x0804b58c    0x10  Data  Gb  mks_fontHz14.o [1]
acGUI_Fontmks_fontHz14_00C0
                        0x0804b59c    0x10  Data  Gb  mks_fontHz14.o [1]
acGUI_Fontmks_fontHz14_00C1
                        0x0804b5ac    0x10  Data  Gb  mks_fontHz14.o [1]
acGUI_Fontmks_fontHz14_00C2
                        0x0804b5bc    0x10  Data  Gb  mks_fontHz14.o [1]
acGUI_Fontmks_fontHz14_00C3
                        0x0804b5cc    0x10  Data  Gb  mks_fontHz14.o [1]
acGUI_Fontmks_fontHz14_00C4
                        0x0804b5dc    0x10  Data  Gb  mks_fontHz14.o [1]
acGUI_Fontmks_fontHz14_00C5
                        0x0804b5ec    0x10  Data  Gb  mks_fontHz14.o [1]
acGUI_Fontmks_fontHz14_00C6
                        0x0804b5fc    0x10  Data  Gb  mks_fontHz14.o [1]
acGUI_Fontmks_fontHz14_00C7
                        0x0804b60c    0x10  Data  Gb  mks_fontHz14.o [1]
acGUI_Fontmks_fontHz14_00C8
                        0x0804b61c    0x10  Data  Gb  mks_fontHz14.o [1]
acGUI_Fontmks_fontHz14_00C9
                        0x0804b62c    0x10  Data  Gb  mks_fontHz14.o [1]
acGUI_Fontmks_fontHz14_00CA
                        0x0804b63c    0x10  Data  Gb  mks_fontHz14.o [1]
acGUI_Fontmks_fontHz14_00CB
                        0x0804b64c    0x10  Data  Gb  mks_fontHz14.o [1]
acGUI_Fontmks_fontHz14_00CC
                        0x0804b65c    0x10  Data  Gb  mks_fontHz14.o [1]
acGUI_Fontmks_fontHz14_00CD
                        0x0804b66c    0x10  Data  Gb  mks_fontHz14.o [1]
acGUI_Fontmks_fontHz14_00CE
                        0x0804b67c    0x10  Data  Gb  mks_fontHz14.o [1]
acGUI_Fontmks_fontHz14_00CF
                        0x0804b68c    0x10  Data  Gb  mks_fontHz14.o [1]
acGUI_Fontmks_fontHz14_00D0
                        0x0804b69c    0x10  Data  Gb  mks_fontHz14.o [1]
acGUI_Fontmks_fontHz14_00D1
                        0x0804b6ac    0x10  Data  Gb  mks_fontHz14.o [1]
acGUI_Fontmks_fontHz14_00D2
                        0x0804b6bc    0x10  Data  Gb  mks_fontHz14.o [1]
acGUI_Fontmks_fontHz14_00D3
                        0x0804b6cc    0x10  Data  Gb  mks_fontHz14.o [1]
acGUI_Fontmks_fontHz14_00D4
                        0x0804b6dc    0x10  Data  Gb  mks_fontHz14.o [1]
acGUI_Fontmks_fontHz14_00D5
                        0x0804b6ec    0x10  Data  Gb  mks_fontHz14.o [1]
acGUI_Fontmks_fontHz14_00D6
                        0x0804b6fc    0x10  Data  Gb  mks_fontHz14.o [1]
acGUI_Fontmks_fontHz14_00D7
                        0x0804b70c    0x20  Data  Gb  mks_fontHz14.o [1]
acGUI_Fontmks_fontHz14_00D8
                        0x0804b72c    0x10  Data  Gb  mks_fontHz14.o [1]
acGUI_Fontmks_fontHz14_00D9
                        0x0804b73c    0x10  Data  Gb  mks_fontHz14.o [1]
acGUI_Fontmks_fontHz14_00DA
                        0x0804b74c    0x10  Data  Gb  mks_fontHz14.o [1]
acGUI_Fontmks_fontHz14_00DB
                        0x0804b75c    0x10  Data  Gb  mks_fontHz14.o [1]
acGUI_Fontmks_fontHz14_00DC
                        0x0804b76c    0x10  Data  Gb  mks_fontHz14.o [1]
acGUI_Fontmks_fontHz14_00DD
                        0x0804b77c    0x10  Data  Gb  mks_fontHz14.o [1]
acGUI_Fontmks_fontHz14_00DE
                        0x0804b78c    0x10  Data  Gb  mks_fontHz14.o [1]
acGUI_Fontmks_fontHz14_00DF
                        0x0804b79c    0x10  Data  Gb  mks_fontHz14.o [1]
acGUI_Fontmks_fontHz14_00E0
                        0x0804b7ac    0x10  Data  Gb  mks_fontHz14.o [1]
acGUI_Fontmks_fontHz14_00E1
                        0x0804b7bc    0x10  Data  Gb  mks_fontHz14.o [1]
acGUI_Fontmks_fontHz14_00E2
                        0x0804b7cc    0x10  Data  Gb  mks_fontHz14.o [1]
acGUI_Fontmks_fontHz14_00E3
                        0x0804b7dc    0x10  Data  Gb  mks_fontHz14.o [1]
acGUI_Fontmks_fontHz14_00E4
                        0x0804b7ec    0x10  Data  Gb  mks_fontHz14.o [1]
acGUI_Fontmks_fontHz14_00E5
                        0x0804b7fc    0x10  Data  Gb  mks_fontHz14.o [1]
acGUI_Fontmks_fontHz14_00E6
                        0x0804b80c    0x10  Data  Gb  mks_fontHz14.o [1]
acGUI_Fontmks_fontHz14_00E7
                        0x0804b81c    0x10  Data  Gb  mks_fontHz14.o [1]
acGUI_Fontmks_fontHz14_00E8
                        0x0804b82c    0x10  Data  Gb  mks_fontHz14.o [1]
acGUI_Fontmks_fontHz14_00E9
                        0x0804b83c    0x10  Data  Gb  mks_fontHz14.o [1]
acGUI_Fontmks_fontHz14_00EA
                        0x0804b84c    0x10  Data  Gb  mks_fontHz14.o [1]
acGUI_Fontmks_fontHz14_00EB
                        0x0804b85c    0x10  Data  Gb  mks_fontHz14.o [1]
acGUI_Fontmks_fontHz14_00EC
                        0x0804b86c    0x10  Data  Gb  mks_fontHz14.o [1]
acGUI_Fontmks_fontHz14_00ED
                        0x0804b87c    0x10  Data  Gb  mks_fontHz14.o [1]
acGUI_Fontmks_fontHz14_00EE
                        0x0804b88c    0x10  Data  Gb  mks_fontHz14.o [1]
acGUI_Fontmks_fontHz14_00EF
                        0x0804b89c    0x10  Data  Gb  mks_fontHz14.o [1]
acGUI_Fontmks_fontHz14_00F0
                        0x0804b8ac    0x10  Data  Gb  mks_fontHz14.o [1]
acGUI_Fontmks_fontHz14_00F1
                        0x0804b8bc    0x10  Data  Gb  mks_fontHz14.o [1]
acGUI_Fontmks_fontHz14_00F2
                        0x0804b8cc    0x10  Data  Gb  mks_fontHz14.o [1]
acGUI_Fontmks_fontHz14_00F3
                        0x0804b8dc    0x10  Data  Gb  mks_fontHz14.o [1]
acGUI_Fontmks_fontHz14_00F4
                        0x0804b8ec    0x10  Data  Gb  mks_fontHz14.o [1]
acGUI_Fontmks_fontHz14_00F5
                        0x0804b8fc    0x10  Data  Gb  mks_fontHz14.o [1]
acGUI_Fontmks_fontHz14_00F6
                        0x0804b90c    0x10  Data  Gb  mks_fontHz14.o [1]
acGUI_Fontmks_fontHz14_00F7
                        0x0804b91c    0x20  Data  Gb  mks_fontHz14.o [1]
acGUI_Fontmks_fontHz14_00F8
                        0x0804b93c    0x10  Data  Gb  mks_fontHz14.o [1]
acGUI_Fontmks_fontHz14_00F9
                        0x0804b94c    0x10  Data  Gb  mks_fontHz14.o [1]
acGUI_Fontmks_fontHz14_00FA
                        0x0804b95c    0x10  Data  Gb  mks_fontHz14.o [1]
acGUI_Fontmks_fontHz14_00FB
                        0x0804b96c    0x10  Data  Gb  mks_fontHz14.o [1]
acGUI_Fontmks_fontHz14_00FC
                        0x0804b97c    0x10  Data  Gb  mks_fontHz14.o [1]
acGUI_Fontmks_fontHz14_00FD
                        0x0804b98c    0x10  Data  Gb  mks_fontHz14.o [1]
acGUI_Fontmks_fontHz14_00FE
                        0x0804b99c    0x10  Data  Gb  mks_fontHz14.o [1]
acGUI_Fontmks_fontHz14_00FF
                        0x0804b9ac    0x10  Data  Gb  mks_fontHz14.o [1]
active_extruder         0x20000ace     0x1  Data  Gb  Marlin_main.o [1]
alloc_win_id            0x08041ae5    0x20  Code  Gb  id_manage.o [1]
ascii2dec(char *, char)
                        0x0802d783    0x4a  Code  Gb  mks_cfg.o [1]
atan2f                  0x08029731          Code  Gb  atan2f.o [4]
atoi                    0x080409d5     0x8  Code  Gb  atoi.o [3]
axis_codes              0x08020740     0x4  Data  Lc  Marlin_main.o [1]
axis_homed              0x20000ac0     0x4  Data  Gb  Marlin_main.o [1]
axis_known_position     0x20000ac4     0x4  Data  Gb  Marlin_main.o [1]
axis_relative_modes     0x20000abc     0x4  Data  Gb  Marlin_main.o [1]
axis_unhomed_error(bool)
                        0x08020515    0x42  Code  Gb  Marlin_main.o [1]
back_flg                0x200004f1     0x1  Data  Gb  draw_print_file.o [1]
base_home_pos(AxisEnum)
                        0x08020139     0xe  Code  Lc  Marlin_main.o [1]
base_home_pos_P         0x20000f88     0xc  Data  Gb  Marlin_main.o [1]
base_max_pos(AxisEnum)  0x0802012b     0xe  Code  Lc  Marlin_main.o [1]
base_max_pos_P          0x20000f7c     0xc  Data  Gb  Marlin_main.o [1]
base_min_pos(AxisEnum)  0x0802011d     0xe  Code  Lc  Marlin_main.o [1]
base_min_pos_P          0x20000f70     0xc  Data  Gb  Marlin_main.o [1]
beep_mtdet1             0x2001159b     0x1  Data  Gb  main.o [1]
beep_mtdet2             0x2001159c     0x1  Data  Gb  main.o [1]
beep_pwdet              0x2001159a     0x1  Data  Gb  main.o [1]
bmp_layer_buf           0x20009368  0x2000  Data  Gb  pic.o [1]
bmp_public_buf          0x2000113c  0x8000  Data  Gb  pic.o [1]
bmp_struct              0x20001044    0x14  Data  Gb  pic.o [1]
bmp_struct_116X116      0x20001094    0x14  Data  Gb  pic.o [1]
bmp_struct_140X90       0x20001058    0x14  Data  Gb  pic.o [1]
bmp_struct_20X22        0x20001080    0x14  Data  Gb  pic.o [1]
bmp_struct_90X90        0x2000106c    0x14  Data  Gb  pic.o [1]
bmp_struct_key          0x200010a8    0x14  Data  Gb  pic.o [1]
bmp_struct_key2         0x200010bc    0x14  Data  Gb  pic.o [1]
btn_beep_cnt            0x2001157c     0x4  Data  Gb  Marlin_main.o [1]
btn_beeper              0x08039935    0x12  Code  Gb  BUTTON.o [5]
btn_flg                 0x20011571     0x1  Data  Gb  Marlin_main.o [1]
buffer_line_to_current_position()
                        0x080263f1    0x20  Code  Gb  Marlin_main.o [1]
buffer_line_to_destination(float)
                        0x0803b3dd    0x28  Code  Gb  Marlin_main.o [1]
buttonAdd               0x20010688    0x18  Data  Lc  draw_detection.o [1]
buttonBeeper            0x20010ca0    0x18  Data  Lc  draw_info.o [1]
buttonCancle            0x20010e40    0x18  Data  Lc  draw_dialog.o [1]
buttonCheck             0x20011360    0x18  Data  Lc  draw_tool.o [1]
buttonDec               0x200106a0    0x18  Data  Lc  draw_detection.o [1]
buttonEdit              0x200106b8    0x18  Data  Lc  draw_detection.o [1]
buttonEditbk            0x20010700    0x18  Data  Lc  draw_detection.o [1]
buttonEng               0x20011210    0x18  Data  Lc  draw_language.o [1]
buttonEng_Text          0x20010610    0x18  Data  Lc  draw_language.o [1]
buttonF                 0x20010718    0x90  Data  Lc  draw_print_file.o [1]
buttonFrench            0x20011228    0x18  Data  Lc  draw_language.o [1]
buttonFrench_Text       0x20010628    0x18  Data  Lc  draw_language.o [1]
buttonGerman            0x20010580    0x18  Data  Lc  draw_language.o [1]
buttonInfo              0x20011348    0x18  Data  Lc  draw_set.o [1]
buttonItaly             0x200111f8    0x18  Data  Lc  draw_language.o [1]
buttonItaly_Text        0x20010670    0x18  Data  Lc  draw_language.o [1]
buttonJapan             0x20010568    0x18  Data  Lc  draw_language.o [1]
buttonKorean            0x200105c8    0x18  Data  Lc  draw_language.o [1]
buttonLanguage          0x20010fc8    0x18  Data  Lc  draw_set.o [1]
buttonMoveZ             0x20011014    0x18  Data  Lc  draw_tool.o [1]
buttonNext              0x20010e74    0x18  Data  Lc  draw_detection.o [1]
buttonNext              0x20010550    0x18  Data  Lc  draw_language.o [1]
buttonOk                0x20010e28    0x18  Data  Lc  draw_dialog.o [1]
buttonOperat            0x20010f3c    0x18  Data  Lc  draw_printing.o [1]
buttonPause             0x20010f60    0x18  Data  Lc  draw_printing.o [1]
buttonPd                0x20000510    0x18  Data  Lc  draw_print_file.o [1]
buttonPortuguese        0x200105b0    0x18  Data  Lc  draw_language.o [1]
buttonPrint             0x20010f94    0x18  Data  Lc  draw_ready_print.o [1]
buttonPu                0x200004f8    0x18  Data  Lc  draw_print_file.o [1]
buttonR                 0x20000528    0x18  Data  Lc  draw_print_file.o [1]
buttonRet               0x20011448    0x18  Data  Lc  draw_about.o [1]
buttonRet               0x20010e5c    0x18  Data  Lc  draw_detection.o [1]
buttonRet               0x20010e90    0x18  Data  Lc  draw_ExposureTest.o [1]
buttonRet               0x20010c88    0x18  Data  Lc  draw_info.o [1]
buttonRet               0x200111e0    0x18  Data  Lc  draw_language.o [1]
buttonRet               0x200112a0    0x18  Data  Lc  draw_move_motor.o [1]
buttonRet               0x200109f8    0x18  Data  Lc  draw_operate.o [1]
buttonRet               0x200114bc    0x18  Data  Lc  draw_preview.o [1]
buttonRet               0x20011428    0x18  Data  Lc  draw_service.o [1]
buttonRet               0x20010fe0    0x18  Data  Lc  draw_set.o [1]
buttonRet               0x20010ffc    0x18  Data  Lc  draw_tool.o [1]
buttonRussian           0x20011240    0x18  Data  Lc  draw_language.o [1]
buttonRussian_Text      0x20010640    0x18  Data  Lc  draw_language.o [1]
buttonService           0x20011330    0x18  Data  Lc  draw_set.o [1]
buttonSet               0x20010fac    0x18  Data  Lc  draw_ready_print.o [1]
buttonSimple_Ch         0x20000f3c    0x18  Data  Lc  draw_language.o [1]
buttonSimple_Ch_Text    0x200105e0    0x18  Data  Lc  draw_language.o [1]
buttonSpanish           0x20011258    0x18  Data  Lc  draw_language.o [1]
buttonSpanish_Text      0x20010658    0x18  Data  Lc  draw_language.o [1]
buttonStop              0x20010f78    0x18  Data  Lc  draw_printing.o [1]
buttonStop              0x200114ec    0x18  Data  Lc  draw_tool.o [1]
buttonText              0x200106d0    0x18  Data  Lc  draw_detection.o [1]
buttonTextbk            0x200106e8    0x18  Data  Lc  draw_detection.o [1]
buttonTextfront         0x20010ea8    0x18  Data  Lc  draw_ExposureTest.o [1]
buttonTool              0x200114d4    0x18  Data  Lc  draw_ready_print.o [1]
buttonTurkish           0x20010598    0x18  Data  Lc  draw_language.o [1]
buttonUp                0x20010538    0x18  Data  Lc  draw_language.o [1]
buttonZ0                0x20011378    0x18  Data  Lc  draw_tool.o [1]
buttonZD                0x20011288    0x18  Data  Lc  draw_move_motor.o [1]
buttonZI                0x20011270    0x18  Data  Lc  draw_move_motor.o [1]
button_BottomExpo_text  0x200108a4    0x18  Data  Lc  draw_operate.o [1]
button_BottomExpo_value
                        0x20011300    0x18  Data  Lc  draw_operate.o [1]
button_BottomLayer_text
                        0x20010874    0x18  Data  Lc  draw_operate.o [1]
button_BottomLayer_value
                        0x20010a10    0x18  Data  Lc  draw_operate.o [1]
button_ExpoOff_text     0x2001088c    0x18  Data  Lc  draw_operate.o [1]
button_ExpoOff_value    0x20010a28    0x18  Data  Lc  draw_operate.o [1]
button_NormalExpo_text  0x200108bc    0x18  Data  Lc  draw_operate.o [1]
button_NormalExpo_value
                        0x20011318    0x18  Data  Lc  draw_operate.o [1]
button_del_file         0x20010ef8    0x18  Data  Lc  draw_preview.o [1]
button_print            0x20010f10    0x18  Data  Lc  draw_preview.o [1]
button_z_home           0x200112d0    0x18  Data  Lc  draw_move_motor.o [1]
button_z_stop           0x200112e8    0x18  Data  Lc  draw_move_motor.o [1]
buttonbk                0x20011060    0x18  Data  Lc  draw_detection.o [1]
buttonfilename          0x20010814    0x18  Data  Lc  draw_printing.o [1]
buttonfront             0x20011078    0x18  Data  Lc  draw_detection.o [1]
buttonkey0              0x20011138    0x18  Data  Lc  draw_keyboard.o [1]
buttonkey1              0x20000f04    0x18  Data  Lc  draw_keyboard.o [1]
buttonkey2              0x20000f1c    0x18  Data  Lc  draw_keyboard.o [1]
buttonkey3              0x20011090    0x18  Data  Lc  draw_keyboard.o [1]
buttonkey4              0x200110a8    0x18  Data  Lc  draw_keyboard.o [1]
buttonkey5              0x200110c0    0x18  Data  Lc  draw_keyboard.o [1]
buttonkey6              0x200110d8    0x18  Data  Lc  draw_keyboard.o [1]
buttonkey7              0x200110f0    0x18  Data  Lc  draw_keyboard.o [1]
buttonkey8              0x20011108    0x18  Data  Lc  draw_keyboard.o [1]
buttonkey9              0x20011120    0x18  Data  Lc  draw_keyboard.o [1]
buttonkeyAC             0x20011198    0x18  Data  Lc  draw_keyboard.o [1]
buttonkeyRet            0x200111c8    0x18  Data  Lc  draw_keyboard.o [1]
buttonkeyconfirm        0x20011168    0x18  Data  Lc  draw_keyboard.o [1]
buttonkeydel            0x20011150    0x18  Data  Lc  draw_keyboard.o [1]
buttonkeynegative       0x200111b0    0x18  Data  Lc  draw_keyboard.o [1]
buttonkeypoint          0x20011180    0x18  Data  Lc  draw_keyboard.o [1]
buttonlayer             0x2001085c    0x18  Data  Lc  draw_printing.o [1]
buttonremain            0x20010844    0x18  Data  Lc  draw_printing.o [1]
buttonstep01            0x20010ec4    0x18  Data  Lc  draw_move_motor.o [1]
buttonstep1             0x20010edc    0x18  Data  Lc  draw_move_motor.o [1]
buttonstep10            0x200112b8    0x18  Data  Lc  draw_move_motor.o [1]
buttontraditional_Ch    0x20000f54    0x18  Data  Lc  draw_language.o [1]
buttontraditional_Ch_Text
                        0x200105f8    0x18  Data  Lc  draw_language.o [1]
buttonused              0x2001082c    0x18  Data  Lc  draw_printing.o [1]
buzzer_onoff_display()  0x080385ad    0x7a  Code  Gb  draw_info.o [1]
calculate_volumetric_multiplier(float const &)
                        0x0803b7ad    0xa8  Code  Gb  planner.o [1]
cap_line(char const *, bool)
                        0x08020871    0x34  Code  Lc  Marlin_main.o [1]
card                    0x2000cff4   0x9c4  Data  Gb  Marlin_main.o [1]
cartes                  0x200115bc     0xc  Data  Gb  Marlin_main.o [1]
cbAboutWin(WM_MESSAGE *)
                        0x08036721    0x40  Code  Lc  draw_about.o [1]
cbBackWin               0x0803a9e5    0x40  Code  Lc  WM.o [5]
cbDetectionWin(WM_MESSAGE *)
                        0x08037d11   0x132  Code  Lc  draw_detection.o [1]
cbDlgWin(WM_MESSAGE *)  0x0802e575   0x2a6  Code  Lc  draw_dialog.o [1]
cbDrawToolWin(WM_MESSAGE *)
                        0x0803698d    0xd4  Code  Lc  draw_tool.o [1]
cbExposureTestWin(WM_MESSAGE *)
                        0x08030251    0x60  Code  Lc  draw_ExposureTest.o [1]
cbInfoWin(WM_MESSAGE *)
                        0x08038531    0x7c  Code  Lc  draw_info.o [1]
cbKeyBoardWin(WM_MESSAGE *)
                        0x08036e55   0x46c  Code  Lc  draw_keyboard.o [1]
cbLanguageWin(WM_MESSAGE *)
                        0x080355c9   0x1ca  Code  Lc  draw_language.o [1]
cbMoveMotorWin(WM_MESSAGE *)
                        0x080343b9   0x156  Code  Lc  draw_move_motor.o [1]
cbOperateWin(WM_MESSAGE *)
                        0x08034b55   0x112  Code  Lc  draw_operate.o [1]
cbPreviewWin(WM_MESSAGE *)
                        0x0803895d    0xdc  Code  Lc  draw_preview.o [1]
cbPrintFileWin(WM_MESSAGE *)
                        0x08033b11   0x2c0  Code  Lc  draw_print_file.o [1]
cbPrintingWin(WM_MESSAGE *)
                        0x08027899   0x190  Code  Lc  draw_printing.o [1]
cbReadPrintWin(WM_MESSAGE *)
                        0x0802eff5    0x78  Code  Lc  draw_ready_print.o [1]
cbServiceWin(WM_MESSAGE *)
                        0x0803827d    0x6e  Code  Lc  draw_service.o [1]
cbSetWin(WM_MESSAGE *)  0x080351f5    0x96  Code  Lc  draw_set.o [1]
ceilf                   0x0803b629          Code  Gb  ceilf.o [4]
cfg_buf                 0x20000020   0x404  Data  Gb  mks_cfg.o [1]
cfg_file                0x20000018     0x4  Data  Gb  mks_cfg.o [1]
cfg_file_cur            0x2000001c     0x4  Data  Gb  mks_cfg.o [1]
check_fs                0x08031883    0x72  Code  Lc  ff.o [1]
chk_chr                 0x0803063f    0x14  Code  Lc  ff.o [1]
chk_lock                0x08030653    0x70  Code  Lc  ff.o [1]
clamp_to_software_endstops(float *)
                        0x08020e51    0xac  Code  Gb  Marlin_main.o [1]
clean_up_after_endstop_or_probe_move()
                        0x08020505    0x10  Code  Lc  Marlin_main.o [1]
clear_command_queue()   0x080201e9     0xe  Code  Gb  Marlin_main.o [1]
clear_cur_ui            0x08027301    0xac  Code  Gb  draw_ui.o [1]
clear_lock              0x080307b1    0x22  Code  Lc  ff.o [1]
clmt_clust              0x08030c85    0x30  Code  Lc  ff.o [1]
cloud_menu              0x2000ebec    0x2c  Data  Gb  multi_language.o [1]
clr_ticket()            0x0802f895    0x14  Code  Gb  Marlin_main.o [1]
clust2sect              0x08030953    0x1e  Code  Gb  ff.o [1]
cmd_code                0x20000424    0xcc  Data  Gb  mks_cfg.o [1]
cmd_queue_index_r       0x20000acb     0x1  Data  Lc  Marlin_main.o [1]
cmd_queue_index_w       0x20000acc     0x1  Data  Lc  Marlin_main.o [1]
cmp_lfn                 0x08030efb    0x78  Code  Lc  ff.o [1]
cnt                     0x20000ef0     0x1  Data  Lc  draw_keyboard.o [1]
command_queue           0x20000b48   0x180  Data  Lc  Marlin_main.o [1]
commands_in_queue       0x20000aca     0x1  Data  Gb  Marlin_main.o [1]
common_menu             0x2000ec60    0x1c  Data  Gb  multi_language.o [1]
continue_print_error_flg
                        0x200116b8     0x1  Data  Gb  Marlin_main.o [1]
cosf                    0x08029a55     0x6  Code  Gb  cosf.o [4]
crc16(unsigned short *, void const *, unsigned short)
                        0x0803b273    0x3a  Code  Gb  utility.o [1]
creat_title_text        0x080272ff     0x2  Code  Gb  draw_ui.o [1]
create_chain            0x08030bbd    0xc8  Code  Lc  ff.o [1]
create_name             0x08031525   0x28c  Code  Lc  ff.o [1]
ctemp                   0x200116b9     0x1  Data  Gb  Marlin_main.o [1]
curDirLever             0x200004f0     0x1  Data  Gb  draw_print_file.o [1]
curFileName             0x200005b8    0x98  Data  Gb  draw_print_file.o [1]
current_position        0x20000adc    0x10  Data  Gb  Marlin_main.o [1]
cutFileName             0x08043a1d    0xb6  Code  Gb  string_deal.o [1]
dec_lock                0x0803077d    0x34  Code  Lc  ff.o [1]
default_preview_flg     0x20000883     0x1  Data  Gb  draw_ui.o [1]
delaycnt                0x200115a0     0x4  Data  Gb  main.o [1]
destination             0x20000aec    0x10  Data  Gb  Marlin_main.o [1]
detection_menu          0x2000ed24    0x18  Data  Gb  multi_language.o [1]
dialog_display_flg      0x200116bb     0x1  Data  Gb  draw_dialog.o [1]
dialog_menu             0x2000eb34    0x2c  Data  Gb  multi_language.o [1]
digits                  0x08045410    0x28  Data  Lc  xstoul.o [3]
dir_alloc               0x08030e79    0x4e  Code  Lc  ff.o [1]
dir_find                0x080310eb    0xec  Code  Lc  ff.o [1]
dir_next                0x08030d5d   0x11c  Code  Lc  ff.o [1]
dir_offset              0x20000540    0x78  Data  Gb  draw_print_file.o [1]
dir_read                0x080311d7    0xd4  Code  Lc  ff.o [1]
dir_register            0x080312ab   0x136  Code  Lc  ff.o [1]
dir_remove              0x080313e1    0x64  Code  Lc  ff.o [1]
dir_sdi                 0x08030cb5    0xa8  Code  Lc  ff.o [1]
disable_all_steppers()  0x08021329    0x20  Code  Gb  Marlin_main.o [1]
disable_e_steppers()    0x08021327     0x2  Code  Gb  Marlin_main.o [1]
disk                    0x20011560    0x10  Data  Gb  ff_gen_drv.o [1]
disk_initialize         0x080430cf    0x20  Code  Gb  diskio.o [1]
disk_ioctl              0x0804311b    0x18  Code  Gb  diskio.o [1]
disk_read               0x080430ef    0x16  Code  Gb  diskio.o [1]
disk_status             0x080430bd    0x12  Code  Gb  diskio.o [1]
disk_write              0x08043105    0x16  Code  Gb  diskio.o [1]
disp_in_file_dir        0x200004f2     0x1  Data  Gb  draw_print_file.o [1]
disp_language_init()    0x0803d741  0x2918  Code  Gb  multi_language.o [1]
disp_move_dist          0x08034911    0xdc  Code  Gb  draw_move_motor.o [1]
disp_pre_gcode          0x080277d3    0x14  Code  Gb  draw_ui.o [1]
disp_print_time         0x08028039    0xd2  Code  Gb  draw_printing.o [1]
disp_sel_item           0x08035b71   0xaca  Code  Gb  draw_language.o [1]
disp_state              0x20000885     0x1  Data  Gb  draw_ui.o [1]
disp_state_stack        0x200107a8    0x68  Data  Gb  draw_ui.o [1]
disp_udisk_files        0x0803401d   0x2e0  Code  Gb  draw_print_file.o [1]
display_para_value()    0x080350a7    0xce  Code  Gb  draw_operate.o [1]
display_print_statue    0x08027f77    0xa4  Code  Gb  draw_printing.o [1]
display_print_times     0x08027f05    0x72  Code  Gb  draw_printing.o [1]
div                     0x080457ad     0xe  Code  Gb  div.o [3]
dmul                    0x08045aa9    0x5a  Code  Lc  xdtento.o [4]
do_blocking_move_to(float const &, float const &, float const &, float const &)
                        0x08020389    0x9c  Code  Gb  Marlin_main.o [1]
do_blocking_move_to_nowait(float const &, float const &, float const &, float const &)
                        0x08020429    0x98  Code  Gb  Marlin_main.o [1]
do_blocking_move_to_z(float const &, float const &)
                        0x080204c1    0x18  Code  Gb  Marlin_main.o [1]
do_blocking_move_to_z_nowait(float const &, float const &)
                        0x080204d9    0x18  Code  Gb  Marlin_main.o [1]
do_homing_move(AxisEnum, float, float)
                        0x08020569    0x5e  Code  Lc  Marlin_main.o [1]
drain_injected_commands_P()
                        0x08020189    0x58  Code  Lc  Marlin_main.o [1]
draw_About              0x08036761   0x1a8  Code  Gb  draw_about.o [1]
draw_ExposureTest       0x080302b1   0x14e  Code  Gb  draw_ExposureTest.o [1]
draw_Info               0x08038627   0x29e  Code  Gb  draw_info.o [1]
draw_Language           0x080357a1   0x3d0  Code  Gb  draw_language.o [1]
draw_Preview            0x08038a39   0x1d0  Code  Gb  draw_preview.o [1]
draw_Service            0x080382eb   0x1dc  Code  Gb  draw_service.o [1]
draw_Set                0x0803528b   0x2a2  Code  Gb  draw_set.o [1]
draw_detection          0x08037e49   0x374  Code  Gb  draw_detection.o [1]
draw_dialog             0x0802e81b   0x39c  Code  Gb  draw_dialog.o [1]
draw_keyboard           0x080372c1   0x8c0  Code  Gb  draw_keyboard.o [1]
draw_move_motor         0x08034519   0x3f8  Code  Gb  draw_move_motor.o [1]
draw_operate            0x08034c67   0x440  Code  Gb  draw_operate.o [1]
draw_print_file         0x08033dd1    0xa4  Code  Gb  draw_print_file.o [1]
draw_printing           0x08027a45   0x4ba  Code  Gb  draw_printing.o [1]
draw_ready_print        0x0802f06d   0x210  Code  Gb  draw_ready_print.o [1]
draw_return_ui          0x080273ad    0xd8  Code  Gb  draw_ui.o [1]
draw_status_clear       0x08027a43     0x2  Code  Gb  draw_printing.o [1]
draw_tool()             0x08036a61   0x33a  Code  Gb  draw_tool.o [1]
drawicon_preview        0x08043b33    0x4c  Code  Gb  pic.o [1]
dst_buf                 0x2001102c    0x34  Data  Gb  mks_cfg.o [1]
duration_t::day() const
                        0x0804499d    0x10  Code  Gb  printcounter.o [1]
duration_t::duration_t(unsigned int const &)
                        0x0803b0b9     0x6  Code  Gb  printcounter.o [1]
duration_t::hour() const
                        0x080449ad     0xe  Code  Gb  printcounter.o [1]
duration_t::minute() const
                        0x080449bb     0xe  Code  Gb  printcounter.o [1]
duration_t::second() const
                        0x080449c9     0x4  Code  Gb  printcounter.o [1]
duration_t::toString(char *) const
                        0x0803b0c1    0xe8  Code  Gb  printcounter.o [1]
duration_t::toString(char *) const::string
                        0x0805156c    0x14  Data  Gb  printcounter.o [1]
duration_t::toString(char *) const::string (instance 2)
                        0x08051738    0x10  Data  Gb  printcounter.o [1]
duration_t::toString(char *) const::string (instance 3)
                        0x080517e4     0xc  Data  Gb  printcounter.o [1]
duration_t::toString(char *) const::string (instance 4)
                        0x08051870     0x8  Data  Gb  printcounter.o [1]
duration_t::toString(char *) const::string (instance 5)
                        0x080518a8     0x4  Data  Gb  printcounter.o [1]
duration_t::year() const
                        0x0804498b    0x12  Code  Gb  printcounter.o [1]
dwell(unsigned long)    0x08020745    0x20  Code  Gb  Marlin_main.o [1]
echomagic               0x08051750     0x8  Data  Gb  serial.o [1]
enable_all_steppers()   0x08021315    0x12  Code  Gb  Marlin_main.o [1]
endstops                0x20011658     0x4  Data  Gb  endstops.o [1]
enq_lock                0x080306c3    0x24  Code  Lc  ff.o [1]
enqueue_and_echo_command(char const *, bool)
                        0x080201f7    0x3a  Code  Gb  Marlin_main.o [1]
enqueue_and_echo_commands_P(char const *)
                        0x080201e1     0x8  Code  Gb  Marlin_main.o [1]
eprBurnValue(char *, float *)
                        0x0802d7cd    0x3a  Code  Gb  mks_cfg.o [1]
eprBurnValue(char *, float *, unsigned short)
                        0x0802d839    0x50  Code  Gb  mks_cfg.o [1]
eprBurnValue(char *, short *, unsigned short)
                        0x0802d8d1    0x48  Code  Gb  mks_cfg.o [1]
eprBurnValue(char *, unsigned char *, unsigned short)
                        0x0802d889    0x48  Code  Gb  mks_cfg.o [1]
eprBurnValue(char *, unsigned int *)
                        0x0802d807    0x32  Code  Gb  mks_cfg.o [1]
epr_read_data           0x0802dced    0x2a  Code  Gb  mks_cfg.o [1]
epr_write_data          0x0802dc63    0x8a  Code  Gb  mks_cfg.o [1]
errormagic              0x08051748     0x8  Data  Gb  serial.o [1]
exit                    0x08051487     0x4  Code  Gb  exit.o [3]
exposure_bmp_data_circle
                        0x08022db8  0x1770  Data  Lc  Marlin_main.o [1]
exposure_msg_display    0x080303ff    0x44  Code  Gb  draw_ExposureTest.o [1]
extrude_menu            0x2000e928    0x44  Data  Gb  multi_language.o [1]
f_close                 0x08032301    0x2a  Code  Gb  ff.o [1]
f_lseek                 0x0803232b   0x26a  Code  Gb  ff.o [1]
f_mount                 0x08031c57    0x5e  Code  Gb  ff.o [1]
f_open                  0x08031cc5   0x1e8  Code  Gb  ff.o [1]
f_opendir               0x08032595    0x9e  Code  Gb  ff.o [1]
f_read                  0x08031ead   0x1a4  Code  Gb  ff.o [1]
f_readdir               0x08032633    0x62  Code  Gb  ff.o [1]
f_rename                0x08032773   0x148  Code  Gb  ff.o [1]
f_sync                  0x08032251    0xb0  Code  Gb  ff.o [1]
f_unlink                0x08032695    0xde  Code  Gb  ff.o [1]
f_write                 0x08032051   0x200  Code  Gb  ff.o [1]
fanSpeeds               0x20011670     0x4  Data  Gb  Marlin_main.o [1]
fan_menu                0x2000ec3c    0x24  Data  Gb  multi_language.o [1]
feedrate_mm_s           0x20000b34     0x4  Data  Gb  Marlin_main.o [1]
feedrate_percentage     0x20000ad8     0x2  Data  Gb  Marlin_main.o [1]
ff_convert              0x08043139    0x82  Code  Gb  mycc936.o [1]
ff_wtoupper             0x080431c1    0x24  Code  Gb  mycc936.o [1]
filament_menu           0x2000e8cc    0x5c  Data  Gb  multi_language.o [1]
file_menu               0x2000ec7c    0x1c  Data  Gb  multi_language.o [1]
filesys_menu            0x2000ed3c    0x14  Data  Gb  multi_language.o [1]
find_next_bmp()         0x08022063    0x3e  Code  Gb  Marlin_main.o [1]
find_volume             0x080318f5   0x32c  Code  Lc  ff.o [1]
fit_lfn                 0x08030fcf    0x5c  Code  Lc  ff.o [1]
flash_preview_begin     0x200116bf     0x1  Data  Gb  draw_ui.o [1]
floorf                  0x0802988d          Code  Gb  floorf.o [4]
fmodf                   0x08047471          Code  Gb  fmodf.o [4]
follow_path             0x080317c5    0x78  Code  Lc  ff.o [1]
freeMemory()            0x08020183     0x6  Code  Gb  Marlin_main.o [1]
from_flash_pic          0x20000884     0x1  Data  Gb  draw_ui.o [1]
fs                      0x20000650   0x230  Data  Gb  draw_print_file.o [1]
gArrayGpioPin           0x20001030    0x14  Data  Gb  mks_variant.o [1]
gArrayGpioPort          0x20000fa0    0x28  Data  Gb  mks_variant.o [1]
gCbEventStack           0x200113f0    0x2c  Data  Lc  draw_ui.o [1]
gCfgItems               0x2000fcf4   0x1b4  Data  Gb  mks_cfg.o [1]
gCurFileState           0x2000f6dc   0x240  Data  Gb  mks_cfg.o [1]
gId_stack               0x2000f124   0x320  Data  Lc  id_manage.o [1]
gTouchEvent             0x200115e0     0xc  Data  Lc  GUI_X_Touch.o [5]
gcode_G0_G1()           0x08026e39    0x18  Code  Gb  Marlin_main.o [1]
gcode_G28(bool)         0x080270a9    0xe8  Code  Gb  Marlin_main.o [1]
gcode_G2_G3(bool)       0x08026e51   0x210  Code  Gb  Marlin_main.o [1]
gcode_G2_G3(bool)::string
                        0x08051498    0x18  Data  Gb  Marlin_main.o [1]
gcode_G4()              0x08027061    0x48  Code  Gb  Marlin_main.o [1]
gcode_G4()::string      0x08051790     0xc  Data  Gb  Marlin_main.o [1]
gcode_G92()             0x08027191    0xa0  Code  Gb  Marlin_main.o [1]
gcode_LastN             0x200010e4     0x4  Data  Lc  Marlin_main.o [1]
gcode_M104()            0x080285d9    0xec  Code  Gb  Marlin_main.o [1]
gcode_M104()::string    0x080514f4    0x14  Data  Gb  Marlin_main.o [1]
gcode_M104()::string (instance 2)
                        0x080515d8    0x10  Data  Gb  Marlin_main.o [1]
gcode_M104()::string (instance 3)
                        0x080515e8    0x10  Data  Gb  Marlin_main.o [1]
gcode_M104()::string (instance 4)
                        0x080515f8    0x10  Data  Gb  Marlin_main.o [1]
gcode_M104()::string (instance 5)
                        0x08051608    0x10  Data  Gb  Marlin_main.o [1]
gcode_M104()::string (instance 6)
                        0x08051618    0x10  Data  Gb  Marlin_main.o [1]
gcode_M105()            0x080287ad    0x34  Code  Gb  Marlin_main.o [1]
gcode_M105()::string    0x080512d8    0x24  Data  Gb  Marlin_main.o [1]
gcode_M106()            0x08028a21    0x3c  Code  Gb  Marlin_main.o [1]
gcode_M107()            0x08028a5d    0x24  Code  Gb  Marlin_main.o [1]
gcode_M108()            0x08028769     0xc  Code  Gb  Marlin_main.o [1]
gcode_M109()            0x080287e1   0x240  Code  Gb  Marlin_main.o [1]
gcode_M109()::string    0x08051508    0x14  Data  Gb  Marlin_main.o [1]
gcode_M109()::string (instance 2)
                        0x08051628    0x10  Data  Gb  Marlin_main.o [1]
gcode_M109()::string (instance 3)
                        0x08051638    0x10  Data  Gb  Marlin_main.o [1]
gcode_M109()::string (instance 4)
                        0x08051648    0x10  Data  Gb  Marlin_main.o [1]
gcode_M109()::string (instance 5)
                        0x08051658    0x10  Data  Gb  Marlin_main.o [1]
gcode_M109()::string (instance 6)
                        0x08051668    0x10  Data  Gb  Marlin_main.o [1]
gcode_M109()::string (instance 7)
                        0x08051880     0x4  Data  Gb  Marlin_main.o [1]
gcode_M109()::string (instance 8)
                        0x08051678    0x10  Data  Gb  Marlin_main.o [1]
gcode_M110()            0x080286c5    0x1c  Code  Gb  Marlin_main.o [1]
gcode_M111()            0x080286e1    0x88  Code  Gb  Marlin_main.o [1]
gcode_M111()::debug_strings
                        0x08051558    0x14  Data  Gb  Marlin_main.o [1]
gcode_M111()::str_debug_1
                        0x08051850     0x8  Data  Gb  Marlin_main.o [1]
gcode_M111()::str_debug_16
                        0x08051728    0x10  Data  Gb  Marlin_main.o [1]
gcode_M111()::str_debug_2
                        0x08051858     0x8  Data  Gb  Marlin_main.o [1]
gcode_M111()::str_debug_4
                        0x08051860     0x8  Data  Gb  Marlin_main.o [1]
gcode_M111()::str_debug_8
                        0x08051868     0x8  Data  Gb  Marlin_main.o [1]
gcode_M111()::string (instance 6)
                        0x08051828     0x8  Data  Gb  Marlin_main.o [1]
gcode_M111()::string (instance 7)
                        0x08051884     0x4  Data  Gb  Marlin_main.o [1]
gcode_M112()            0x08028775     0xc  Code  Gb  Marlin_main.o [1]
gcode_M112()::string    0x080517a8     0xc  Data  Gb  Marlin_main.o [1]
gcode_M114()            0x08028c15     0xe  Code  Gb  Marlin_main.o [1]
gcode_M115()            0x08028c25    0xb8  Code  Gb  Marlin_main.o [1]
gcode_M115()::string    0x08050f04    0xc8  Data  Gb  Marlin_main.o [1]
gcode_M115()::string (instance 10)
                        0x080516a8    0x10  Data  Gb  Marlin_main.o [1]
gcode_M115()::string (instance 11)
                        0x080516b8    0x10  Data  Gb  Marlin_main.o [1]
gcode_M115()::string (instance 12)
                        0x080516c8    0x10  Data  Gb  Marlin_main.o [1]
gcode_M115()::string (instance 13)
                        0x080516d8    0x10  Data  Gb  Marlin_main.o [1]
gcode_M115()::string (instance 14)
                        0x080514b0    0x18  Data  Gb  Marlin_main.o [1]
gcode_M115()::string (instance 15)
                        0x0805151c    0x14  Data  Gb  Marlin_main.o [1]
gcode_M115()::string (instance 2)
                        0x08051688    0x10  Data  Gb  Marlin_main.o [1]
gcode_M115()::string (instance 3)
                        0x08051830     0x8  Data  Gb  Marlin_main.o [1]
gcode_M115()::string (instance 4)
                        0x080517b4     0xc  Data  Gb  Marlin_main.o [1]
gcode_M115()::string (instance 5)
                        0x08051698    0x10  Data  Gb  Marlin_main.o [1]
gcode_M115()::string (instance 6)
                        0x080517c0     0xc  Data  Gb  Marlin_main.o [1]
gcode_M115()::string (instance 7)
                        0x080517cc     0xc  Data  Gb  Marlin_main.o [1]
gcode_M115()::string (instance 8)
                        0x080517d8     0xc  Data  Gb  Marlin_main.o [1]
gcode_M115()::string (instance 9)
                        0x08051838     0x8  Data  Gb  Marlin_main.o [1]
gcode_M117()            0x08028cdd    0x10  Code  Gb  Marlin_main.o [1]
gcode_M118()            0x08028ced    0x4c  Code  Gb  Marlin_main.o [1]
gcode_M118()::string    0x08051888     0x4  Data  Gb  Marlin_main.o [1]
gcode_M119()            0x08028d39     0x4  Code  Gb  Marlin_main.o [1]
gcode_M120()            0x08028d3d     0x6  Code  Gb  Marlin_main.o [1]
gcode_M121()            0x08028d43     0x6  Code  Gb  Marlin_main.o [1]
gcode_M140()            0x08028785    0x28  Code  Gb  Marlin_main.o [1]
gcode_M17()             0x08027231    0x18  Code  Gb  Marlin_main.o [1]
gcode_M17()::string     0x0805179c     0xc  Data  Gb  Marlin_main.o [1]
gcode_M18_M84()         0x08028ac5    0x94  Code  Gb  Marlin_main.o [1]
gcode_M20()             0x08027249    0x24  Code  Gb  Marlin_main.o [1]
gcode_M20()::string     0x080514e0    0x14  Data  Gb  Marlin_main.o [1]
gcode_M20()::string (instance 2)
                        0x080515a8    0x10  Data  Gb  Marlin_main.o [1]
gcode_M200()            0x08028d49    0x58  Code  Gb  Marlin_main.o [1]
gcode_M201()            0x08028da1    0x40  Code  Gb  Marlin_main.o [1]
gcode_M203()            0x08028de1    0x38  Code  Gb  Marlin_main.o [1]
gcode_M204()            0x08028e19    0xb8  Code  Gb  Marlin_main.o [1]
gcode_M204()::string    0x08051264    0x28  Data  Gb  Marlin_main.o [1]
gcode_M204()::string (instance 2)
                        0x08051394    0x20  Data  Gb  Marlin_main.o [1]
gcode_M204()::string (instance 3)
                        0x080513b4    0x20  Data  Gb  Marlin_main.o [1]
gcode_M204()::string (instance 4)
                        0x080513d4    0x20  Data  Gb  Marlin_main.o [1]
gcode_M205()            0x08028ed1    0xa0  Code  Gb  Marlin_main.o [1]
gcode_M206()            0x08028f71    0x30  Code  Gb  Marlin_main.o [1]
gcode_M211()            0x08028fa1    0xf0  Code  Gb  Marlin_main.o [1]
gcode_M211()::string    0x080516e8    0x10  Data  Gb  Marlin_main.o [1]
gcode_M211()::string (instance 2)
                        0x0805188c     0x4  Data  Gb  Marlin_main.o [1]
gcode_M211()::string (instance 3)
                        0x08051890     0x4  Data  Gb  Marlin_main.o [1]
gcode_M211()::string (instance 4)
                        0x08051840     0x8  Data  Gb  Marlin_main.o [1]
gcode_M211()::string (instance 5)
                        0x08026a3a     0x2  Data  Gb  Marlin_main.o [1]
gcode_M211()::string (instance 6)
                        0x08051894     0x4  Data  Gb  Marlin_main.o [1]
gcode_M211()::string (instance 7)
                        0x08051898     0x4  Data  Gb  Marlin_main.o [1]
gcode_M211()::string (instance 8)
                        0x08051848     0x8  Data  Gb  Marlin_main.o [1]
gcode_M22()             0x0802726d     0xc  Code  Gb  Marlin_main.o [1]
gcode_M220()            0x08029091    0x1c  Code  Gb  Marlin_main.o [1]
gcode_M221()            0x080290ad    0x38  Code  Gb  Marlin_main.o [1]
gcode_M226()            0x080290e5    0x94  Code  Gb  Marlin_main.o [1]
gcode_M23()             0x08027279    0x44  Code  Gb  Marlin_main.o [1]
gcode_M24()             0x080272bd    0x2c  Code  Gb  Marlin_main.o [1]
gcode_M25()             0x0802835d    0x20  Code  Gb  Marlin_main.o [1]
gcode_M26()             0x080283f1    0x2c  Code  Gb  Marlin_main.o [1]
gcode_M27()             0x0802841d     0xc  Code  Gb  Marlin_main.o [1]
gcode_M28()             0x08028429    0x18  Code  Gb  Marlin_main.o [1]
gcode_M29()             0x08028441     0x2  Code  Gb  Marlin_main.o [1]
gcode_M30()             0x08028445    0x2c  Code  Gb  Marlin_main.o [1]
gcode_M301()            0x08029179   0x110  Code  Gb  Marlin_main.o [1]
gcode_M301()::string    0x0805189c     0x4  Data  Gb  Marlin_main.o [1]
gcode_M301()::string (instance 2)
                        0x080518a0     0x4  Data  Gb  Marlin_main.o [1]
gcode_M301()::string (instance 3)
                        0x080518a4     0x4  Data  Gb  Marlin_main.o [1]
gcode_M301()::string (instance 4)
                        0x08051530    0x14  Data  Gb  Marlin_main.o [1]
gcode_M303()            0x08029289    0x70  Code  Gb  Marlin_main.o [1]
gcode_M31()             0x080284ed    0x4c  Code  Gb  Marlin_main.o [1]
gcode_M31()::string     0x080515b8    0x10  Data  Gb  Marlin_main.o [1]
gcode_M32()             0x08028471    0x68  Code  Gb  Marlin_main.o [1]
gcode_M355()            0x0802943d    0x1c  Code  Gb  Marlin_main.o [1]
gcode_M355()::string    0x08051718    0x10  Data  Gb  Marlin_main.o [1]
gcode_M400()            0x080292f9     0x4  Code  Gb  Marlin_main.o [1]
gcode_M410()            0x08028781     0x4  Code  Gb  Marlin_main.o [1]
gcode_M42()             0x08028539    0x7c  Code  Gb  Marlin_main.o [1]
gcode_M42()::string     0x080515c8    0x10  Data  Gb  Marlin_main.o [1]
gcode_M428()            0x080292fd   0x10c  Code  Gb  Marlin_main.o [1]
gcode_M428()::string    0x080513f4    0x20  Data  Gb  Marlin_main.o [1]
gcode_M428()::string (instance 2)
                        0x080516f8    0x10  Data  Gb  Marlin_main.o [1]
gcode_M428()::string (instance 3)
                        0x08051708    0x10  Data  Gb  Marlin_main.o [1]
gcode_M500()            0x08029409     0x4  Code  Gb  Marlin_main.o [1]
gcode_M501()            0x0802940d     0x4  Code  Gb  Marlin_main.o [1]
gcode_M502()            0x08029411     0x4  Code  Gb  Marlin_main.o [1]
gcode_M503()            0x08029415    0x24  Code  Gb  Marlin_main.o [1]
gcode_M75()             0x080285b5     0xc  Code  Gb  Marlin_main.o [1]
gcode_M76()             0x080285c1     0xc  Code  Gb  Marlin_main.o [1]
gcode_M77()             0x080285cd     0xc  Code  Gb  Marlin_main.o [1]
gcode_M81()             0x08028a81    0x2c  Code  Gb  Marlin_main.o [1]
gcode_M82()             0x08028aad     0xc  Code  Gb  Marlin_main.o [1]
gcode_M83()             0x08028ab9     0xc  Code  Gb  Marlin_main.o [1]
gcode_M85()             0x08028b59    0x1c  Code  Gb  Marlin_main.o [1]
gcode_M907()            0x08029439     0x2  Code  Gb  Marlin_main.o [1]
gcode_M92()             0x08028b75    0xa0  Code  Gb  Marlin_main.o [1]
gcode_M928()            0x080284d9    0x14  Code  Gb  Marlin_main.o [1]
gcode_M998()            0x0802837d    0x74  Code  Gb  Marlin_main.o [1]
gcode_M999()            0x08029459    0x24  Code  Gb  Marlin_main.o [1]
gcode_N                 0x20000b30     0x4  Data  Lc  Marlin_main.o [1]
gcode_T(unsigned char)  0x0802947d    0x10  Code  Gb  Marlin_main.o [1]
gcode_get_destination()
                        0x080206d1    0x70  Code  Gb  Marlin_main.o [1]
gcode_line_error(char const *, bool)
                        0x08020247    0x3c  Code  Gb  Marlin_main.o [1]
gcode_preview(FIL *, int, int)
                        0x08027745    0x8e  Code  Gb  draw_ui.o [1]
gcode_preview_over      0x20000882     0x1  Data  Gb  draw_ui.o [1]
gen_numname             0x0803103d    0x92  Code  Lc  ff.o [1]
getTick                 0x0802ec4d     0x6  Code  Gb  tim.o [1]
getTickDiff             0x0802ec53    0x12  Code  Gb  tim.o [1]
getTouchEvent           0x08044c2d    0x7a  Code  Gb  mks_touch_screen.o [1]
get_available_commands()
                        0x08020283    0x14  Code  Gb  Marlin_main.o [1]
get_cartesian_from_steppers()
                        0x08020efd    0x26  Code  Gb  Marlin_main.o [1]
get_fat                 0x08030971    0xd8  Code  Gb  ff.o [1]
get_fattime             0x0803d291     0x4  Code  Gb  fatfs.o [1]
get_fileinfo            0x08031445    0xe0  Code  Lc  ff.o [1]
get_homing_bump_feedrate(AxisEnum)
                        0x08026ca1    0x50  Code  Gb  Marlin_main.o [1]
get_homing_bump_feedrate(AxisEnum)::string
                        0x080512b4    0x24  Data  Gb  Marlin_main.o [1]
get_ldnumber            0x0803183d    0x46  Code  Lc  ff.o [1]
get_serial_commands()   0x08026191   0x228  Code  Gb  Marlin_main.o [1]
get_serial_commands()::last_wait_time
                        0x20011674     0x4  Data  Gb  Marlin_main.o [1]
get_serial_commands()::serial_comment_mode
                        0x200116c3     0x1  Data  Gb  Marlin_main.o [1]
get_serial_commands()::serial_line_buffer
                        0x200108d4    0x60  Data  Gb  Marlin_main.o [1]
get_serial_commands()::string
                        0x08051808     0x8  Data  Gb  Marlin_main.o [1]
get_serial_commands()::string (instance 10)
                        0x08051820     0x8  Data  Gb  Marlin_main.o [1]
get_serial_commands()::string (instance 2)
                        0x080511d4    0x34  Data  Gb  Marlin_main.o [1]
get_serial_commands()::string (instance 3)
                        0x08051374    0x20  Data  Gb  Marlin_main.o [1]
get_serial_commands()::string (instance 4)
                        0x08051238    0x2c  Data  Gb  Marlin_main.o [1]
get_serial_commands()::string (instance 5)
                        0x0805110c    0x78  Data  Gb  Marlin_main.o [1]
get_serial_commands()::string (instance 6)
                        0x08051778     0xc  Data  Gb  Marlin_main.o [1]
get_serial_commands()::string (instance 7)
                        0x08051810     0x8  Data  Gb  Marlin_main.o [1]
get_serial_commands()::string (instance 8)
                        0x08051818     0x8  Data  Gb  Marlin_main.o [1]
get_serial_commands()::string (instance 9)
                        0x08051784     0xc  Data  Gb  Marlin_main.o [1]
get_target_extruder_from_command(unsigned short)
                        0x08020297    0x62  Code  Gb  Marlin_main.o [1]
gui_view_init           0x08027485    0x60  Code  Gb  draw_ui.o [1]
hAboutWnd               0x20011440     0x2  Data  Lc  draw_about.o [1]
hDetectionWnd           0x20010e58     0x2  Data  Gb  draw_detection.o [1]
hExposureTestWnd        0x20010e8c     0x2  Data  Gb  draw_ExposureTest.o [1]
hInfoWnd                0x20010c7c     0x2  Data  Gb  draw_info.o [1]
hKeyBoardWnd            0x20000f00     0x2  Data  Gb  draw_keyboard.o [1]
hLanguageWnd            0x20000f3a     0x2  Data  Lc  draw_language.o [1]
hMoveMotorWnd           0x20010ec0     0x2  Data  Gb  draw_move_motor.o [1]
hOperateWnd             0x200109f6     0x2  Data  Lc  draw_operate.o [1]
hPreviewWnd             0x20010ef4     0x2  Data  Gb  draw_preview.o [1]
hPrintFileWnd           0x200004f4     0x2  Data  Gb  draw_print_file.o [1]
hPrintingWnd            0x20010f32     0x2  Data  Lc  draw_printing.o [1]
hReadyPrintWnd          0x20010f90     0x2  Data  Lc  draw_ready_print.o [1]
hServiceWnd             0x2001141c     0x2  Data  Gb  draw_service.o [1]
hSetWnd                 0x20010fc4     0x2  Data  Lc  draw_set.o [1]
hStopDlgWnd             0x20010e22     0x2  Data  Lc  draw_dialog.o [1]
hToolWnd                0x20010ff8     0x2  Data  Lc  draw_tool.o [1]
hUsbHostFS              0x2000ed5c   0x3c8  Data  Gb  usb_host.o [1]
have_pre_pic            0x08043ad9    0x5a  Code  Gb  pic.o [1]
hdma_sdio_rx            0x20010478    0x60  Data  Gb  sdio.o [1]
hdma_sdio_tx            0x200104d8    0x60  Data  Gb  sdio.o [1]
hdma_spi1_rx            0x2000fea8    0x60  Data  Gb  spi.o [1]
hdma_spi1_tx            0x2000ff08    0x60  Data  Gb  spi.o [1]
hdma_spi2_rx            0x2000ff68    0x60  Data  Gb  spi.o [1]
hdma_spi2_tx            0x2000ffc8    0x60  Data  Gb  spi.o [1]
hdma_usart1_rx          0x20010158    0x60  Data  Gb  usart.o [1]
hdma_usart1_tx          0x20010994    0x60  Data  Gb  usart.o [1]
hdma_usart6_rx          0x200101b8    0x60  Data  Gb  usart.o [1]
hdma_usart6_tx          0x20010218    0x60  Data  Gb  usart.o [1]
heater_ttbl_map         0x2001162c     0x4  Data  Lc  temperature.o [1]
heater_ttbllen_map      0x20011628     0x1  Data  Lc  temperature.o [1]
hexBurnValue(char *, int *, unsigned short)
                        0x0802d91d    0x4a  Code  Gb  mks_cfg.o [1]
hhcd_USB_OTG_FS         0x2000f444   0x298  Data  Gb  usbh_conf.o [1]
hi2c1                   0x20010a50    0x54  Data  Gb  i2c.o [1]
home_bump_mm(AxisEnum)  0x08020155     0xe  Code  Lc  Marlin_main.o [1]
home_bump_mm_P          0x20001100     0xc  Data  Gb  Marlin_main.o [1]
home_dir(AxisEnum)      0x08020163     0x8  Code  Lc  Marlin_main.o [1]
home_dir_P              0x20000f6c     0x4  Data  Gb  Marlin_main.o [1]
home_menu               0x2000ecb4    0x1c  Data  Gb  multi_language.o [1]
home_offset             0x20000b0c     0xc  Data  Gb  Marlin_main.o [1]
homeaxis(AxisEnum)      0x080205c9   0x108  Code  Lc  Marlin_main.o [1]
homing_feedrate_mm_s    0x20000afc    0x10  Data  Gb  Marlin_main.o [1]
hrtc                    0x20011460    0x20  Data  Gb  rtc.o [1]
hsd                     0x20010934    0x60  Data  Gb  sdio.o [1]
hspi1                   0x20010b00    0x58  Data  Gb  spi.o [1]
hspi2                   0x20010b58    0x58  Data  Gb  spi.o [1]
htim2                   0x20010cf4    0x3c  Data  Gb  tim.o [1]
htim3                   0x20010d30    0x3c  Data  Gb  tim.o [1]
htim4                   0x20010d6c    0x3c  Data  Gb  tim.o [1]
htim5                   0x20010da8    0x3c  Data  Gb  tim.o [1]
huart1                  0x20010bf8    0x40  Data  Gb  usart.o [1]
huart6                  0x20010c3c    0x40  Data  Gb  usart.o [1]
idle()                  0x08021421    0x30  Code  Gb  Marlin_main.o [1]
ili9320_BGR2RGB         0x08039821    0x10  Code  Gb  ili9488.o [1]
ili9320_Clear           0x080397a5    0x3e  Code  Gb  ili9488.o [1]
ili9320_GetPoint        0x080397e3    0x10  Code  Gb  ili9488.o [1]
ili9320_SetCursor       0x080396dd    0x5a  Code  Gb  ili9488.o [1]
ili9320_SetPoint        0x080397f3    0x2e  Code  Gb  ili9488.o [1]
ili9320_SetWindows      0x08039737    0x6e  Code  Gb  ili9488.o [1]
inc_lock                0x080306e7    0x96  Code  Lc  ff.o [1]
init_cb_stack()         0x080272e9    0x16  Code  Gb  draw_ui.o [1]
init_mparams            0x0803b9c3    0x32  Code  Lc  dlmalloc.o [3]
init_top                0x0803b9f5    0x34  Code  Lc  dlmalloc.o [3]
injected_commands_P     0x2001166c     0x4  Data  Lc  Marlin_main.o [1]
invalid_extruder_error(unsigned char)
                        0x08026df1    0x48  Code  Gb  Marlin_main.o [1]
invalid_extruder_error(unsigned char)::string
                        0x08051544    0x14  Data  Gb  Marlin_main.o [1]
isalpha                 0x08046617    0x14  Code  Gb  isxxx.o [3]
isspace                 0x0804662b    0x14  Code  Gb  isxxx.o [3]
key_set_value           0x20000f34     0x4  Data  Gb  draw_keyboard.o [1]
key_value               0x20000ef4     0xc  Data  Gb  draw_keyboard.o [1]
kill(char const *)      0x08021459    0x34  Code  Gb  Marlin_main.o [1]
labs                    0x0803b855     0x8  Code  Gb  labs.o [3]
language_menu           0x2000e9f4    0x40  Data  Gb  multi_language.o [1]
last_disp_state         0x200116bc     0x1  Data  Gb  draw_ui.o [1]
layer_display_area      0x20010810     0x2  Data  Lc  draw_printing.o [1]
layer_pic_clean         0x08027583    0x7e  Code  Gb  draw_ui.o [1]
layer_pic_display       0x08027601    0x9c  Code  Gb  draw_ui.o [1]
layer_text              0x20010f3a     0x2  Data  Lc  draw_printing.o [1]
lcd_hasstatus()         0x080339e9     0x4  Code  Gb  Marlin_main.o [1]
lcd_init()              0x0802cf31     0x2  Code  Gb  Marlin_main.o [1]
lcd_refresh()           0x08033a15     0x2  Code  Gb  Marlin_main.o [1]
lcd_reset_alert_level()
                        0x0803b3a1     0x2  Code  Gb  Marlin_main.o [1]
lcd_setalertstatusPGM(char const *)
                        0x0803b39f     0x2  Code  Gb  Marlin_main.o [1]
lcd_setstatus(char const *, bool)
                        0x0802e4cf     0x2  Code  Gb  Marlin_main.o [1]
lcd_setstatusPGM(char const *, signed char)
                        0x08032dc9     0x2  Code  Gb  Marlin_main.o [1]
lcd_update()            0x0803b621     0x2  Code  Gb  temperature.o [1]
ld_clust                0x08030ec7    0x20  Code  Lc  ff.o [1]
leveling_menu           0x2000ecd0    0x1c  Data  Gb  multi_language.o [1]
localeconv              0x0804577b    0x16  Code  Gb  localeconv.o [3]
logo_addroffset         0x2001167c     0x4  Data  Gb  pic_manager.o [1]
logo_n                  0x200010d0    0x10  Data  Gb  draw_ui.o [1]
logo_tick1              0x20011664     0x4  Data  Gb  main.o [1]
logo_tick2              0x20011668     0x4  Data  Gb  main.o [1]
loop                    0x08021625    0xae  Code  Gb  Marlin_main.o [1]
lroundf                 0x0803b85d    0x4e  Code  Gb  lroundf.o [4]
main                    0x0802d17d   0x230  Code  Gb  main.o [1]
main_menu               0x2000eaa4    0x30  Data  Gb  multi_language.o [1]
manage_inactivity(bool)
                        0x08021349    0x8a  Code  Gb  Marlin_main.o [1]
marlin_debug_flags      0x20000ac9     0x1  Data  Gb  Marlin_main.o [1]
max_inactive_time       0x200115b4     0x4  Data  Lc  Marlin_main.o [1]
max_length(AxisEnum)    0x08020147     0xe  Code  Lc  Marlin_main.o [1]
max_length_P            0x20000f94     0xc  Data  Gb  Marlin_main.o [1]
mem_cmp                 0x08030621    0x1e  Code  Lc  ff.o [1]
mem_cpy                 0x080305fd    0x14  Code  Lc  ff.o [1]
mem_set                 0x08030611    0x10  Code  Lc  ff.o [1]
memchr                  0x08045481          Code  Gb  memchr.o [6]
memcpy                  0x080296b1     0xc  Code  Gb  memcpy.o [3]
memmove                 0x08046ced     0xc  Code  Gb  memmove.o [6]
memset                  0x0802e4bb    0x14  Code  Gb  memset.o [3]
mipi_te_cnt             0x20011624     0x4  Data  Gb  ssd2828.o [1]
mksBeeperAlarm()        0x0802d3ad    0x86  Code  Gb  main.o [1]
mksBpAlrmEn             0x20011599     0x1  Data  Gb  main.o [1]
mksCfg                  0x200114a0    0x1c  Data  Gb  mks_cfg.o [1]
mksGetParameter(char *)
                        0x0802d5bd    0x40  Code  Gb  mks_cfg.o [1]
mksReprint              0x2000dca4    0xd8  Data  Gb  Marlin_main.o [1]
mksTmp                  0x20000000    0x18  Data  Gb  mks_cfg.o [1]
mksUsart1Rx             0x20010c38     0x1  Data  Gb  usart.o [1]
mks_G28(char *)         0x08021dfd    0x30  Code  Gb  Marlin_main.o [1]
mks_PrintStatePolling   0x08021c21   0x154  Code  Gb  Marlin_main.o [1]
mks_clearDir            0x08021e3d    0x2a  Code  Gb  Marlin_main.o [1]
mks_contiuePrint_UI     0x08021e75    0xb4  Code  Gb  Marlin_main.o [1]
mks_heating_busy        0x20000ac8     0x1  Data  Gb  Marlin_main.o [1]
mks_initPrint           0x08021b31    0x40  Code  Gb  Marlin_main.o [1]
mks_pausePrint          0x08021bb1    0x5a  Code  Gb  Marlin_main.o [1]
mks_rePrintCheck        0x08021f39    0xb6  Code  Gb  Marlin_main.o [1]
mks_resumePrint         0x08021b71    0x36  Code  Gb  Marlin_main.o [1]
mks_saveFileName        0x08021fef    0x30  Code  Gb  Marlin_main.o [1]
mks_setPositionZ        0x08021d7d    0x60  Code  Gb  Marlin_main.o [1]
mksdlp                  0x2000d9b8   0x2ec  Data  Gb  Marlin_main.o [1]
mkstft_ui_init          0x08021a29   0x100  Code  Gb  Marlin_main.o [1]
mkstft_ui_load          0x08021799   0x12e  Code  Gb  Marlin_main.o [1]
mkstft_ui_set_epr()     0x080218cd   0x154  Code  Gb  Marlin_main.o [1]
more_menu               0x2000ed50     0xc  Data  Gb  multi_language.o [1]
move_menu               0x2000eb8c    0x34  Data  Gb  multi_language.o [1]
move_window             0x0803083f    0x3a  Code  Lc  ff.o [1]
mparams                 0x20011534    0x18  Data  Lc  dlmalloc.o [3]
ndigs                   0x08045438    0x28  Data  Lc  xstoul.o [3]
ok_to_send()            0x08020e0b    0x28  Code  Gb  Marlin_main.o [1]
once_flag               0x20010f58     0x4  Data  Gb  draw_printing.o [1]
operation_menu          0x2000e9b0    0x44  Data  Gb  multi_language.o [1]
page_nub                0x20000f38     0x1  Data  Lc  draw_language.o [1]
para_value              0x20010a40    0x10  Data  Gb  draw_operate.o [1]
parser                  0x20011660     0x4  Data  Gb  gcode.o [1]
pause_menu              0x2000ec98    0x1c  Data  Gb  multi_language.o [1]
pause_resum             0x20010f5c     0x1  Data  Gb  draw_printing.o [1]
pick_lfn                0x08030f73    0x5c  Code  Lc  ff.o [1]
pin_is_protected(signed char)
                        0x08020765    0x1e  Code  Lc  Marlin_main.o [1]
plan_arc(float const (&)[4], float const (&)[2], bool)
                        0x08021005   0x310  Code  Gb  Marlin_main.o [1]
planner                 0x2001161c     0x4  Data  Gb  planner.o [1]
point_flg               0x20000ef1     0x1  Data  Lc  draw_keyboard.o [1]
position_shift          0x20000b3c     0xc  Data  Gb  Marlin_main.o [1]
pows                    0x08045c60    0x48  Data  Lc  xdtento.o [4]
preheat_menu            0x2000ea6c    0x38  Data  Gb  multi_language.o [1]
prepare_move_to_destination()
                        0x08020f59    0x78  Code  Gb  Marlin_main.o [1]
prepare_move_to_destination_cartesian()
                        0x080296bd    0x44  Code  Gb  Marlin_main.o [1]
prepend_alloc           0x0803ba29   0x33c  Code  Lc  dlmalloc.o [3]
preview_gcode_prehandle
                        0x080277e7    0x78  Code  Gb  draw_ui.o [1]
preview_no_display      0x200116c2     0x1  Data  Gb  Marlin_main.o [1]
previous_cmd_ms         0x200115b0     0x4  Data  Gb  Marlin_main.o [1]
printStopDlgText        0x20010e24     0x2  Data  Lc  draw_dialog.o [1]
printTimeLeft           0x20010f54     0x2  Data  Lc  draw_printing.o [1]
print_file_dialog_menu  0x2000eb60    0x2c  Data  Gb  multi_language.o [1]
print_job_timer         0x2000dd7c    0x10  Data  Gb  Marlin_main.o [1]
print_time              0x20010f28     0x8  Data  Gb  draw_printing.o [1]
print_time_run          0x0802810b    0x44  Code  Gb  draw_printing.o [1]
printingBar             0x20010f34     0x2  Data  Lc  draw_printing.o [1]
printing_menu           0x2000ec18    0x24  Data  Gb  multi_language.o [1]
printing_more_menu      0x2000ecec    0x1c  Data  Gb  multi_language.o [1]
printing_rate_update_flag
                        0x20011570     0x1  Data  Gb  Marlin_main.o [1]
process_next_command()  0x08020da1    0x3e  Code  Gb  Marlin_main.o [1]
process_parsed_command()
                        0x0802093d   0x464  Code  Gb  Marlin_main.o [1]
put_fat                 0x08030a49   0x102  Code  Gb  ff.o [1]
quickstop_stepper()     0x080208b5    0x16  Code  Gb  Marlin_main.o [1]
reTransmission_all_cnt  0x200010f8     0x4  Data  Gb  Marlin_main.o [1]
reTransmission_data_cnt
                        0x200010f4     0x4  Data  Gb  Marlin_main.o [1]
reTransmission_zero_cnt
                        0x200010f0     0x4  Data  Gb  Marlin_main.o [1]
refresh_cmd_timeout()   0x080269a9    0x10  Code  Gb  Marlin_main.o [1]
relative_mode           0x20000acf     0x1  Data  Lc  Marlin_main.o [1]
remain_time             0x20010f38     0x2  Data  Lc  draw_printing.o [1]
remove_chain            0x08030b4b    0x72  Code  Lc  ff.o [1]
report_current_position()
                        0x080207fd    0x74  Code  Gb  Marlin_main.o [1]
report_mksdlp_position()
                        0x080207ad    0x46  Code  Gb  Marlin_main.o [1]
reset_file_info         0x08027a29    0x1a  Code  Gb  draw_printing.o [1]
reset_print_time        0x0802801b     0xe  Code  Gb  draw_printing.o [1]
retSD                   0x20011580     0x1  Data  Gb  fatfs.o [1]
retUSBH                 0x20011581     0x1  Data  Gb  fatfs.o [1]
roundf                  0x08044ad5    0x3e  Code  Gb  roundf.o [4]
row                     0x2000088c     0x4  Data  Gb  draw_ui.o [1]
rx_buffer1              0x20010090    0x68  Data  Gb  serial.o [1]
rx_buffer6              0x20010028    0x68  Data  Gb  serial.o [1]
safe_delay(unsigned long)
                        0x0803b24f    0x24  Code  Gb  utility.o [1]
saved_feedrate_mm_s     0x20000b38     0x4  Data  Lc  Marlin_main.o [1]
saved_feedrate_percentage
                        0x20000ada     0x2  Data  Gb  Marlin_main.o [1]
scale                   0x08041479    0x46  Code  Lc  xprintffull.o [3]
search_files            0x08033e75   0x1a0  Code  Gb  draw_print_file.o [1]
segment_holding         0x0803b9a9    0x1a  Code  Lc  dlmalloc.o [3]
send_ok                 0x20000ad4     0x4  Data  Lc  Marlin_main.o [1]
serial_count            0x200010ec     0x4  Data  Lc  Marlin_main.o [1]
serial_echopair_P(char const *, char const *)
                        0x08025d23    0x14  Code  Gb  serial.o [1]
serial_echopair_P(char const *, double)
                        0x08025da7    0x2a  Code  Gb  serial.o [1]
serial_echopair_P(char const *, float)
                        0x08025d79    0x2e  Code  Gb  serial.o [1]
serial_echopair_P(char const *, int)
                        0x08025d37    0x16  Code  Gb  serial.o [1]
serial_echopair_P(char const *, long)
                        0x08025d63    0x16  Code  Gb  serial.o [1]
serial_echopair_P(char const *, unsigned int)
                        0x08025d4d    0x16  Code  Gb  serial.o [1]
serial_echopair_P(char const *, unsigned long)
                        0x08025dd1    0x16  Code  Gb  serial.o [1]
serial_wait_tick        0x20000ad2     0x1  Data  Gb  Marlin_main.o [1]
serialprintPGM(char const *)
                        0x08025ccd    0x1c  Code  Gb  temperature.o [1]
servo_init()            0x08020245     0x2  Code  Gb  Marlin_main.o [1]
setProBarRate           0x0802814f    0xae  Code  Gb  draw_printing.o [1]
setTouchBound           0x0802baf9    0x10  Code  Gb  GUI_TOUCH_DriverAnalog.o [5]
set_axis_is_at_home(AxisEnum)
                        0x08020359    0x30  Code  Lc  Marlin_main.o [1]
set_current_from_destination()
                        0x08029701    0x14  Code  Gb  Marlin_main.o [1]
set_current_from_steppers_for_axis(AxisEnum)
                        0x08020f29    0x2c  Code  Gb  Marlin_main.o [1]
set_destination_from_current()
                        0x080339ed    0x14  Code  Gb  Marlin_main.o [1]
set_home_offset(AxisEnum, float)
                        0x0802034b     0xe  Code  Lc  Marlin_main.o [1]
set_menu                0x2000ead4    0x34  Data  Gb  multi_language.o [1]
setup                   0x080214b9    0xca  Code  Gb  Marlin_main.o [1]
setup_for_endstop_or_probe_move()
                        0x080204f1    0x14  Code  Lc  Marlin_main.o [1]
setup_killpin()         0x08020241     0x2  Code  Gb  Marlin_main.o [1]
sinf                    0x08029a5b     0x6  Code  Gb  sinf.o [4]
soft_endstop_max        0x20000b24     0xc  Data  Gb  Marlin_main.o [1]
soft_endstop_min        0x20000b18     0xc  Data  Gb  Marlin_main.o [1]
soft_endstop_min_init()
                        0x080200f9    0x24  Code  Gb  Marlin_main.o [1]
soft_endstops_enabled   0x20000acd     0x1  Data  Gb  Marlin_main.o [1]
speed_menu              0x2000eb08    0x2c  Data  Gb  multi_language.o [1]
spi1_hdmatx_CR          0x200010fc     0x4  Data  Gb  Marlin_main.o [1]
sprintf                 0x0802e4d1    0x34  Code  Gb  sprintf.o [3]
sqrt                    0x080338d9          Code  Gb  sqrt.o [4]
sqrtf                   0x08029715          Code  Gb  sqrtf.o [4]
sqrtl                   0x080338d9          Code  Gb  sqrt.o [4]
srcfp                   0x20011654     0x4  Data  Gb  draw_ui.o [1]
st_clust                0x08030ee7    0x14  Code  Lc  ff.o [1]
start_print_time        0x08028029     0x8  Code  Gb  draw_printing.o [1]
stepper_inactive_time   0x200115b8     0x4  Data  Lc  Marlin_main.o [1]
stop_print_time         0x08028031     0x8  Code  Gb  draw_printing.o [1]
strcat                  0x0802e505    0x1c  Code  Gb  strcat.o [3]
strchr                  0x080435d9          Code  Gb  strchr.o [6]
strchr(char *, int)     0x080328ff     0x4  Code  Gb  WString.o [1]
strlen                  0x080328c9          Code  Gb  strlen.o [6]
strncmp                 0x0803b97f    0x2a  Code  Gb  strncmp.o [3]
strrchr                 0x08046ce9     0x4  Code  Gb  string_deal.o [1]
strrchr(char *, int)    0x08032db5     0x4  Code  Gb  WString.o [1]
strrchr(char const *, int)
                        0x08043a19     0x4  Code  Gb  draw_print_file.o [1]
strstr(char *, char const *)
                        0x0802cf33     0x4  Code  Gb  WString.o [1]
strstr(char const *, char const *)
                        0x080328c3     0x4  Code  Gb  cardreader.o [1]
strting2float(unsigned char *, unsigned char)
                        0x08022023    0x40  Code  Gb  Marlin_main.o [1]
strtol                  0x08032daf     0x6  Code  Gb  strtol.o [3]
strtoul                 0x080449d7     0x4  Code  Gb  strtoul.o [3]
suicide()               0x08020243     0x2  Code  Gb  Marlin_main.o [1]
sum_sfn                 0x080310cf    0x1c  Code  Lc  ff.o [1]
sync_fs                 0x08030879    0xda  Code  Lc  ff.o [1]
sync_plan_position()    0x0802016b    0x18  Code  Gb  Marlin_main.o [1]
sync_plan_position_e()  0x08033a19     0xc  Code  Gb  Marlin_main.o [1]
sync_window             0x080307d9    0x66  Code  Lc  ff.o [1]
sys_alloc               0x0803bd65   0x384  Code  Lc  dlmalloc.o [3]
target_extruder         0x20000ad1     0x1  Data  Gb  Marlin_main.o [1]
temper_error_flg        0x200116c1     0x1  Data  Gb  Marlin_main.o [1]
temperature_change_frequency
                        0x20000881     0x1  Data  Gb  draw_ui.o [1]
temperature_change_frequency_cnt
                        0x20011574     0x4  Data  Lc  Marlin_main.o [1]
textKeyNumb             0x20000f02     0x2  Data  Lc  draw_keyboard.o [1]
text_edit               0x200109f4     0x1  Data  Gb  draw_operate.o [1]
textt                   0x20011650     0x4  Data  Gb  cardreader.o [1]
thermalManager          0x20011688     0x4  Data  Gb  temperature.o [1]
tmalloc_large           0x0803c0f5   0x38a  Code  Lc  dlmalloc.o [3]
tmalloc_small           0x0803c47f   0x204  Code  Lc  dlmalloc.o [3]
tolower                 0x080475e1    0x14  Code  Gb  tolower.o [3]
tool_change(unsigned char, float, bool)
                        0x080208cb    0x34  Code  Gb  Marlin_main.o [1]
tool_menu               0x2000ea34    0x38  Data  Gb  multi_language.o [1]
touch_time              0x20011614     0x4  Data  Lc  mks_touch_screen.o [1]
ugbksize                0x20011678     0x4  Data  Gb  mks_cfg.o [1]
update_software_endstops(AxisEnum)
                        0x08020311    0x3a  Code  Gb  Marlin_main.o [1]
used_time               0x20010f36     0x2  Data  Lc  draw_printing.o [1]
uwTick                  0x20011684     0x4  Data  Gb  stm32f4xx_hal.o [1]
validate                0x08031c21    0x36  Code  Lc  ff.o [1]
value_test              0x20000880     0x1  Data  Gb  draw_ui.o [1]
vbist_test_cnt          0x20011620     0x4  Data  Gb  ssd2828.o [1]
version                 0x0802c730     0x4  Data  Lc  configuration_store.o [1]
wait_for_heatup         0x20000ad0     0x1  Data  Gb  Marlin_main.o [1]
wifi_menu               0x2000ebc0    0x2c  Data  Gb  multi_language.o [1]
workspace_offset        0x200115a4     0xc  Data  Gb  Marlin_main.o [1]
xMax                    0x20000fe4     0x4  Data  Lc  GUI_TOUCH_DriverAnalog.o [5]
xMin                    0x20000fe0     0x4  Data  Lc  GUI_TOUCH_DriverAnalog.o [5]
xPhys                   0x20000fd8     0x4  Data  Lc  GUI_TOUCH_DriverAnalog.o [5]
x_touch                 0x20011610     0x2  Data  Lc  mks_touch_screen.o [1]
xyMinMax                0x20000fc8    0x10  Data  Lc  GUI_TOUCH_DriverAnalog.o [5]
yMax                    0x20000fec     0x4  Data  Lc  GUI_TOUCH_DriverAnalog.o [5]
yMin                    0x20000fe8     0x4  Data  Lc  GUI_TOUCH_DriverAnalog.o [5]
yPhys                   0x20000fdc     0x4  Data  Lc  GUI_TOUCH_DriverAnalog.o [5]
y_touch                 0x20011612     0x2  Data  Lc  mks_touch_screen.o [1]
z_high_count            0x20011572     0x2  Data  Gb  Marlin_main.o [1]
zoffset_menu            0x2000ed08    0x1c  Data  Gb  multi_language.o [1]


[1] = E:\DLP_Proj\DLP_source\branches\DLP_opensource\EWARM\mksDLP\Obj
[2] = command line
[3] = dl7M_tlf.a
[4] = m7M_tlv.a
[5] = mksDLP.a
[6] = rt7M_tl.a
[7] = shb_l.a

  179 254 bytes of readonly  code memory
   89 948 bytes of readonly  data memory
   83 655 bytes of readwrite data memory

Errors: none
Warnings: none
